Archive member included to satisfy reference by file (symbol)

../../lib/libcircle.a(actled.o)
                              kernel.o (CActLED::Off())
../../lib/libcircle.a(devicenameservice.o)
                              kernel.o (CDeviceNameService::CDeviceNameService())
../../lib/libcircle.a(gpiopin.o)
                              ../../lib/libcircle.a(actled.o) (CGPIOPin::CGPIOPin(unsigned int, TGPIOMode, CGPIOManager*))
../../lib/libcircle.a(koptions.o)
                              kernel.o (CKernelOptions::~CKernelOptions())
../../lib/libcircle.a(machineinfo.o)
                              ../../lib/libcircle.a(actled.o) (CMachineInfo::GetActLEDInfo() const)
../../lib/libcircle.a(screen.o)
                              kernel.o (CScreenDevice::CScreenDevice(unsigned int, unsigned int, bool))
../../lib/libcircle.a(string.o)
                              ../../lib/libcircle.a(devicenameservice.o) (CString::~CString())
../../lib/libcircle.a(sysinit.o)
                              main.o (halt)
../../lib/libcircle.a(timer.o)
                              ../../lib/libcircle.a(actled.o) (CTimer::SimpleMsDelay(unsigned int))
../../lib/libcircle.a(util.o)
                              ../../lib/libcircle.a(screen.o) (memset)
../../lib/libcircle.a(util_fast.o)
                              ../../lib/libcircle.a(screen.o) (memcpy)
../../lib/libcircle.a(virtualgpiopin.o)
                              ../../lib/libcircle.a(actled.o) (CVirtualGPIOPin::Write(unsigned int))
../../lib/libcircle.a(chainboot.o)
                              ../../lib/libcircle.a(sysinit.o) (IsChainBootEnabled)
../../lib/libcircle.a(cache-v7.o)
                              ../../lib/libcircle.a(sysinit.o) (InvalidateDataCacheL1Only)
../../lib/libcircle.a(memory.o)
                              kernel.o (CMemorySystem::CMemorySystem(bool))
../../lib/libcircle.a(pagetable.o)
                              ../../lib/libcircle.a(memory.o) (CPageTable::CPageTable(unsigned int))
../../lib/libcircle.a(startup.o)
                              (_start)
../../lib/libcircle.a(synchronize.o)
                              ../../lib/libcircle.a(devicenameservice.o) (EnterCritical)
../../lib/libcircle.a(interrupt.o)
                              ../../lib/libcircle.a(timer.o) (CInterruptSystem::ConnectIRQ(unsigned int, void (*)(void*), void*))
../../lib/libcircle.a(assert.o)
                              ../../lib/libcircle.a(devicenameservice.o) (assertion_failed)
../../lib/libcircle.a(bcmframebuffer.o)
                              ../../lib/libcircle.a(screen.o) (CBcmFrameBuffer::CBcmFrameBuffer(unsigned int, unsigned int, unsigned int, unsigned int, unsigned int))
../../lib/libcircle.a(bcmpropertytags.o)
                              ../../lib/libcircle.a(koptions.o) (CBcmPropertyTags::CBcmPropertyTags(bool))
../../lib/libcircle.a(chargenerator.o)
                              ../../lib/libcircle.a(screen.o) (CCharGenerator::CCharGenerator())
../../lib/libcircle.a(debug.o)
                              ../../lib/libcircle.a(assert.o) (debug_stacktrace(unsigned int const*, char const*))
../../lib/libcircle.a(delayloop.o)
                              ../../lib/libcircle.a(timer.o) (DelayLoop)
../../lib/libcircle.a(device.o)
                              ../../lib/libcircle.a(screen.o) (CDevice::~CDevice())
../../lib/libcircle.a(dmachannel.o)
                              ../../lib/libcircle.a(screen.o) (CDMAChannel::CDMAChannel(unsigned int, CInterruptSystem*))
../../lib/libcircle.a(gpiomanager.o)
                              ../../lib/libcircle.a(gpiopin.o) (CGPIOManager::ConnectInterrupt(CGPIOPin*))
../../lib/libcircle.a(logger.o)
                              ../../lib/libcircle.a(timer.o) (CLogger::Write(char const*, TLogSeverity, char const*, ...))
../../lib/libcircle.a(ptrlist.o)
                              ../../lib/libcircle.a(timer.o) (CPtrList::CPtrList())
../../lib/libcircle.a(new.o)  ../../lib/libcircle.a(dmachannel.o) (operator new[](unsigned int, int))
../../lib/libcircle.a(heapallocator.o)
                              ../../lib/libcircle.a(memory.o) (CHeapAllocator::CHeapAllocator(char const*))
../../lib/libcircle.a(pageallocator.o)
                              ../../lib/libcircle.a(memory.o) (CPageAllocator::CPageAllocator())
../../lib/libcircle.a(exceptionstub.o)
                              ../../lib/libcircle.a(interrupt.o) (IRQStub)
../../lib/libcircle.a(bcmmailbox.o)
                              ../../lib/libcircle.a(bcmpropertytags.o) (CBcmMailBox::CBcmMailBox(unsigned int, bool))
../../lib/libcircle.a(exceptionhandler.o)
                              ../../lib/libcircle.a(exceptionstub.o) (ExceptionHandler)
/home/olf/projects/circle/gcc-arm-9.2-2019.12-x86_64-arm-none-eabi/bin/../lib/gcc/arm-none-eabi/9.2.1/../../../../arm-none-eabi/lib/thumb/v7ve+simd/hard/libstdc++.a(class_type_info.o)
                              ../../lib/libcircle.a(gpiopin.o) (vtable for __cxxabiv1::__class_type_info)
/home/olf/projects/circle/gcc-arm-9.2-2019.12-x86_64-arm-none-eabi/bin/../lib/gcc/arm-none-eabi/9.2.1/../../../../arm-none-eabi/lib/thumb/v7ve+simd/hard/libstdc++.a(del_ops.o)
                              ../../lib/libcircle.a(actled.o) (operator delete(void*, unsigned int))
/home/olf/projects/circle/gcc-arm-9.2-2019.12-x86_64-arm-none-eabi/bin/../lib/gcc/arm-none-eabi/9.2.1/../../../../arm-none-eabi/lib/thumb/v7ve+simd/hard/libstdc++.a(del_opv.o)
                              ../../lib/libcircle.a(devicenameservice.o) (operator delete[](void*))
/home/olf/projects/circle/gcc-arm-9.2-2019.12-x86_64-arm-none-eabi/bin/../lib/gcc/arm-none-eabi/9.2.1/../../../../arm-none-eabi/lib/thumb/v7ve+simd/hard/libstdc++.a(eh_arm.o)
                              main.o (__cxa_end_cleanup)
/home/olf/projects/circle/gcc-arm-9.2-2019.12-x86_64-arm-none-eabi/bin/../lib/gcc/arm-none-eabi/9.2.1/../../../../arm-none-eabi/lib/thumb/v7ve+simd/hard/libstdc++.a(eh_aux_runtime.o)
                              ../../lib/libcircle.a(screen.o) (__cxa_throw_bad_array_new_length)
/home/olf/projects/circle/gcc-arm-9.2-2019.12-x86_64-arm-none-eabi/bin/../lib/gcc/arm-none-eabi/9.2.1/../../../../arm-none-eabi/lib/thumb/v7ve+simd/hard/libstdc++.a(eh_exception.o)
                              /home/olf/projects/circle/gcc-arm-9.2-2019.12-x86_64-arm-none-eabi/bin/../lib/gcc/arm-none-eabi/9.2.1/../../../../arm-none-eabi/lib/thumb/v7ve+simd/hard/libstdc++.a(eh_arm.o) (typeinfo for __cxxabiv1::__forced_unwind)
/home/olf/projects/circle/gcc-arm-9.2-2019.12-x86_64-arm-none-eabi/bin/../lib/gcc/arm-none-eabi/9.2.1/../../../../arm-none-eabi/lib/thumb/v7ve+simd/hard/libstdc++.a(eh_globals.o)
                              /home/olf/projects/circle/gcc-arm-9.2-2019.12-x86_64-arm-none-eabi/bin/../lib/gcc/arm-none-eabi/9.2.1/../../../../arm-none-eabi/lib/thumb/v7ve+simd/hard/libstdc++.a(eh_arm.o) (__cxa_get_globals)
/home/olf/projects/circle/gcc-arm-9.2-2019.12-x86_64-arm-none-eabi/bin/../lib/gcc/arm-none-eabi/9.2.1/../../../../arm-none-eabi/lib/thumb/v7ve+simd/hard/libstdc++.a(eh_personality.o)
                              main.o (__gxx_personality_v0)
/home/olf/projects/circle/gcc-arm-9.2-2019.12-x86_64-arm-none-eabi/bin/../lib/gcc/arm-none-eabi/9.2.1/../../../../arm-none-eabi/lib/thumb/v7ve+simd/hard/libstdc++.a(eh_terminate.o)
                              /home/olf/projects/circle/gcc-arm-9.2-2019.12-x86_64-arm-none-eabi/bin/../lib/gcc/arm-none-eabi/9.2.1/../../../../arm-none-eabi/lib/thumb/v7ve+simd/hard/libstdc++.a(eh_arm.o) (std::terminate())
/home/olf/projects/circle/gcc-arm-9.2-2019.12-x86_64-arm-none-eabi/bin/../lib/gcc/arm-none-eabi/9.2.1/../../../../arm-none-eabi/lib/thumb/v7ve+simd/hard/libstdc++.a(eh_throw.o)
                              /home/olf/projects/circle/gcc-arm-9.2-2019.12-x86_64-arm-none-eabi/bin/../lib/gcc/arm-none-eabi/9.2.1/../../../../arm-none-eabi/lib/thumb/v7ve+simd/hard/libstdc++.a(eh_aux_runtime.o) (__cxa_throw)
/home/olf/projects/circle/gcc-arm-9.2-2019.12-x86_64-arm-none-eabi/bin/../lib/gcc/arm-none-eabi/9.2.1/../../../../arm-none-eabi/lib/thumb/v7ve+simd/hard/libstdc++.a(eh_unex_handler.o)
                              /home/olf/projects/circle/gcc-arm-9.2-2019.12-x86_64-arm-none-eabi/bin/../lib/gcc/arm-none-eabi/9.2.1/../../../../arm-none-eabi/lib/thumb/v7ve+simd/hard/libstdc++.a(eh_terminate.o) (__cxxabiv1::__unexpected_handler)
/home/olf/projects/circle/gcc-arm-9.2-2019.12-x86_64-arm-none-eabi/bin/../lib/gcc/arm-none-eabi/9.2.1/../../../../arm-none-eabi/lib/thumb/v7ve+simd/hard/libstdc++.a(new_op.o)
                              ../../lib/libcircle.a(actled.o) (operator new(unsigned int))
/home/olf/projects/circle/gcc-arm-9.2-2019.12-x86_64-arm-none-eabi/bin/../lib/gcc/arm-none-eabi/9.2.1/../../../../arm-none-eabi/lib/thumb/v7ve+simd/hard/libstdc++.a(new_opv.o)
                              ../../lib/libcircle.a(devicenameservice.o) (operator new[](unsigned int))
/home/olf/projects/circle/gcc-arm-9.2-2019.12-x86_64-arm-none-eabi/bin/../lib/gcc/arm-none-eabi/9.2.1/../../../../arm-none-eabi/lib/thumb/v7ve+simd/hard/libstdc++.a(pure.o)
                              /home/olf/projects/circle/gcc-arm-9.2-2019.12-x86_64-arm-none-eabi/bin/../lib/gcc/arm-none-eabi/9.2.1/../../../../arm-none-eabi/lib/thumb/v7ve+simd/hard/libstdc++.a(eh_exception.o) (__cxa_pure_virtual)
/home/olf/projects/circle/gcc-arm-9.2-2019.12-x86_64-arm-none-eabi/bin/../lib/gcc/arm-none-eabi/9.2.1/../../../../arm-none-eabi/lib/thumb/v7ve+simd/hard/libstdc++.a(si_class_type_info.o)
                              ../../lib/libcircle.a(screen.o) (vtable for __cxxabiv1::__si_class_type_info)
/home/olf/projects/circle/gcc-arm-9.2-2019.12-x86_64-arm-none-eabi/bin/../lib/gcc/arm-none-eabi/9.2.1/../../../../arm-none-eabi/lib/thumb/v7ve+simd/hard/libstdc++.a(tinfo.o)
                              /home/olf/projects/circle/gcc-arm-9.2-2019.12-x86_64-arm-none-eabi/bin/../lib/gcc/arm-none-eabi/9.2.1/../../../../arm-none-eabi/lib/thumb/v7ve+simd/hard/libstdc++.a(class_type_info.o) (std::type_info::~type_info())
/home/olf/projects/circle/gcc-arm-9.2-2019.12-x86_64-arm-none-eabi/bin/../lib/gcc/arm-none-eabi/9.2.1/../../../../arm-none-eabi/lib/thumb/v7ve+simd/hard/libstdc++.a(vterminate.o)
                              /home/olf/projects/circle/gcc-arm-9.2-2019.12-x86_64-arm-none-eabi/bin/../lib/gcc/arm-none-eabi/9.2.1/../../../../arm-none-eabi/lib/thumb/v7ve+simd/hard/libstdc++.a(eh_terminate.o) (__gnu_cxx::__verbose_terminate_handler())
/home/olf/projects/circle/gcc-arm-9.2-2019.12-x86_64-arm-none-eabi/bin/../lib/gcc/arm-none-eabi/9.2.1/../../../../arm-none-eabi/lib/thumb/v7ve+simd/hard/libstdc++.a(bad_alloc.o)
                              /home/olf/projects/circle/gcc-arm-9.2-2019.12-x86_64-arm-none-eabi/bin/../lib/gcc/arm-none-eabi/9.2.1/../../../../arm-none-eabi/lib/thumb/v7ve+simd/hard/libstdc++.a(new_op.o) (std::bad_alloc::~bad_alloc())
/home/olf/projects/circle/gcc-arm-9.2-2019.12-x86_64-arm-none-eabi/bin/../lib/gcc/arm-none-eabi/9.2.1/../../../../arm-none-eabi/lib/thumb/v7ve+simd/hard/libstdc++.a(bad_array_new.o)
                              /home/olf/projects/circle/gcc-arm-9.2-2019.12-x86_64-arm-none-eabi/bin/../lib/gcc/arm-none-eabi/9.2.1/../../../../arm-none-eabi/lib/thumb/v7ve+simd/hard/libstdc++.a(eh_aux_runtime.o) (std::bad_array_new_length::~bad_array_new_length())
/home/olf/projects/circle/gcc-arm-9.2-2019.12-x86_64-arm-none-eabi/bin/../lib/gcc/arm-none-eabi/9.2.1/../../../../arm-none-eabi/lib/thumb/v7ve+simd/hard/libstdc++.a(bad_cast.o)
                              /home/olf/projects/circle/gcc-arm-9.2-2019.12-x86_64-arm-none-eabi/bin/../lib/gcc/arm-none-eabi/9.2.1/../../../../arm-none-eabi/lib/thumb/v7ve+simd/hard/libstdc++.a(eh_aux_runtime.o) (std::bad_cast::~bad_cast())
/home/olf/projects/circle/gcc-arm-9.2-2019.12-x86_64-arm-none-eabi/bin/../lib/gcc/arm-none-eabi/9.2.1/../../../../arm-none-eabi/lib/thumb/v7ve+simd/hard/libstdc++.a(bad_typeid.o)
                              /home/olf/projects/circle/gcc-arm-9.2-2019.12-x86_64-arm-none-eabi/bin/../lib/gcc/arm-none-eabi/9.2.1/../../../../arm-none-eabi/lib/thumb/v7ve+simd/hard/libstdc++.a(eh_aux_runtime.o) (std::bad_typeid::~bad_typeid())
/home/olf/projects/circle/gcc-arm-9.2-2019.12-x86_64-arm-none-eabi/bin/../lib/gcc/arm-none-eabi/9.2.1/../../../../arm-none-eabi/lib/thumb/v7ve+simd/hard/libstdc++.a(cp-demangle.o)
                              /home/olf/projects/circle/gcc-arm-9.2-2019.12-x86_64-arm-none-eabi/bin/../lib/gcc/arm-none-eabi/9.2.1/../../../../arm-none-eabi/lib/thumb/v7ve+simd/hard/libstdc++.a(vterminate.o) (__cxa_demangle)
/home/olf/projects/circle/gcc-arm-9.2-2019.12-x86_64-arm-none-eabi/bin/../lib/gcc/arm-none-eabi/9.2.1/../../../../arm-none-eabi/lib/thumb/v7ve+simd/hard/libstdc++.a(del_op.o)
                              /home/olf/projects/circle/gcc-arm-9.2-2019.12-x86_64-arm-none-eabi/bin/../lib/gcc/arm-none-eabi/9.2.1/../../../../arm-none-eabi/lib/thumb/v7ve+simd/hard/libstdc++.a(del_ops.o) (operator delete(void*))
/home/olf/projects/circle/gcc-arm-9.2-2019.12-x86_64-arm-none-eabi/bin/../lib/gcc/arm-none-eabi/9.2.1/../../../../arm-none-eabi/lib/thumb/v7ve+simd/hard/libstdc++.a(eh_alloc.o)
                              /home/olf/projects/circle/gcc-arm-9.2-2019.12-x86_64-arm-none-eabi/bin/../lib/gcc/arm-none-eabi/9.2.1/../../../../arm-none-eabi/lib/thumb/v7ve+simd/hard/libstdc++.a(eh_aux_runtime.o) (__cxa_allocate_exception)
/home/olf/projects/circle/gcc-arm-9.2-2019.12-x86_64-arm-none-eabi/bin/../lib/gcc/arm-none-eabi/9.2.1/../../../../arm-none-eabi/lib/thumb/v7ve+simd/hard/libstdc++.a(eh_call.o)
                              /home/olf/projects/circle/gcc-arm-9.2-2019.12-x86_64-arm-none-eabi/bin/../lib/gcc/arm-none-eabi/9.2.1/../../../../arm-none-eabi/lib/thumb/v7ve+simd/hard/libstdc++.a(eh_personality.o) (__cxa_call_terminate)
/home/olf/projects/circle/gcc-arm-9.2-2019.12-x86_64-arm-none-eabi/bin/../lib/gcc/arm-none-eabi/9.2.1/../../../../arm-none-eabi/lib/thumb/v7ve+simd/hard/libstdc++.a(eh_catch.o)
                              /home/olf/projects/circle/gcc-arm-9.2-2019.12-x86_64-arm-none-eabi/bin/../lib/gcc/arm-none-eabi/9.2.1/../../../../arm-none-eabi/lib/thumb/v7ve+simd/hard/libstdc++.a(eh_personality.o) (__cxa_begin_catch)
/home/olf/projects/circle/gcc-arm-9.2-2019.12-x86_64-arm-none-eabi/bin/../lib/gcc/arm-none-eabi/9.2.1/../../../../arm-none-eabi/lib/thumb/v7ve+simd/hard/libstdc++.a(eh_term_handler.o)
                              /home/olf/projects/circle/gcc-arm-9.2-2019.12-x86_64-arm-none-eabi/bin/../lib/gcc/arm-none-eabi/9.2.1/../../../../arm-none-eabi/lib/thumb/v7ve+simd/hard/libstdc++.a(eh_terminate.o) (__cxxabiv1::__terminate_handler)
/home/olf/projects/circle/gcc-arm-9.2-2019.12-x86_64-arm-none-eabi/bin/../lib/gcc/arm-none-eabi/9.2.1/../../../../arm-none-eabi/lib/thumb/v7ve+simd/hard/libstdc++.a(eh_type.o)
                              /home/olf/projects/circle/gcc-arm-9.2-2019.12-x86_64-arm-none-eabi/bin/../lib/gcc/arm-none-eabi/9.2.1/../../../../arm-none-eabi/lib/thumb/v7ve+simd/hard/libstdc++.a(vterminate.o) (__cxa_current_exception_type)
/home/olf/projects/circle/gcc-arm-9.2-2019.12-x86_64-arm-none-eabi/bin/../lib/gcc/arm-none-eabi/9.2.1/../../../../arm-none-eabi/lib/thumb/v7ve+simd/hard/libstdc++.a(new_handler.o)
                              /home/olf/projects/circle/gcc-arm-9.2-2019.12-x86_64-arm-none-eabi/bin/../lib/gcc/arm-none-eabi/9.2.1/../../../../arm-none-eabi/lib/thumb/v7ve+simd/hard/libstdc++.a(new_op.o) (std::get_new_handler())
/home/olf/projects/circle/gcc-arm-9.2-2019.12-x86_64-arm-none-eabi/bin/../lib/gcc/arm-none-eabi/9.2.1/thumb/v7ve+simd/hard/libgcc.a(_aeabi_ldivmod.o)
                              ../../lib/libcircle.a(string.o) (__aeabi_ldivmod)
/home/olf/projects/circle/gcc-arm-9.2-2019.12-x86_64-arm-none-eabi/bin/../lib/gcc/arm-none-eabi/9.2.1/thumb/v7ve+simd/hard/libgcc.a(_aeabi_uldivmod.o)
                              ../../lib/libcircle.a(string.o) (__aeabi_uldivmod)
/home/olf/projects/circle/gcc-arm-9.2-2019.12-x86_64-arm-none-eabi/bin/../lib/gcc/arm-none-eabi/9.2.1/thumb/v7ve+simd/hard/libgcc.a(_udivmoddi4.o)
                              /home/olf/projects/circle/gcc-arm-9.2-2019.12-x86_64-arm-none-eabi/bin/../lib/gcc/arm-none-eabi/9.2.1/thumb/v7ve+simd/hard/libgcc.a(_aeabi_ldivmod.o) (__udivmoddi4)
/home/olf/projects/circle/gcc-arm-9.2-2019.12-x86_64-arm-none-eabi/bin/../lib/gcc/arm-none-eabi/9.2.1/thumb/v7ve+simd/hard/libgcc.a(unwind-arm.o)
                              kernel.o (__aeabi_unwind_cpp_pr0)
/home/olf/projects/circle/gcc-arm-9.2-2019.12-x86_64-arm-none-eabi/bin/../lib/gcc/arm-none-eabi/9.2.1/thumb/v7ve+simd/hard/libgcc.a(libunwind.o)
                              /home/olf/projects/circle/gcc-arm-9.2-2019.12-x86_64-arm-none-eabi/bin/../lib/gcc/arm-none-eabi/9.2.1/thumb/v7ve+simd/hard/libgcc.a(unwind-arm.o) (restore_core_regs)
/home/olf/projects/circle/gcc-arm-9.2-2019.12-x86_64-arm-none-eabi/bin/../lib/gcc/arm-none-eabi/9.2.1/thumb/v7ve+simd/hard/libgcc.a(pr-support.o)
                              /home/olf/projects/circle/gcc-arm-9.2-2019.12-x86_64-arm-none-eabi/bin/../lib/gcc/arm-none-eabi/9.2.1/thumb/v7ve+simd/hard/libgcc.a(unwind-arm.o) (__gnu_unwind_execute)
/home/olf/projects/circle/gcc-arm-9.2-2019.12-x86_64-arm-none-eabi/bin/../lib/gcc/arm-none-eabi/9.2.1/thumb/v7ve+simd/hard/libgcc.a(_dvmd_tls.o)
                              /home/olf/projects/circle/gcc-arm-9.2-2019.12-x86_64-arm-none-eabi/bin/../lib/gcc/arm-none-eabi/9.2.1/thumb/v7ve+simd/hard/libgcc.a(_aeabi_ldivmod.o) (__aeabi_ldiv0)
../../../../install/arm-none-circle/lib/libc.a(lib_a-abort.o)
                              /home/olf/projects/circle/gcc-arm-9.2-2019.12-x86_64-arm-none-eabi/bin/../lib/gcc/arm-none-eabi/9.2.1/../../../../arm-none-eabi/lib/thumb/v7ve+simd/hard/libstdc++.a(eh_personality.o) (abort)
../../../../install/arm-none-circle/lib/libc.a(lib_a-fputc.o)
                              /home/olf/projects/circle/gcc-arm-9.2-2019.12-x86_64-arm-none-eabi/bin/../lib/gcc/arm-none-eabi/9.2.1/../../../../arm-none-eabi/lib/thumb/v7ve+simd/hard/libstdc++.a(vterminate.o) (fputc)
../../../../install/arm-none-circle/lib/libc.a(lib_a-fputs.o)
                              /home/olf/projects/circle/gcc-arm-9.2-2019.12-x86_64-arm-none-eabi/bin/../lib/gcc/arm-none-eabi/9.2.1/../../../../arm-none-eabi/lib/thumb/v7ve+simd/hard/libstdc++.a(vterminate.o) (fputs)
../../../../install/arm-none-circle/lib/libc.a(lib_a-fvwrite.o)
                              ../../../../install/arm-none-circle/lib/libc.a(lib_a-fputs.o) (__sfvwrite_r)
../../../../install/arm-none-circle/lib/libc.a(lib_a-fwrite.o)
                              /home/olf/projects/circle/gcc-arm-9.2-2019.12-x86_64-arm-none-eabi/bin/../lib/gcc/arm-none-eabi/9.2.1/../../../../arm-none-eabi/lib/thumb/v7ve+simd/hard/libstdc++.a(vterminate.o) (fwrite)
../../../../install/arm-none-circle/lib/libc.a(lib_a-impure.o)
                              /home/olf/projects/circle/gcc-arm-9.2-2019.12-x86_64-arm-none-eabi/bin/../lib/gcc/arm-none-eabi/9.2.1/../../../../arm-none-eabi/lib/thumb/v7ve+simd/hard/libstdc++.a(vterminate.o) (_impure_ptr)
../../../../install/arm-none-circle/lib/libc.a(lib_a-memchr.o)
                              ../../../../install/arm-none-circle/lib/libc.a(lib_a-fvwrite.o) (memchr)
../../../../install/arm-none-circle/lib/libc.a(lib_a-memcmp.o)
                              /home/olf/projects/circle/gcc-arm-9.2-2019.12-x86_64-arm-none-eabi/bin/../lib/gcc/arm-none-eabi/9.2.1/../../../../arm-none-eabi/lib/thumb/v7ve+simd/hard/libstdc++.a(cp-demangle.o) (memcmp)
../../../../install/arm-none-circle/lib/libc.a(lib_a-memmove.o)
                              ../../../../install/arm-none-circle/lib/libc.a(lib_a-fvwrite.o) (memmove)
../../../../install/arm-none-circle/lib/libc.a(lib_a-putc.o)
                              ../../../../install/arm-none-circle/lib/libc.a(lib_a-fputc.o) (_putc_r)
../../../../install/arm-none-circle/lib/libc.a(lib_a-signal.o)
                              ../../../../install/arm-none-circle/lib/libc.a(lib_a-abort.o) (raise)
../../../../install/arm-none-circle/lib/libc.a(lib_a-signalr.o)
                              ../../../../install/arm-none-circle/lib/libc.a(lib_a-signal.o) (_kill_r)
../../../../install/arm-none-circle/lib/libc.a(lib_a-sprintf.o)
                              /home/olf/projects/circle/gcc-arm-9.2-2019.12-x86_64-arm-none-eabi/bin/../lib/gcc/arm-none-eabi/9.2.1/../../../../arm-none-eabi/lib/thumb/v7ve+simd/hard/libstdc++.a(cp-demangle.o) (sprintf)
../../../../install/arm-none-circle/lib/libc.a(lib_a-strcat.o)
                              ../../lib/libcircle.a(string.o) (strcat)
../../../../install/arm-none-circle/lib/libc.a(lib_a-strchr.o)
                              ../../lib/libcircle.a(string.o) (strchr)
../../../../install/arm-none-circle/lib/libc.a(lib_a-strcmp.o)
                              ../../lib/libcircle.a(devicenameservice.o) (strcmp)
../../../../install/arm-none-circle/lib/libc.a(lib_a-strcpy.o)
                              ../../lib/libcircle.a(devicenameservice.o) (strcpy)
../../../../install/arm-none-circle/lib/libc.a(lib_a-strlen.o)
                              ../../lib/libcircle.a(devicenameservice.o) (strlen)
../../../../install/arm-none-circle/lib/libc.a(lib_a-strncmp.o)
                              /home/olf/projects/circle/gcc-arm-9.2-2019.12-x86_64-arm-none-eabi/bin/../lib/gcc/arm-none-eabi/9.2.1/../../../../arm-none-eabi/lib/thumb/v7ve+simd/hard/libstdc++.a(cp-demangle.o) (strncmp)
../../../../install/arm-none-circle/lib/libc.a(lib_a-strncpy.o)
                              ../../lib/libcircle.a(koptions.o) (strncpy)
../../../../install/arm-none-circle/lib/libc.a(lib_a-svfprintf.o)
                              ../../../../install/arm-none-circle/lib/libc.a(lib_a-sprintf.o) (_svfprintf_r)
../../../../install/arm-none-circle/lib/libc.a(lib_a-syswrite.o)
                              /home/olf/projects/circle/gcc-arm-9.2-2019.12-x86_64-arm-none-eabi/bin/../lib/gcc/arm-none-eabi/9.2.1/../../../../arm-none-eabi/lib/thumb/v7ve+simd/hard/libstdc++.a(pure.o) (write)
../../../../install/arm-none-circle/lib/libc.a(lib_a-wbuf.o)
                              ../../../../install/arm-none-circle/lib/libc.a(lib_a-putc.o) (__swbuf_r)
../../../../install/arm-none-circle/lib/libc.a(lib_a-writer.o)
                              ../../../../install/arm-none-circle/lib/libc.a(lib_a-syswrite.o) (_write_r)
../../../../install/arm-none-circle/lib/libc.a(lib_a-wsetup.o)
                              ../../../../install/arm-none-circle/lib/libc.a(lib_a-fvwrite.o) (__swsetup_r)
../../../../install/arm-none-circle/lib/libc.a(lib_a-dtoa.o)
                              ../../../../install/arm-none-circle/lib/libc.a(lib_a-svfprintf.o) (_dtoa_r)
../../../../install/arm-none-circle/lib/libc.a(lib_a-fflush.o)
                              ../../../../install/arm-none-circle/lib/libc.a(lib_a-fvwrite.o) (_fflush_r)
../../../../install/arm-none-circle/lib/libc.a(lib_a-findfp.o)
                              ../../../../install/arm-none-circle/lib/libc.a(lib_a-fputc.o) (__sinit)
../../../../install/arm-none-circle/lib/libc.a(lib_a-fwalk.o)
                              ../../../../install/arm-none-circle/lib/libc.a(lib_a-findfp.o) (_fwalk)
../../../../install/arm-none-circle/lib/libc.a(lib_a-localeconv.o)
                              ../../../../install/arm-none-circle/lib/libc.a(lib_a-svfprintf.o) (_localeconv_r)
../../../../install/arm-none-circle/lib/libc.a(lib_a-locale.o)
                              ../../../../install/arm-none-circle/lib/libc.a(lib_a-localeconv.o) (__global_locale)
../../../../install/arm-none-circle/lib/libc.a(lib_a-makebuf.o)
                              ../../../../install/arm-none-circle/lib/libc.a(lib_a-wsetup.o) (__smakebuf_r)
../../../../install/arm-none-circle/lib/libc.a(lib_a-mbtowc_r.o)
                              ../../../../install/arm-none-circle/lib/libc.a(lib_a-locale.o) (__ascii_mbtowc)
../../../../install/arm-none-circle/lib/libc.a(lib_a-mprec.o)
                              ../../../../install/arm-none-circle/lib/libc.a(lib_a-dtoa.o) (_Balloc)
../../../../install/arm-none-circle/lib/libc.a(lib_a-reent.o)
                              ../../../../install/arm-none-circle/lib/libc.a(lib_a-signalr.o) (errno)
../../../../install/arm-none-circle/lib/libc.a(lib_a-stdio.o)
                              ../../../../install/arm-none-circle/lib/libc.a(lib_a-findfp.o) (__sread)
../../../../install/arm-none-circle/lib/libc.a(lib_a-svfiprintf.o)
                              ../../../../install/arm-none-circle/lib/libc.a(lib_a-svfprintf.o) (__ssprint_r)
../../../../install/arm-none-circle/lib/libc.a(lib_a-wctomb_r.o)
                              ../../../../install/arm-none-circle/lib/libc.a(lib_a-locale.o) (__ascii_wctomb)
../../../../install/arm-none-circle/lib/libc.a(lib_a-closer.o)
                              ../../../../install/arm-none-circle/lib/libc.a(lib_a-stdio.o) (_close_r)
../../../../install/arm-none-circle/lib/libc.a(lib_a-ctype_.o)
                              ../../../../install/arm-none-circle/lib/libc.a(lib_a-locale.o) (_ctype_)
../../../../install/arm-none-circle/lib/libc.a(lib_a-fclose.o)
                              ../../../../install/arm-none-circle/lib/libc.a(lib_a-findfp.o) (_fclose_r)
../../../../install/arm-none-circle/lib/libc.a(lib_a-fstatr.o)
                              ../../../../install/arm-none-circle/lib/libc.a(lib_a-makebuf.o) (_fstat_r)
../../../../install/arm-none-circle/lib/libc.a(lib_a-isattyr.o)
                              ../../../../install/arm-none-circle/lib/libc.a(lib_a-makebuf.o) (_isatty_r)
../../../../install/arm-none-circle/lib/libc.a(lib_a-lseekr.o)
                              ../../../../install/arm-none-circle/lib/libc.a(lib_a-stdio.o) (_lseek_r)
../../../../install/arm-none-circle/lib/libc.a(lib_a-readr.o)
                              ../../../../install/arm-none-circle/lib/libc.a(lib_a-stdio.o) (_read_r)
../../../../install/arm-none-circle/lib/libcirclenewlib.a(fstat.o)
                              ../../../../install/arm-none-circle/lib/libc.a(lib_a-fstatr.o) (_fstat)
../../../../install/arm-none-circle/lib/libcirclenewlib.a(getpid.o)
                              ../../../../install/arm-none-circle/lib/libc.a(lib_a-signalr.o) (_getpid)
../../../../install/arm-none-circle/lib/libcirclenewlib.a(io.o)
                              ../../../../install/arm-none-circle/lib/libc.a(lib_a-closer.o) (_close)
../../../../install/arm-none-circle/lib/libcirclenewlib.a(isatty.o)
                              ../../../../install/arm-none-circle/lib/libc.a(lib_a-isattyr.o) (_isatty)
../../../../install/arm-none-circle/lib/libcirclenewlib.a(kill.o)
                              ../../../../install/arm-none-circle/lib/libc.a(lib_a-signalr.o) (_kill)
../../../../install/arm-none-circle/lib/libcirclenewlib.a(_exit.o)
                              ../../../../install/arm-none-circle/lib/libc.a(lib_a-abort.o) (_exit)
../../../../install/arm-none-circle/lib/libcirclenewlib.a(mem.o)
                              ../../../../install/arm-none-circle/lib/libc.a(lib_a-fvwrite.o) (_malloc_r)
../../lib/usb/libusb.a(usbhostcontroller.o)
                              ../../../../install/arm-none-circle/lib/libcirclenewlib.a(io.o) (CUSBHostController::UpdatePlugAndPlay())
../../lib/usb/libusb.a(usbrequest.o)
                              ../../lib/usb/libusb.a(usbhostcontroller.o) (CUSBRequest::CUSBRequest(CUSBEndpoint*, void*, unsigned int, TSetupData*))
../../lib/usb/libusb.a(usbstandardhub.o)
                              ../../lib/usb/libusb.a(usbhostcontroller.o) (CUSBStandardHub::HandlePortStatusChange())
../../lib/usb/libusb.a(usbdevice.o)
                              ../../lib/usb/libusb.a(usbstandardhub.o) (CUSBDevice::CUSBDevice(CUSBHostController*, TUSBSpeed, CUSBStandardHub*, unsigned int))
../../lib/usb/libusb.a(usbdevicefactory.o)
                              ../../lib/usb/libusb.a(usbdevice.o) (CUSBDeviceFactory::GetDevice(CUSBFunction*, CString*))
../../lib/usb/libusb.a(usbendpoint.o)
                              ../../lib/usb/libusb.a(usbdevice.o) (CUSBEndpoint::CUSBEndpoint(CUSBDevice*))
../../lib/usb/libusb.a(usbfunction.o)
                              ../../lib/usb/libusb.a(usbstandardhub.o) (CUSBFunction::Initialize())
../../lib/usb/libusb.a(usbgamepadps3.o)
                              ../../lib/usb/libusb.a(usbdevicefactory.o) (CUSBGamePadPS3Device::CUSBGamePadPS3Device(CUSBFunction*))
../../lib/usb/libusb.a(usbgamepadps4.o)
                              ../../lib/usb/libusb.a(usbdevicefactory.o) (CUSBGamePadPS4Device::CUSBGamePadPS4Device(CUSBFunction*))
../../lib/usb/libusb.a(usbgamepadstandard.o)
                              ../../lib/usb/libusb.a(usbgamepadps3.o) (CUSBGamePadStandardDevice::~CUSBGamePadStandardDevice())
../../lib/usb/libusb.a(usbgamepadswitchpro.o)
                              ../../lib/usb/libusb.a(usbdevicefactory.o) (CUSBGamePadSwitchProDevice::CUSBGamePadSwitchProDevice(CUSBFunction*))
../../lib/usb/libusb.a(usbgamepadxbox360.o)
                              ../../lib/usb/libusb.a(usbdevicefactory.o) (CUSBGamePadXbox360Device::CUSBGamePadXbox360Device(CUSBFunction*))
../../lib/usb/libusb.a(usbgamepadxboxone.o)
                              ../../lib/usb/libusb.a(usbdevicefactory.o) (CUSBGamePadXboxOneDevice::CUSBGamePadXboxOneDevice(CUSBFunction*))
../../lib/usb/libusb.a(usbhiddevice.o)
                              ../../lib/usb/libusb.a(usbgamepadps4.o) (CUSBHIDDevice::SendToEndpointOut(void const*, unsigned int, unsigned int))
../../lib/usb/libusb.a(usbkeyboard.o)
                              ../../lib/usb/libusb.a(usbdevicefactory.o) (CUSBKeyboardDevice::CUSBKeyboardDevice(CUSBFunction*))
../../lib/usb/libusb.a(usbmassdevice.o)
                              ../../lib/usb/libusb.a(usbdevicefactory.o) (CUSBBulkOnlyMassStorageDevice::CUSBBulkOnlyMassStorageDevice(CUSBFunction*))
../../lib/usb/libusb.a(usbmidi.o)
                              ../../lib/usb/libusb.a(usbdevicefactory.o) (CUSBMIDIDevice::CUSBMIDIDevice(CUSBFunction*))
../../lib/usb/libusb.a(usbmouse.o)
                              ../../lib/usb/libusb.a(usbdevicefactory.o) (CUSBMouseDevice::CUSBMouseDevice(CUSBFunction*))
../../lib/usb/libusb.a(usbprinter.o)
                              ../../lib/usb/libusb.a(usbdevicefactory.o) (CUSBPrinterDevice::CUSBPrinterDevice(CUSBFunction*))
../../lib/usb/libusb.a(lan7800.o)
                              ../../lib/usb/libusb.a(usbdevicefactory.o) (CLAN7800Device::CLAN7800Device(CUSBFunction*))
../../lib/usb/libusb.a(smsc951x.o)
                              ../../lib/usb/libusb.a(usbdevicefactory.o) (CSMSC951xDevice::CSMSC951xDevice(CUSBFunction*))
../../lib/usb/libusb.a(usbbluetooth.o)
                              ../../lib/usb/libusb.a(usbdevicefactory.o) (CUSBBluetoothDevice::CUSBBluetoothDevice(CUSBFunction*))
../../lib/usb/libusb.a(usbcdcethernet.o)
                              ../../lib/usb/libusb.a(usbdevicefactory.o) (CUSBCDCEthernetDevice::CUSBCDCEthernetDevice(CUSBFunction*))
../../lib/usb/libusb.a(usbconfigparser.o)
                              ../../lib/usb/libusb.a(usbdevice.o) (CUSBConfigurationParser::CUSBConfigurationParser(void const*, unsigned int))
../../lib/usb/libusb.a(usbgamepad.o)
                              ../../lib/usb/libusb.a(usbgamepadps3.o) (CUSBGamePadDevice::GetInitialState())
../../lib/usb/libusb.a(usbstring.o)
                              ../../lib/usb/libusb.a(usbcdcethernet.o) (CUSBString::CUSBString(CUSBDevice*))
../../lib/input/libinput.a(keyboardbehaviour.o)
                              ../../lib/usb/libusb.a(usbkeyboard.o) (CKeyboardBehaviour::CKeyboardBehaviour())
../../lib/input/libinput.a(keymap.o)
                              ../../lib/input/libinput.a(keyboardbehaviour.o) (CKeyMap::~CKeyMap())
../../lib/input/libinput.a(mouse.o)
                              ../../lib/usb/libusb.a(usbgamepadps4.o) (CMouseDevice::CMouseDevice())
../../lib/input/libinput.a(console.o)
                              ../../../../install/arm-none-circle/lib/libcirclenewlib.a(io.o) (CConsole::UpdatePlugAndPlay())
../../lib/input/libinput.a(keyboardbuffer.o)
                              ../../lib/input/libinput.a(console.o) (CKeyboardBuffer::CKeyboardBuffer(CUSBKeyboardDevice*))
../../lib/input/libinput.a(linediscipline.o)
                              ../../lib/input/libinput.a(console.o) (CLineDiscipline::CLineDiscipline(CDevice*, CDevice*))
../../lib/input/libinput.a(mousebehaviour.o)
                              ../../lib/input/libinput.a(mouse.o) (CMouseBehaviour::CMouseBehaviour())
../../addon/fatfs/libfatfs.a(ff.o)
                              ../../../../install/arm-none-circle/lib/libcirclenewlib.a(io.o) (f_open)
../../addon/fatfs/libfatfs.a(diskio.o)
                              ../../addon/fatfs/libfatfs.a(ff.o) (disk_status)
../../addon/fatfs/libfatfs.a(ffsystem.o)
                              ../../addon/fatfs/libfatfs.a(ff.o) (ff_cre_syncobj)
../../addon/fatfs/libfatfs.a(ffunicode.o)
                              ../../addon/fatfs/libfatfs.a(ff.o) (ff_uni2oem)
../../lib/fs/libfs.a(partitionmanager.o)
                              ../../lib/usb/libusb.a(usbmassdevice.o) (CPartitionManager::CPartitionManager(CDevice*, char const*))
../../lib/fs/libfs.a(partition.o)
                              ../../lib/fs/libfs.a(partitionmanager.o) (CPartition::CPartition(CDevice*, unsigned int, unsigned int))
../../lib/sched/libsched.a(scheduler.o)
                              ../../../../install/arm-none-circle/lib/libcirclenewlib.a(io.o) (CScheduler::Yield())
../../lib/sched/libsched.a(taskswitch.o)
                              ../../lib/sched/libsched.a(scheduler.o) (TaskSwitch)
../../lib/sched/libsched.a(task.o)
                              ../../lib/sched/libsched.a(scheduler.o) (CTask::CTask(unsigned int))
../../lib/sched/libsched.a(synchronizationevent.o)
                              ../../lib/sched/libsched.a(task.o) (CSynchronizationEvent::CSynchronizationEvent(bool))
../../lib/libcircle.a(alloc.o)
                              /home/olf/projects/circle/gcc-arm-9.2-2019.12-x86_64-arm-none-eabi/bin/../lib/gcc/arm-none-eabi/9.2.1/../../../../arm-none-eabi/lib/thumb/v7ve+simd/hard/libstdc++.a(new_op.o) (malloc)
../../lib/libcircle.a(classallocator.o)
                              ../../lib/usb/libusb.a(usbrequest.o) (CClassAllocator::CClassAllocator(unsigned int, unsigned int, char const*))
../../lib/libcircle.a(macaddress.o)
                              ../../lib/usb/libusb.a(lan7800.o) (CMACAddress::CMACAddress())
../../lib/libcircle.a(netdevice.o)
                              ../../lib/usb/libusb.a(lan7800.o) (CNetDevice::AddNetDevice())
../../lib/libcircle.a(numberpool.o)
                              ../../lib/usb/libusb.a(usbstandardhub.o) (CNumberPool::CNumberPool(unsigned int, unsigned int))
/home/olf/projects/circle/gcc-arm-9.2-2019.12-x86_64-arm-none-eabi/bin/../lib/gcc/arm-none-eabi/9.2.1/../../../../arm-none-eabi/lib/thumb/v7ve+simd/hard/libstdc++.a(vmi_class_type_info.o)
                              ../../lib/usb/libusb.a(lan7800.o) (vtable for __cxxabiv1::__vmi_class_type_info)

Allocating common symbols
Common symbol       size              file

errno               0x4               ../../../../install/arm-none-circle/lib/libc.a(lib_a-reent.o)

Discarded input sections

 .group         0x0000000000000000        0x8 ../../../../install/arm-none-circle/lib/libcirclenewlib.a(io.o)
 .group         0x0000000000000000        0xc ../../../../install/arm-none-circle/lib/libcirclenewlib.a(io.o)
 .group         0x0000000000000000        0xc ../../../../install/arm-none-circle/lib/libcirclenewlib.a(io.o)
 .group         0x0000000000000000        0xc ../../../../install/arm-none-circle/lib/libcirclenewlib.a(io.o)
 .group         0x0000000000000000        0xc ../../../../install/arm-none-circle/lib/libcirclenewlib.a(io.o)
 .group         0x0000000000000000        0x8 ../../../../install/arm-none-circle/lib/libcirclenewlib.a(io.o)
 .group         0x0000000000000000       0x14 ../../lib/usb/libusb.a(usbhostcontroller.o)
 .group         0x0000000000000000       0x14 ../../lib/usb/libusb.a(usbdevice.o)
 .text._ZN18CUSBHostController24CancelDeviceTransactionsEP10CUSBDevice
                0x0000000000000000        0x4 ../../lib/usb/libusb.a(usbdevice.o)
 .ARM.extab.text._ZN18CUSBHostController24CancelDeviceTransactionsEP10CUSBDevice
                0x0000000000000000        0x0 ../../lib/usb/libusb.a(usbdevice.o)
 .ARM.exidx.text._ZN18CUSBHostController24CancelDeviceTransactionsEP10CUSBDevice
                0x0000000000000000        0x8 ../../lib/usb/libusb.a(usbdevice.o)
 .group         0x0000000000000000       0x14 ../../lib/usb/libusb.a(usbgamepadps3.o)
 .group         0x0000000000000000       0x14 ../../lib/usb/libusb.a(usbgamepadps3.o)
 .group         0x0000000000000000       0x14 ../../lib/usb/libusb.a(usbgamepadps4.o)
 .group         0x0000000000000000       0x14 ../../lib/usb/libusb.a(usbgamepadstandard.o)
 .group         0x0000000000000000       0x14 ../../lib/usb/libusb.a(usbgamepadstandard.o)
 .group         0x0000000000000000       0x14 ../../lib/usb/libusb.a(usbgamepadstandard.o)
 .group         0x0000000000000000       0x14 ../../lib/usb/libusb.a(usbgamepadstandard.o)
 .text._ZN17CUSBGamePadDevice10SetLEDModeEjhh
                0x0000000000000000        0x8 ../../lib/usb/libusb.a(usbgamepadstandard.o)
 .ARM.extab.text._ZN17CUSBGamePadDevice10SetLEDModeEjhh
                0x0000000000000000        0x0 ../../lib/usb/libusb.a(usbgamepadstandard.o)
 .ARM.exidx.text._ZN17CUSBGamePadDevice10SetLEDModeEjhh
                0x0000000000000000        0x8 ../../lib/usb/libusb.a(usbgamepadstandard.o)
 .group         0x0000000000000000       0x14 ../../lib/usb/libusb.a(usbgamepadswitchpro.o)
 .group         0x0000000000000000       0x14 ../../lib/usb/libusb.a(usbgamepadswitchpro.o)
 .text._ZN17CUSBGamePadDevice10SetLEDModeEjhh
                0x0000000000000000        0x8 ../../lib/usb/libusb.a(usbgamepadswitchpro.o)
 .ARM.extab.text._ZN17CUSBGamePadDevice10SetLEDModeEjhh
                0x0000000000000000        0x0 ../../lib/usb/libusb.a(usbgamepadswitchpro.o)
 .ARM.exidx.text._ZN17CUSBGamePadDevice10SetLEDModeEjhh
                0x0000000000000000        0x8 ../../lib/usb/libusb.a(usbgamepadswitchpro.o)
 .group         0x0000000000000000       0x14 ../../lib/usb/libusb.a(usbgamepadxbox360.o)
 .group         0x0000000000000000       0x14 ../../lib/usb/libusb.a(usbgamepadxbox360.o)
 .text._ZN17CUSBGamePadDevice10SetLEDModeEjhh
                0x0000000000000000        0x8 ../../lib/usb/libusb.a(usbgamepadxbox360.o)
 .ARM.extab.text._ZN17CUSBGamePadDevice10SetLEDModeEjhh
                0x0000000000000000        0x0 ../../lib/usb/libusb.a(usbgamepadxbox360.o)
 .ARM.exidx.text._ZN17CUSBGamePadDevice10SetLEDModeEjhh
                0x0000000000000000        0x8 ../../lib/usb/libusb.a(usbgamepadxbox360.o)
 .group         0x0000000000000000       0x14 ../../lib/usb/libusb.a(usbgamepadxboxone.o)
 .group         0x0000000000000000       0x14 ../../lib/usb/libusb.a(usbgamepadxboxone.o)
 .group         0x0000000000000000       0x14 ../../lib/usb/libusb.a(usbgamepadxboxone.o)
 .text._ZN17CUSBGamePadDevice10SetLEDModeE15TGamePadLEDMode
                0x0000000000000000        0x8 ../../lib/usb/libusb.a(usbgamepadxboxone.o)
 .ARM.extab.text._ZN17CUSBGamePadDevice10SetLEDModeE15TGamePadLEDMode
                0x0000000000000000        0x0 ../../lib/usb/libusb.a(usbgamepadxboxone.o)
 .ARM.exidx.text._ZN17CUSBGamePadDevice10SetLEDModeE15TGamePadLEDMode
                0x0000000000000000        0x8 ../../lib/usb/libusb.a(usbgamepadxboxone.o)
 .text._ZN17CUSBGamePadDevice10SetLEDModeEjhh
                0x0000000000000000        0x8 ../../lib/usb/libusb.a(usbgamepadxboxone.o)
 .ARM.extab.text._ZN17CUSBGamePadDevice10SetLEDModeEjhh
                0x0000000000000000        0x0 ../../lib/usb/libusb.a(usbgamepadxboxone.o)
 .ARM.exidx.text._ZN17CUSBGamePadDevice10SetLEDModeEjhh
                0x0000000000000000        0x8 ../../lib/usb/libusb.a(usbgamepadxboxone.o)
 .group         0x0000000000000000       0x14 ../../lib/usb/libusb.a(lan7800.o)
 .group         0x0000000000000000       0x14 ../../lib/usb/libusb.a(lan7800.o)
 .group         0x0000000000000000       0x14 ../../lib/usb/libusb.a(lan7800.o)
 .group         0x0000000000000000        0x8 ../../lib/usb/libusb.a(lan7800.o)
 .group         0x0000000000000000        0xc ../../lib/usb/libusb.a(lan7800.o)
 .group         0x0000000000000000       0x14 ../../lib/usb/libusb.a(smsc951x.o)
 .group         0x0000000000000000       0x14 ../../lib/usb/libusb.a(smsc951x.o)
 .group         0x0000000000000000       0x14 ../../lib/usb/libusb.a(smsc951x.o)
 .group         0x0000000000000000        0x8 ../../lib/usb/libusb.a(smsc951x.o)
 .group         0x0000000000000000        0xc ../../lib/usb/libusb.a(smsc951x.o)
 .text._ZN10CNetDevice7GetTypeEv
                0x0000000000000000        0x8 ../../lib/usb/libusb.a(smsc951x.o)
 .ARM.extab.text._ZN10CNetDevice7GetTypeEv
                0x0000000000000000        0x0 ../../lib/usb/libusb.a(smsc951x.o)
 .ARM.exidx.text._ZN10CNetDevice7GetTypeEv
                0x0000000000000000        0x8 ../../lib/usb/libusb.a(smsc951x.o)
 .text._ZN10CNetDevice20IsSendFrameAdvisableEv
                0x0000000000000000        0x8 ../../lib/usb/libusb.a(smsc951x.o)
 .ARM.extab.text._ZN10CNetDevice20IsSendFrameAdvisableEv
                0x0000000000000000        0x0 ../../lib/usb/libusb.a(smsc951x.o)
 .ARM.exidx.text._ZN10CNetDevice20IsSendFrameAdvisableEv
                0x0000000000000000        0x8 ../../lib/usb/libusb.a(smsc951x.o)
 .text._ZN10CNetDevice9UpdatePHYEv
                0x0000000000000000        0x8 ../../lib/usb/libusb.a(smsc951x.o)
 .ARM.extab.text._ZN10CNetDevice9UpdatePHYEv
                0x0000000000000000        0x0 ../../lib/usb/libusb.a(smsc951x.o)
 .ARM.exidx.text._ZN10CNetDevice9UpdatePHYEv
                0x0000000000000000        0x8 ../../lib/usb/libusb.a(smsc951x.o)
 .rodata._ZTS10CNetDevice
                0x0000000000000000        0xd ../../lib/usb/libusb.a(smsc951x.o)
 .rodata._ZTI10CNetDevice
                0x0000000000000000        0x8 ../../lib/usb/libusb.a(smsc951x.o)
 .group         0x0000000000000000       0x14 ../../lib/usb/libusb.a(usbcdcethernet.o)
 .group         0x0000000000000000       0x14 ../../lib/usb/libusb.a(usbcdcethernet.o)
 .group         0x0000000000000000       0x14 ../../lib/usb/libusb.a(usbcdcethernet.o)
 .group         0x0000000000000000       0x14 ../../lib/usb/libusb.a(usbcdcethernet.o)
 .group         0x0000000000000000       0x14 ../../lib/usb/libusb.a(usbcdcethernet.o)
 .group         0x0000000000000000        0x8 ../../lib/usb/libusb.a(usbcdcethernet.o)
 .group         0x0000000000000000        0xc ../../lib/usb/libusb.a(usbcdcethernet.o)
 .text._ZN10CNetDevice7GetTypeEv
                0x0000000000000000        0x8 ../../lib/usb/libusb.a(usbcdcethernet.o)
 .ARM.extab.text._ZN10CNetDevice7GetTypeEv
                0x0000000000000000        0x0 ../../lib/usb/libusb.a(usbcdcethernet.o)
 .ARM.exidx.text._ZN10CNetDevice7GetTypeEv
                0x0000000000000000        0x8 ../../lib/usb/libusb.a(usbcdcethernet.o)
 .text._ZN10CNetDevice20IsSendFrameAdvisableEv
                0x0000000000000000        0x8 ../../lib/usb/libusb.a(usbcdcethernet.o)
 .ARM.extab.text._ZN10CNetDevice20IsSendFrameAdvisableEv
                0x0000000000000000        0x0 ../../lib/usb/libusb.a(usbcdcethernet.o)
 .ARM.exidx.text._ZN10CNetDevice20IsSendFrameAdvisableEv
                0x0000000000000000        0x8 ../../lib/usb/libusb.a(usbcdcethernet.o)
 .text._ZN10CNetDevice9UpdatePHYEv
                0x0000000000000000        0x8 ../../lib/usb/libusb.a(usbcdcethernet.o)
 .ARM.extab.text._ZN10CNetDevice9UpdatePHYEv
                0x0000000000000000        0x0 ../../lib/usb/libusb.a(usbcdcethernet.o)
 .ARM.exidx.text._ZN10CNetDevice9UpdatePHYEv
                0x0000000000000000        0x8 ../../lib/usb/libusb.a(usbcdcethernet.o)
 .rodata._ZTS10CNetDevice
                0x0000000000000000        0xd ../../lib/usb/libusb.a(usbcdcethernet.o)
 .rodata._ZTI10CNetDevice
                0x0000000000000000        0x8 ../../lib/usb/libusb.a(usbcdcethernet.o)
 .group         0x0000000000000000       0x14 ../../lib/usb/libusb.a(usbgamepad.o)
 .group         0x0000000000000000       0x14 ../../lib/usb/libusb.a(usbgamepad.o)
 .group         0x0000000000000000       0x14 ../../lib/usb/libusb.a(usbgamepad.o)
 .group         0x0000000000000000       0x14 ../../lib/usb/libusb.a(usbgamepad.o)
 .text._ZN17CUSBGamePadDevice13GetPropertiesEv
                0x0000000000000000        0x8 ../../lib/usb/libusb.a(usbgamepad.o)
 .ARM.extab.text._ZN17CUSBGamePadDevice13GetPropertiesEv
                0x0000000000000000        0x0 ../../lib/usb/libusb.a(usbgamepad.o)
 .ARM.exidx.text._ZN17CUSBGamePadDevice13GetPropertiesEv
                0x0000000000000000        0x8 ../../lib/usb/libusb.a(usbgamepad.o)
 .text._ZN17CUSBGamePadDevice10SetLEDModeE15TGamePadLEDMode
                0x0000000000000000        0x8 ../../lib/usb/libusb.a(usbgamepad.o)
 .ARM.extab.text._ZN17CUSBGamePadDevice10SetLEDModeE15TGamePadLEDMode
                0x0000000000000000        0x0 ../../lib/usb/libusb.a(usbgamepad.o)
 .ARM.exidx.text._ZN17CUSBGamePadDevice10SetLEDModeE15TGamePadLEDMode
                0x0000000000000000        0x8 ../../lib/usb/libusb.a(usbgamepad.o)
 .text._ZN17CUSBGamePadDevice10SetLEDModeEjhh
                0x0000000000000000        0x8 ../../lib/usb/libusb.a(usbgamepad.o)
 .ARM.extab.text._ZN17CUSBGamePadDevice10SetLEDModeEjhh
                0x0000000000000000        0x0 ../../lib/usb/libusb.a(usbgamepad.o)
 .ARM.exidx.text._ZN17CUSBGamePadDevice10SetLEDModeEjhh
                0x0000000000000000        0x8 ../../lib/usb/libusb.a(usbgamepad.o)
 .text._ZN17CUSBGamePadDevice13SetRumbleModeE18TGamePadRumbleMode
                0x0000000000000000        0x8 ../../lib/usb/libusb.a(usbgamepad.o)
 .ARM.extab.text._ZN17CUSBGamePadDevice13SetRumbleModeE18TGamePadRumbleMode
                0x0000000000000000        0x0 ../../lib/usb/libusb.a(usbgamepad.o)
 .ARM.exidx.text._ZN17CUSBGamePadDevice13SetRumbleModeE18TGamePadRumbleMode
                0x0000000000000000        0x8 ../../lib/usb/libusb.a(usbgamepad.o)
 .group         0x0000000000000000       0x14 ../../lib/libcircle.a(netdevice.o)
 .text._ZN10CNetDevice7GetTypeEv
                0x0000000000000000        0x8 ../../lib/libcircle.a(netdevice.o)
 .ARM.extab.text._ZN10CNetDevice7GetTypeEv
                0x0000000000000000        0x0 ../../lib/libcircle.a(netdevice.o)
 .ARM.exidx.text._ZN10CNetDevice7GetTypeEv
                0x0000000000000000        0x8 ../../lib/libcircle.a(netdevice.o)

Memory Configuration

Name             Origin             Length             Attributes
*default*        0x0000000000000000 0xffffffffffffffff

Linker script and memory map

Address of section .init set to 0x8000

.init           0x0000000000008000       0x70
 *(.init)
 .init          0x0000000000008000       0x70 ../../lib/libcircle.a(startup.o)
                0x0000000000008000                _start
                0x0000000000008064                _start_secondary

.text           0x0000000000008080    0x342f8
 *(.text*)
 .text          0x0000000000008080        0x0 main.o
 .text.startup  0x0000000000008080       0x4c main.o
                0x0000000000008080                main
 .text          0x00000000000080cc      0x28c kernel.o
                0x00000000000080cc                CKernel::CKernel()
                0x00000000000080cc                CKernel::CKernel()
                0x0000000000008170                CKernel::~CKernel()
                0x0000000000008170                CKernel::~CKernel()
                0x00000000000081b0                CKernel::Initialize()
                0x00000000000081bc                CKernel::Run()
 .text          0x0000000000008358      0x184 ../../lib/libcircle.a(actled.o)
                0x0000000000008358                CActLED::CActLED(bool)
                0x0000000000008358                CActLED::CActLED(bool)
                0x000000000000840c                CActLED::~CActLED()
                0x000000000000840c                CActLED::~CActLED()
                0x0000000000008420                CActLED::On()
                0x000000000000844c                CActLED::Off()
                0x0000000000008480                CActLED::Blink(unsigned int, unsigned int, unsigned int)
                0x00000000000084cc                CActLED::Get()
 .text          0x00000000000084dc      0x60c ../../lib/libcircle.a(devicenameservice.o)
                0x00000000000084dc                CDeviceNameService::CDeviceNameService()
                0x00000000000084dc                CDeviceNameService::CDeviceNameService()
                0x0000000000008520                CDeviceNameService::~CDeviceNameService()
                0x0000000000008520                CDeviceNameService::~CDeviceNameService()
                0x000000000000857c                CDeviceNameService::AddDevice(char const*, CDevice*, bool)
                0x0000000000008634                CDeviceNameService::RemoveDevice(char const*, bool)
                0x0000000000008748                CDeviceNameService::GetDevice(char const*, bool)
                0x000000000000884c                CDeviceNameService::Get()
                0x000000000000887c                CDeviceNameService::AddDevice(char const*, unsigned int, CDevice*, bool)
                0x00000000000088f0                CDeviceNameService::RemoveDevice(char const*, unsigned int, bool)
                0x000000000000895c                CDeviceNameService::GetDevice(char const*, unsigned int, bool)
                0x00000000000089d0                CDeviceNameService::ListDevices(CDevice*)
 .text          0x0000000000008ae8      0xbd4 ../../lib/libcircle.a(gpiopin.o)
                0x0000000000008ae8                CGPIOPin::CGPIOPin()
                0x0000000000008ae8                CGPIOPin::CGPIOPin()
                0x0000000000008b20                CGPIOPin::CGPIOPin(unsigned int, TGPIOMode, CGPIOManager*)
                0x0000000000008b20                CGPIOPin::CGPIOPin(unsigned int, TGPIOMode, CGPIOManager*)
                0x0000000000008b7c                CGPIOPin::~CGPIOPin()
                0x0000000000008b7c                CGPIOPin::~CGPIOPin()
                0x0000000000008b80                CGPIOPin::~CGPIOPin()
                0x0000000000008b98                CGPIOPin::AssignPin(unsigned int)
                0x0000000000008c1c                CGPIOPin::SetMode(TGPIOMode, bool)
                0x0000000000008dbc                CGPIOPin::Write(unsigned int)
                0x0000000000008e40                CGPIOPin::Read() const
                0x0000000000008eac                CGPIOPin::Invert()
                0x0000000000008edc                CGPIOPin::ConnectInterrupt(void (*)(void*), void*, bool)
                0x0000000000008fac                CGPIOPin::DisconnectInterrupt()
                0x000000000000905c                CGPIOPin::EnableInterrupt(TGPIOInterrupt)
                0x0000000000009154                CGPIOPin::DisableInterrupt()
                0x0000000000009204                CGPIOPin::EnableInterrupt2(TGPIOInterrupt)
                0x00000000000092fc                CGPIOPin::DisableInterrupt2()
                0x00000000000093ac                CGPIOPin::AcknowledgeInterrupt()
                0x0000000000009404                CGPIOPin::WriteAll(unsigned int, unsigned int)
                0x0000000000009428                CGPIOPin::ReadAll()
                0x0000000000009438                CGPIOPin::SetPullMode(TGPIOPullMode)
                0x00000000000094d0                CGPIOPin::SetAlternateFunction(unsigned int)
                0x0000000000009590                CGPIOPin::InterruptHandler()
                0x000000000000960c                CGPIOPin::DisableAllInterrupts(unsigned int)
 .text.startup  0x00000000000096bc       0x14 ../../lib/libcircle.a(gpiopin.o)
 .text          0x00000000000096d0      0x5bc ../../lib/libcircle.a(koptions.o)
                0x0000000000009730                CKernelOptions::~CKernelOptions()
                0x0000000000009730                CKernelOptions::~CKernelOptions()
                0x0000000000009744                CKernelOptions::GetWidth() const
                0x000000000000974c                CKernelOptions::GetHeight() const
                0x0000000000009754                CKernelOptions::GetLogDevice() const
                0x0000000000009760                CKernelOptions::GetLogLevel() const
                0x0000000000009768                CKernelOptions::GetKeyMap() const
                0x0000000000009770                CKernelOptions::GetUSBPowerDelay() const
                0x0000000000009778                CKernelOptions::GetUSBFullSpeed() const
                0x0000000000009780                CKernelOptions::GetSoundDevice() const
                0x000000000000978c                CKernelOptions::GetSoundOption() const
                0x0000000000009794                CKernelOptions::GetCPUSpeed() const
                0x000000000000979c                CKernelOptions::GetSoCMaxTemp() const
                0x00000000000097a4                CKernelOptions::Get()
                0x00000000000097b4                CKernelOptions::GetToken()
                0x0000000000009834                CKernelOptions::CKernelOptions()
                0x0000000000009834                CKernelOptions::CKernelOptions()
                0x0000000000009c34                CKernelOptions::GetOptionValue(char*)
                0x0000000000009c6c                CKernelOptions::GetDecimal(char*)
 .text          0x0000000000009c8c      0x838 ../../lib/libcircle.a(machineinfo.o)
                0x0000000000009c8c                CMachineInfo::CMachineInfo()
                0x0000000000009c8c                CMachineInfo::CMachineInfo()
                0x000000000000a0e4                CMachineInfo::~CMachineInfo()
                0x000000000000a0e4                CMachineInfo::~CMachineInfo()
                0x000000000000a100                CMachineInfo::GetMachineModel() const
                0x000000000000a108                CMachineInfo::GetMachineName() const
                0x000000000000a120                CMachineInfo::GetModelMajor() const
                0x000000000000a128                CMachineInfo::GetModelRevision() const
                0x000000000000a130                CMachineInfo::GetSoCType() const
                0x000000000000a138                CMachineInfo::GetRAMSize() const
                0x000000000000a140                CMachineInfo::GetSoCName() const
                0x000000000000a158                CMachineInfo::GetRevisionRaw() const
                0x000000000000a160                CMachineInfo::GetActLEDInfo() const
                0x000000000000a178                CMachineInfo::GetClockRate(unsigned int) const
                0x000000000000a244                CMachineInfo::GetGPIOPin(TGPIOVirtualPin) const
                0x000000000000a2a8                CMachineInfo::GetGPIOClockSourceRate(unsigned int)
                0x000000000000a304                CMachineInfo::GetDevice(TDeviceId) const
                0x000000000000a334                CMachineInfo::ArePWMChannelsSwapped() const
                0x000000000000a350                CMachineInfo::AllocateDMAChannel(unsigned int)
                0x000000000000a414                CMachineInfo::FreeDMAChannel(unsigned int)
                0x000000000000a498                CMachineInfo::Get()
 .text          0x000000000000a4c4     0x124c ../../lib/libcircle.a(screen.o)
                0x000000000000a4c4                CScreenDevice::CScreenDevice(unsigned int, unsigned int, bool)
                0x000000000000a4c4                CScreenDevice::CScreenDevice(unsigned int, unsigned int, bool)
                0x000000000000a56c                CScreenDevice::~CScreenDevice()
                0x000000000000a56c                CScreenDevice::~CScreenDevice()
                0x000000000000a5ec                CScreenDevice::~CScreenDevice()
                0x000000000000a60c                CScreenDevice::Initialize()
                0x000000000000a78c                CScreenDevice::GetWidth() const
                0x000000000000a794                CScreenDevice::GetHeight() const
                0x000000000000a79c                CScreenDevice::GetColumns() const
                0x000000000000a7b4                CScreenDevice::GetRows() const
                0x000000000000a7cc                CScreenDevice::GetFrameBuffer()
                0x000000000000a7d4                CScreenDevice::GetStatus()
                0x000000000000a844                CScreenDevice::SetStatus(TScreenStatus const&)
                0x000000000000a948                CScreenDevice::Write(void const*, unsigned int)
                0x000000000000a9fc                CScreenDevice::Write(char)
                0x000000000000aef4                CScreenDevice::CarriageReturn()
                0x000000000000af00                CScreenDevice::ClearDisplayEnd()
                0x000000000000af80                CScreenDevice::ClearLineEnd()
                0x000000000000afc8                CScreenDevice::CursorDown()
                0x000000000000b014                CScreenDevice::CursorHome()
                0x000000000000b024                CScreenDevice::CursorLeft()
                0x000000000000b094                CScreenDevice::CursorMove(unsigned int, unsigned int)
                0x000000000000b0f8                CScreenDevice::CursorRight()
                0x000000000000b134                CScreenDevice::CursorUp()
                0x000000000000b164                CScreenDevice::DeleteChars(unsigned int)
                0x000000000000b168                CScreenDevice::DeleteLines(unsigned int)
                0x000000000000b16c                CScreenDevice::DisplayChar(char)
                0x000000000000b1a8                CScreenDevice::EraseChars(unsigned int)
                0x000000000000b1b4                CScreenDevice::InsertLines(unsigned int)
                0x000000000000b1b8                CScreenDevice::InsertMode(bool)
                0x000000000000b1c0                CScreenDevice::NewLine()
                0x000000000000b1cc                CScreenDevice::ReverseScroll()
                0x000000000000b1d0                CScreenDevice::SetCursorMode(bool)
                0x000000000000b1d8                CScreenDevice::SetScrollRegion(unsigned int, unsigned int)
                0x000000000000b25c                CScreenDevice::SetStandoutMode(unsigned int)
                0x000000000000b2fc                CScreenDevice::Tabulator()
                0x000000000000b344                CScreenDevice::Scroll()
                0x000000000000b414                CScreenDevice::DisplayChar(char, unsigned int, unsigned int, unsigned short)
                0x000000000000b4bc                CScreenDevice::EraseChar(unsigned int, unsigned int)
                0x000000000000b540                CScreenDevice::InvertCursor()
                0x000000000000b550                CScreenDevice::SetPixel(unsigned int, unsigned int, unsigned short)
                0x000000000000b57c                CScreenDevice::GetPixel(unsigned int, unsigned int)
                0x000000000000b5b4                CScreenDevice::Rotor(unsigned int, unsigned int)
 .text          0x000000000000b710     0x156c ../../lib/libcircle.a(string.o)
                0x000000000000b710                CString::~CString()
                0x000000000000b710                CString::~CString()
                0x000000000000b73c                CString::~CString()
                0x000000000000b7dc                CString::CString()
                0x000000000000b7dc                CString::CString()
                0x000000000000b7f4                CString::CString(char const*)
                0x000000000000b7f4                CString::CString(char const*)
                0x000000000000b834                CString::operator char const*() const
                0x000000000000b84c                CString::operator=(char const*)
                0x000000000000b890                CString::operator=(CString const&)
                0x000000000000b8ec                CString::GetLength() const
                0x000000000000b8fc                CString::Append(char const*)
                0x000000000000b980                CString::Compare(char const*) const
                0x000000000000b988                CString::Find(char) const
                0x000000000000b9bc                CString::PutChar(char, unsigned int)
                0x000000000000b9fc                CString::PutString(char const*)
                0x000000000000ba40                CString::Replace(char const*, char const*)
                0x000000000000bbbc                CString::ReserveSpace(unsigned int)
                0x000000000000bbc8                CString::ntoa(char*, unsigned long, unsigned int, bool)
                0x000000000000bc4c                CString::lltoa(char*, unsigned long long, unsigned int, bool)
                0x000000000000bdac                CString::ftoa(char*, double, unsigned int)
                0x000000000000bff8                CString::FormatV(char const*, std::__va_list)
                0x000000000000cc50                CString::Format(char const*, ...)
 .text          0x000000000000cc7c      0x148 ../../lib/libcircle.a(sysinit.o)
                0x000000000000cc7c                __aeabi_atexit
                0x000000000000cc80                __sync_synchronize
                0x000000000000cc88                set_qemu_exit_status
                0x000000000000cc98                halt
                0x000000000000ccac                reboot
                0x000000000000ccf4                sysinit
 .text          0x000000000000cdc4      0xd70 ../../lib/libcircle.a(timer.o)
                0x000000000000cde8                CTimer::CTimer(CInterruptSystem*)
                0x000000000000cde8                CTimer::CTimer(CInterruptSystem*)
                0x000000000000ce7c                CTimer::~CTimer()
                0x000000000000ce7c                CTimer::~CTimer()
                0x000000000000cf68                CTimer::SetTimeZone(int)
                0x000000000000cf88                CTimer::GetTimeZone() const
                0x000000000000cf90                CTimer::SetTime(unsigned int, bool)
                0x000000000000d008                CTimer::GetClockTicks()
                0x000000000000d014                CTimer::GetTicks() const
                0x000000000000d01c                CTimer::GetUptime() const
                0x000000000000d024                CTimer::GetTime() const
                0x000000000000d02c                CTimer::GetLocalTime(unsigned int*, unsigned int*)
                0x000000000000d0e4                CTimer::GetUniversalTime() const
                0x000000000000d104                CTimer::GetUniversalTime(unsigned int*, unsigned int*)
                0x000000000000d1d8                CTimer::GetTimeString()
                0x000000000000d3cc                CTimer::StartKernelTimer(unsigned int, void (*)(unsigned int, void*, void*), void*, void*)
                0x000000000000d518                CTimer::CancelKernelTimer(unsigned int)
                0x000000000000d5c0                CTimer::PollKernelTimers()
                0x000000000000d708                CTimer::InterruptHandler()
                0x000000000000d80c                CTimer::InterruptHandler(void*)
                0x000000000000d834                CTimer::TuneMsDelay()
                0x000000000000d8d4                CTimer::Initialize()
                0x000000000000d9c8                CTimer::RegisterPeriodicHandler(void (*)())
                0x000000000000da30                CTimer::SimpleMsDelay(unsigned int)
                0x000000000000da4c                CTimer::SimpleusDelay(unsigned int)
                0x000000000000da58                CTimer::IsLeapYear(unsigned int)
                0x000000000000da9c                CTimer::GetDaysOfMonth(unsigned int, unsigned int)
                0x000000000000db04                CTimer::Get()
 .text          0x000000000000db34       0xb4 ../../lib/libcircle.a(util.o)
                0x000000000000db34                memset
                0x000000000000dbe4                char2int
 .text          0x000000000000dbe8       0x5c ../../lib/libcircle.a(util_fast.o)
                0x000000000000dbe8                memcpy
 .text          0x000000000000dc44      0x2f0 ../../lib/libcircle.a(virtualgpiopin.o)
                0x000000000000dc44                CVirtualGPIOPin::CVirtualGPIOPin(unsigned int, bool)
                0x000000000000dc44                CVirtualGPIOPin::CVirtualGPIOPin(unsigned int, bool)
                0x000000000000dd9c                CVirtualGPIOPin::~CVirtualGPIOPin()
                0x000000000000dd9c                CVirtualGPIOPin::~CVirtualGPIOPin()
                0x000000000000dda0                CVirtualGPIOPin::~CVirtualGPIOPin()
                0x000000000000ddb8                CVirtualGPIOPin::Write(unsigned int)
                0x000000000000df08                CVirtualGPIOPin::Invert()
 .text.startup  0x000000000000df34       0x14 ../../lib/libcircle.a(virtualgpiopin.o)
 .text          0x000000000000df48       0xb8 ../../lib/libcircle.a(chainboot.o)
                0x000000000000df90                EnableChainBoot
                0x000000000000dfd4                IsChainBootEnabled
                0x000000000000dfec                DoChainBoot
 .text          0x000000000000e000      0x1f4 ../../lib/libcircle.a(cache-v7.o)
                0x000000000000e000                InvalidateDataCacheL1Only
                0x000000000000e06c                InvalidateDataCache
                0x000000000000e114                CleanDataCache
                0x000000000000e1bc                CleanAndInvalidateDataCacheRange
 .text          0x000000000000e1f4      0x330 ../../lib/libcircle.a(memory.o)
                0x000000000000e1f4                CMemorySystem::CMemorySystem(bool)
                0x000000000000e1f4                CMemorySystem::CMemorySystem(bool)
                0x000000000000e364                CMemorySystem::~CMemorySystem()
                0x000000000000e364                CMemorySystem::~CMemorySystem()
                0x000000000000e3b4                CMemorySystem::Destructor()
                0x000000000000e3e0                CMemorySystem::GetMemSize() const
                0x000000000000e418                CMemorySystem::Get()
                0x000000000000e444                CMemorySystem::EnableMMU()
                0x000000000000e4f0                CMemorySystem::GetCoherentPage(unsigned int)
 .text          0x000000000000e524       0xa0 ../../lib/libcircle.a(pagetable.o)
                0x000000000000e524                CPageTable::CPageTable(unsigned int)
                0x000000000000e524                CPageTable::CPageTable(unsigned int)
                0x000000000000e5b4                CPageTable::~CPageTable()
                0x000000000000e5b4                CPageTable::~CPageTable()
                0x000000000000e5b8                CPageTable::GetBaseAddress() const
 .text          0x000000000000e5c4        0x0 ../../lib/libcircle.a(startup.o)
 .text          0x000000000000e5c4      0x134 ../../lib/libcircle.a(synchronize.o)
                0x000000000000e5c4                CurrentExecutionLevel
                0x000000000000e5d8                EnterCritical
                0x000000000000e684                LeaveCritical
                0x000000000000e6d8                SyncDataAndInstructionCache
 .text          0x000000000000e6f8      0x5a0 ../../lib/libcircle.a(interrupt.o)
                0x000000000000e6f8                CInterruptSystem::CInterruptSystem()
                0x000000000000e6f8                CInterruptSystem::CInterruptSystem()
                0x000000000000e724                CInterruptSystem::~CInterruptSystem()
                0x000000000000e724                CInterruptSystem::~CInterruptSystem()
                0x000000000000e764                CInterruptSystem::Initialize()
                0x000000000000e7d8                CInterruptSystem::ConnectFIQ(unsigned int, void (*)(void*), void*)
                0x000000000000e864                CInterruptSystem::DisconnectFIQ()
                0x000000000000e8c8                CInterruptSystem::EnableIRQ(unsigned int)
                0x000000000000e964                CInterruptSystem::ConnectIRQ(unsigned int, void (*)(void*), void*)
                0x000000000000e9c4                CInterruptSystem::DisableIRQ(unsigned int)
                0x000000000000ea60                CInterruptSystem::DisconnectIRQ(unsigned int)
                0x000000000000eacc                CInterruptSystem::EnableFIQ(unsigned int)
                0x000000000000eb04                CInterruptSystem::DisableFIQ()
                0x000000000000eb18                CInterruptSystem::Get()
                0x000000000000eb48                CInterruptSystem::CallIRQHandler(unsigned int)
                0x000000000000eb9c                CInterruptSystem::InterruptHandler()
                0x000000000000ec94                InterruptHandler
 .text          0x000000000000ec98       0x90 ../../lib/libcircle.a(assert.o)
                0x000000000000ec98                assertion_failed
 .text          0x000000000000ed28      0x4bc ../../lib/libcircle.a(bcmframebuffer.o)
                0x000000000000ed28                CBcmFrameBuffer::CBcmFrameBuffer(unsigned int, unsigned int, unsigned int, unsigned int, unsigned int)
                0x000000000000ed28                CBcmFrameBuffer::CBcmFrameBuffer(unsigned int, unsigned int, unsigned int, unsigned int, unsigned int)
                0x000000000000ee78                CBcmFrameBuffer::~CBcmFrameBuffer()
                0x000000000000ee78                CBcmFrameBuffer::~CBcmFrameBuffer()
                0x000000000000ee9c                CBcmFrameBuffer::SetPalette(unsigned char, unsigned short)
                0x000000000000eed8                CBcmFrameBuffer::SetPalette32(unsigned char, unsigned int)
                0x000000000000eef0                CBcmFrameBuffer::GetWidth() const
                0x000000000000eef8                CBcmFrameBuffer::GetHeight() const
                0x000000000000ef00                CBcmFrameBuffer::GetVirtWidth() const
                0x000000000000ef08                CBcmFrameBuffer::GetVirtHeight() const
                0x000000000000ef10                CBcmFrameBuffer::GetPitch() const
                0x000000000000ef18                CBcmFrameBuffer::GetDepth() const
                0x000000000000ef20                CBcmFrameBuffer::GetBuffer() const
                0x000000000000ef28                CBcmFrameBuffer::GetSize() const
                0x000000000000ef30                CBcmFrameBuffer::UpdatePalette()
                0x000000000000efe8                CBcmFrameBuffer::Initialize()
                0x000000000000f0a4                CBcmFrameBuffer::SetVirtualOffset(unsigned int, unsigned int)
                0x000000000000f12c                CBcmFrameBuffer::WaitForVerticalSync()
                0x000000000000f184                CBcmFrameBuffer::SetBacklightBrightness(unsigned int)
 .text          0x000000000000f1e4      0x198 ../../lib/libcircle.a(bcmpropertytags.o)
                0x000000000000f1e4                CBcmPropertyTags::CBcmPropertyTags(bool)
                0x000000000000f1e4                CBcmPropertyTags::CBcmPropertyTags(bool)
                0x000000000000f200                CBcmPropertyTags::~CBcmPropertyTags()
                0x000000000000f200                CBcmPropertyTags::~CBcmPropertyTags()
                0x000000000000f214                CBcmPropertyTags::GetTag(unsigned int, void*, unsigned int, unsigned int)
                0x000000000000f294                CBcmPropertyTags::GetTags(void*, unsigned int)
 .text          0x000000000000f37c       0x94 ../../lib/libcircle.a(chargenerator.o)
                0x000000000000f37c                CCharGenerator::CCharGenerator()
                0x000000000000f37c                CCharGenerator::CCharGenerator()
                0x000000000000f388                CCharGenerator::~CCharGenerator()
                0x000000000000f388                CCharGenerator::~CCharGenerator()
                0x000000000000f38c                CCharGenerator::GetCharWidth() const
                0x000000000000f394                CCharGenerator::GetCharHeight() const
                0x000000000000f39c                CCharGenerator::GetUnderline() const
                0x000000000000f3a4                CCharGenerator::GetPixel(char, unsigned int, unsigned int) const
 .text          0x000000000000f410      0x19c ../../lib/libcircle.a(debug.o)
                0x000000000000f410                debug_hexdump(void const*, unsigned int, char const*)
                0x000000000000f51c                debug_stacktrace(unsigned int const*, char const*)
 *fill*         0x000000000000f5ac        0x4 
 .text          0x000000000000f5b0       0x14 ../../lib/libcircle.a(delayloop.o)
                0x000000000000f5b0                DelayLoop
 .text          0x000000000000f5c4       0xa4 ../../lib/libcircle.a(device.o)
                0x000000000000f5c4                CDevice::~CDevice()
                0x000000000000f5c4                CDevice::~CDevice()
                0x000000000000f5f4                CDevice::Read(void*, unsigned int)
                0x000000000000f5f4                CDevice::Write(void const*, unsigned int)
                0x000000000000f5fc                CDevice::Seek(unsigned long long)
                0x000000000000f608                CDevice::RemoveDevice()
                0x000000000000f610                CDevice::~CDevice()
                0x000000000000f64c                CDevice::CDevice()
                0x000000000000f64c                CDevice::CDevice()
                0x000000000000f660                CDevice::RegisterRemovedHandler(void (*)(CDevice*, void*), void*)
 .text          0x000000000000f668      0xb4c ../../lib/libcircle.a(dmachannel.o)
                0x000000000000f668                CDMAChannel::CDMAChannel(unsigned int, CInterruptSystem*)
                0x000000000000f668                CDMAChannel::CDMAChannel(unsigned int, CInterruptSystem*)
                0x000000000000f764                CDMAChannel::~CDMAChannel()
                0x000000000000f764                CDMAChannel::~CDMAChannel()
                0x000000000000f850                CDMAChannel::SetupMemCopy(void*, void const*, unsigned int, unsigned int, bool)
                0x000000000000f9c8                CDMAChannel::SetupIORead(void*, unsigned int, unsigned int, TDREQ)
                0x000000000000fb00                CDMAChannel::SetupIOWrite(unsigned int, void const*, unsigned int, TDREQ)
                0x000000000000fc38                CDMAChannel::SetupMemCopy2D(void*, void const*, unsigned int, unsigned int, unsigned int, unsigned int)
                0x000000000000fdd0                CDMAChannel::SetCompletionRoutine(void (*)(unsigned int, bool, void*), void*)
                0x000000000000fe74                CDMAChannel::Start()
                0x000000000000ff9c                CDMAChannel::Wait()
                0x0000000000010028                CDMAChannel::GetStatus()
                0x0000000000010080                CDMAChannel::InterruptHandler()
                0x0000000000010190                CDMAChannel::InterruptStub(void*)
 .text          0x00000000000101b4      0x340 ../../lib/libcircle.a(gpiomanager.o)
                0x00000000000101b4                CGPIOManager::CGPIOManager(CInterruptSystem*)
                0x00000000000101b4                CGPIOManager::CGPIOManager(CInterruptSystem*)
                0x00000000000101e0                CGPIOManager::~CGPIOManager()
                0x00000000000101e0                CGPIOManager::~CGPIOManager()
                0x0000000000010260                CGPIOManager::Initialize()
                0x00000000000102d0                CGPIOManager::ConnectInterrupt(CGPIOPin*)
                0x000000000001036c                CGPIOManager::DisconnectInterrupt(CGPIOPin*)
                0x000000000001040c                CGPIOManager::InterruptHandler()
                0x00000000000104cc                CGPIOManager::InterruptStub(void*)
 .text          0x00000000000104f4      0x7dc ../../lib/libcircle.a(logger.o)
                0x00000000000104f4                CLogger::CLogger(unsigned int, CTimer*)
                0x00000000000104f4                CLogger::CLogger(unsigned int, CTimer*)
                0x0000000000010558                CLogger::~CLogger()
                0x0000000000010558                CLogger::~CLogger()
                0x00000000000105d4                CLogger::Initialize(CDevice*)
                0x0000000000010618                CLogger::SetNewTarget(CDevice*)
                0x0000000000010620                CLogger::Write(char const*, TLogSeverity, char const*, ...)
                0x0000000000010650                CLogger::WriteV(char const*, TLogSeverity, char const*, std::__va_list)
                0x00000000000107e4                CLogger::WriteNoAlloc(char const*, TLogSeverity, char const*)
                0x00000000000108c4                CLogger::Get()
                0x00000000000108d4                CLogger::Write(char const*)
                0x000000000001099c                CLogger::Read(void*, unsigned int)
                0x0000000000010a5c                CLogger::WriteEvent(char const*, TLogSeverity, char const*)
                0x0000000000010be0                CLogger::ReadEvent(TLogSeverity*, char*, char*, long*, unsigned int*, int*)
                0x0000000000010cc0                CLogger::RegisterEventNotificationHandler(void (*)())
                0x0000000000010cc8                CLogger::RegisterPanicHandler(void (*)())
 .text          0x0000000000010cd0      0x44c ../../lib/libcircle.a(ptrlist.o)
                0x0000000000010cd0                CPtrList::CPtrList()
                0x0000000000010cd0                CPtrList::CPtrList()
                0x0000000000010cdc                CPtrList::~CPtrList()
                0x0000000000010cdc                CPtrList::~CPtrList()
                0x0000000000010d04                CPtrList::GetFirst()
                0x0000000000010d0c                CPtrList::GetNext(TPtrListElement*)
                0x0000000000010d64                CPtrList::GetPtr(TPtrListElement*)
                0x0000000000010dbc                CPtrList::InsertBefore(TPtrListElement*, void*)
                0x0000000000010eac                CPtrList::InsertAfter(TPtrListElement*, void*)
                0x0000000000010f9c                CPtrList::Remove(TPtrListElement*)
                0x00000000000110c4                CPtrList::Find(void*)
 .text          0x000000000001111c       0x2c ../../lib/libcircle.a(new.o)
                0x000000000001111c                operator new(unsigned int, int)
                0x0000000000011144                operator new[](unsigned int, int)
 .text          0x0000000000011148      0x374 ../../lib/libcircle.a(heapallocator.o)
                0x0000000000011148                CHeapAllocator::CHeapAllocator(char const*)
                0x0000000000011148                CHeapAllocator::CHeapAllocator(char const*)
                0x00000000000111a4                CHeapAllocator::~CHeapAllocator()
                0x00000000000111a4                CHeapAllocator::~CHeapAllocator()
                0x00000000000111a8                CHeapAllocator::Setup(unsigned int, unsigned int, unsigned int)
                0x00000000000111bc                CHeapAllocator::GetFreeSpace() const
                0x00000000000111c8                CHeapAllocator::Allocate(unsigned int)
                0x0000000000011374                CHeapAllocator::Free(void*)
                0x000000000001141c                CHeapAllocator::ReAllocate(void*, unsigned int)
 .text          0x00000000000114bc      0x1b0 ../../lib/libcircle.a(pageallocator.o)
                0x00000000000114bc                CPageAllocator::CPageAllocator()
                0x00000000000114bc                CPageAllocator::CPageAllocator()
                0x00000000000114d8                CPageAllocator::~CPageAllocator()
                0x00000000000114d8                CPageAllocator::~CPageAllocator()
                0x00000000000114dc                CPageAllocator::Setup(unsigned int, unsigned int)
                0x0000000000011544                CPageAllocator::GetFreeSpace() const
                0x0000000000011550                CPageAllocator::Allocate()
                0x000000000001161c                CPageAllocator::Free(void*)
 .text          0x000000000001166c      0x164 ../../lib/libcircle.a(exceptionstub.o)
                0x000000000001166c                UndefinedInstructionInternal
                0x00000000000116bc                PrefetchAbortStub
                0x000000000001170c                DataAbortStub
                0x000000000001175c                UndefinedInstructionStub
                0x0000000000011778                IRQStub
                0x0000000000011790                FIQStub
 .text          0x00000000000117d0      0x1c8 ../../lib/libcircle.a(bcmmailbox.o)
                0x00000000000117d0                CBcmMailBox::CBcmMailBox(unsigned int, bool)
                0x00000000000117d0                CBcmMailBox::CBcmMailBox(unsigned int, bool)
                0x00000000000117dc                CBcmMailBox::~CBcmMailBox()
                0x00000000000117dc                CBcmMailBox::~CBcmMailBox()
                0x00000000000117e0                CBcmMailBox::WriteRead(unsigned int)
                0x00000000000118ec                CBcmMailBox::Flush()
                0x0000000000011920                CBcmMailBox::Read()
                0x0000000000011950                CBcmMailBox::Write(unsigned int)
 .text.startup  0x0000000000011998       0x14 ../../lib/libcircle.a(bcmmailbox.o)
 .text          0x00000000000119ac      0x260 ../../lib/libcircle.a(exceptionhandler.o)
                0x00000000000119ac                CExceptionHandler::CExceptionHandler()
                0x00000000000119ac                CExceptionHandler::CExceptionHandler()
                0x0000000000011a44                CExceptionHandler::~CExceptionHandler()
                0x0000000000011a44                CExceptionHandler::~CExceptionHandler()
                0x0000000000011a58                CExceptionHandler::Throw(unsigned int)
                0x0000000000011a98                CExceptionHandler::Throw(unsigned int, TAbortFrame*)
                0x0000000000011b8c                CExceptionHandler::Get()
                0x0000000000011bbc                ExceptionHandler
 .text          0x0000000000011c0c        0x0 /home/olf/projects/circle/gcc-arm-9.2-2019.12-x86_64-arm-none-eabi/bin/../lib/gcc/arm-none-eabi/9.2.1/../../../../arm-none-eabi/lib/thumb/v7ve+simd/hard/libstdc++.a(class_type_info.o)
 .text._ZNK10__cxxabiv117__class_type_info11__do_upcastEPKS0_PPv
                0x0000000000011c0c       0x38 /home/olf/projects/circle/gcc-arm-9.2-2019.12-x86_64-arm-none-eabi/bin/../lib/gcc/arm-none-eabi/9.2.1/../../../../arm-none-eabi/lib/thumb/v7ve+simd/hard/libstdc++.a(class_type_info.o)
                0x0000000000011c0c                __cxxabiv1::__class_type_info::__do_upcast(__cxxabiv1::__class_type_info const*, void**) const
 .text._ZNK10__cxxabiv117__class_type_info20__do_find_public_srcEiPKvPKS0_S2_
                0x0000000000011c44        0xc /home/olf/projects/circle/gcc-arm-9.2-2019.12-x86_64-arm-none-eabi/bin/../lib/gcc/arm-none-eabi/9.2.1/../../../../arm-none-eabi/lib/thumb/v7ve+simd/hard/libstdc++.a(class_type_info.o)
                0x0000000000011c44                __cxxabiv1::__class_type_info::__do_find_public_src(int, void const*, __cxxabiv1::__class_type_info const*, void const*) const
 .text._ZN10__cxxabiv117__class_type_infoD2Ev
                0x0000000000011c50       0x14 /home/olf/projects/circle/gcc-arm-9.2-2019.12-x86_64-arm-none-eabi/bin/../lib/gcc/arm-none-eabi/9.2.1/../../../../arm-none-eabi/lib/thumb/v7ve+simd/hard/libstdc++.a(class_type_info.o)
                0x0000000000011c50                __cxxabiv1::__class_type_info::~__class_type_info()
                0x0000000000011c50                __cxxabiv1::__class_type_info::~__class_type_info()
 .text._ZN10__cxxabiv117__class_type_infoD0Ev
                0x0000000000011c64       0x1c /home/olf/projects/circle/gcc-arm-9.2-2019.12-x86_64-arm-none-eabi/bin/../lib/gcc/arm-none-eabi/9.2.1/../../../../arm-none-eabi/lib/thumb/v7ve+simd/hard/libstdc++.a(class_type_info.o)
                0x0000000000011c64                __cxxabiv1::__class_type_info::~__class_type_info()
 .text._ZNK10__cxxabiv117__class_type_info12__do_dyncastEiNS0_10__sub_kindEPKS0_PKvS3_S5_RNS0_16__dyncast_resultE
                0x0000000000011c80       0x44 /home/olf/projects/circle/gcc-arm-9.2-2019.12-x86_64-arm-none-eabi/bin/../lib/gcc/arm-none-eabi/9.2.1/../../../../arm-none-eabi/lib/thumb/v7ve+simd/hard/libstdc++.a(class_type_info.o)
                0x0000000000011c80                __cxxabiv1::__class_type_info::__do_dyncast(int, __cxxabiv1::__class_type_info::__sub_kind, __cxxabiv1::__class_type_info const*, void const*, __cxxabiv1::__class_type_info const*, void const*, __cxxabiv1::__class_type_info::__dyncast_result&) const
 .text._ZNK10__cxxabiv117__class_type_info11__do_upcastEPKS0_PKvRNS0_15__upcast_resultE
                0x0000000000011cc4       0x1c /home/olf/projects/circle/gcc-arm-9.2-2019.12-x86_64-arm-none-eabi/bin/../lib/gcc/arm-none-eabi/9.2.1/../../../../arm-none-eabi/lib/thumb/v7ve+simd/hard/libstdc++.a(class_type_info.o)
                0x0000000000011cc4                __cxxabiv1::__class_type_info::__do_upcast(__cxxabiv1::__class_type_info const*, void const*, __cxxabiv1::__class_type_info::__upcast_result&) const
 .text._ZNK10__cxxabiv117__class_type_info10__do_catchEPKSt9type_infoPPvj
                0x0000000000011ce0       0x2c /home/olf/projects/circle/gcc-arm-9.2-2019.12-x86_64-arm-none-eabi/bin/../lib/gcc/arm-none-eabi/9.2.1/../../../../arm-none-eabi/lib/thumb/v7ve+simd/hard/libstdc++.a(class_type_info.o)
                0x0000000000011ce0                __cxxabiv1::__class_type_info::__do_catch(std::type_info const*, void**, unsigned int) const
 .text          0x0000000000011d0c        0x0 /home/olf/projects/circle/gcc-arm-9.2-2019.12-x86_64-arm-none-eabi/bin/../lib/gcc/arm-none-eabi/9.2.1/../../../../arm-none-eabi/lib/thumb/v7ve+simd/hard/libstdc++.a(del_ops.o)
 .text._ZdlPvj  0x0000000000011d0c        0x4 /home/olf/projects/circle/gcc-arm-9.2-2019.12-x86_64-arm-none-eabi/bin/../lib/gcc/arm-none-eabi/9.2.1/../../../../arm-none-eabi/lib/thumb/v7ve+simd/hard/libstdc++.a(del_ops.o)
                0x0000000000011d0c                operator delete(void*, unsigned int)
 .text          0x0000000000011d10        0x0 /home/olf/projects/circle/gcc-arm-9.2-2019.12-x86_64-arm-none-eabi/bin/../lib/gcc/arm-none-eabi/9.2.1/../../../../arm-none-eabi/lib/thumb/v7ve+simd/hard/libstdc++.a(del_opv.o)
 .text._ZdaPv   0x0000000000011d10        0x4 /home/olf/projects/circle/gcc-arm-9.2-2019.12-x86_64-arm-none-eabi/bin/../lib/gcc/arm-none-eabi/9.2.1/../../../../arm-none-eabi/lib/thumb/v7ve+simd/hard/libstdc++.a(del_opv.o)
                0x0000000000011d10                operator delete[](void*)
 .text          0x0000000000011d14        0x0 /home/olf/projects/circle/gcc-arm-9.2-2019.12-x86_64-arm-none-eabi/bin/../lib/gcc/arm-none-eabi/9.2.1/../../../../arm-none-eabi/lib/thumb/v7ve+simd/hard/libstdc++.a(eh_arm.o)
 .text.__cxa_end_cleanup
                0x0000000000011d14        0xc /home/olf/projects/circle/gcc-arm-9.2-2019.12-x86_64-arm-none-eabi/bin/../lib/gcc/arm-none-eabi/9.2.1/../../../../arm-none-eabi/lib/thumb/v7ve+simd/hard/libstdc++.a(eh_arm.o)
                0x0000000000011d14                __cxa_end_cleanup
 .text.__cxa_type_match
                0x0000000000011d20       0xc0 /home/olf/projects/circle/gcc-arm-9.2-2019.12-x86_64-arm-none-eabi/bin/../lib/gcc/arm-none-eabi/9.2.1/../../../../arm-none-eabi/lib/thumb/v7ve+simd/hard/libstdc++.a(eh_arm.o)
                0x0000000000011d20                __cxa_type_match
 .text.__cxa_begin_cleanup
                0x0000000000011de0       0x64 /home/olf/projects/circle/gcc-arm-9.2-2019.12-x86_64-arm-none-eabi/bin/../lib/gcc/arm-none-eabi/9.2.1/../../../../arm-none-eabi/lib/thumb/v7ve+simd/hard/libstdc++.a(eh_arm.o)
                0x0000000000011de0                __cxa_begin_cleanup
 .text.__gnu_end_cleanup
                0x0000000000011e44       0x70 /home/olf/projects/circle/gcc-arm-9.2-2019.12-x86_64-arm-none-eabi/bin/../lib/gcc/arm-none-eabi/9.2.1/../../../../arm-none-eabi/lib/thumb/v7ve+simd/hard/libstdc++.a(eh_arm.o)
                0x0000000000011e44                __gnu_end_cleanup
 .text          0x0000000000011eb4        0x0 /home/olf/projects/circle/gcc-arm-9.2-2019.12-x86_64-arm-none-eabi/bin/../lib/gcc/arm-none-eabi/9.2.1/../../../../arm-none-eabi/lib/thumb/v7ve+simd/hard/libstdc++.a(eh_aux_runtime.o)
 .text.unlikely.__cxa_bad_cast
                0x0000000000011eb4       0x24 /home/olf/projects/circle/gcc-arm-9.2-2019.12-x86_64-arm-none-eabi/bin/../lib/gcc/arm-none-eabi/9.2.1/../../../../arm-none-eabi/lib/thumb/v7ve+simd/hard/libstdc++.a(eh_aux_runtime.o)
                0x0000000000011eb4                __cxa_bad_cast
 .text.unlikely.__cxa_bad_typeid
                0x0000000000011ed8       0x24 /home/olf/projects/circle/gcc-arm-9.2-2019.12-x86_64-arm-none-eabi/bin/../lib/gcc/arm-none-eabi/9.2.1/../../../../arm-none-eabi/lib/thumb/v7ve+simd/hard/libstdc++.a(eh_aux_runtime.o)
                0x0000000000011ed8                __cxa_bad_typeid
 .text.unlikely.__cxa_throw_bad_array_new_length
                0x0000000000011efc       0x24 /home/olf/projects/circle/gcc-arm-9.2-2019.12-x86_64-arm-none-eabi/bin/../lib/gcc/arm-none-eabi/9.2.1/../../../../arm-none-eabi/lib/thumb/v7ve+simd/hard/libstdc++.a(eh_aux_runtime.o)
                0x0000000000011efc                __cxa_throw_bad_array_new_length
 .text          0x0000000000011f20        0x0 /home/olf/projects/circle/gcc-arm-9.2-2019.12-x86_64-arm-none-eabi/bin/../lib/gcc/arm-none-eabi/9.2.1/../../../../arm-none-eabi/lib/thumb/v7ve+simd/hard/libstdc++.a(eh_exception.o)
 .text._ZNSt9exceptionD2Ev
                0x0000000000011f20        0x4 /home/olf/projects/circle/gcc-arm-9.2-2019.12-x86_64-arm-none-eabi/bin/../lib/gcc/arm-none-eabi/9.2.1/../../../../arm-none-eabi/lib/thumb/v7ve+simd/hard/libstdc++.a(eh_exception.o)
                0x0000000000011f20                std::exception::~exception()
                0x0000000000011f20                std::exception::~exception()
 .text._ZNSt13bad_exceptionD2Ev
                0x0000000000011f24        0x4 /home/olf/projects/circle/gcc-arm-9.2-2019.12-x86_64-arm-none-eabi/bin/../lib/gcc/arm-none-eabi/9.2.1/../../../../arm-none-eabi/lib/thumb/v7ve+simd/hard/libstdc++.a(eh_exception.o)
                0x0000000000011f24                std::bad_exception::~bad_exception()
                0x0000000000011f24                std::bad_exception::~bad_exception()
 .text._ZNKSt9exception4whatEv
                0x0000000000011f28        0xc /home/olf/projects/circle/gcc-arm-9.2-2019.12-x86_64-arm-none-eabi/bin/../lib/gcc/arm-none-eabi/9.2.1/../../../../arm-none-eabi/lib/thumb/v7ve+simd/hard/libstdc++.a(eh_exception.o)
                0x0000000000011f28                transaction clone for std::exception::what() const
                0x0000000000011f28                std::exception::what() const
 .text._ZNKSt13bad_exception4whatEv
                0x0000000000011f34        0xc /home/olf/projects/circle/gcc-arm-9.2-2019.12-x86_64-arm-none-eabi/bin/../lib/gcc/arm-none-eabi/9.2.1/../../../../arm-none-eabi/lib/thumb/v7ve+simd/hard/libstdc++.a(eh_exception.o)
                0x0000000000011f34                transaction clone for std::bad_exception::what() const
                0x0000000000011f34                std::bad_exception::what() const
 .text._ZNSt9exceptionD0Ev
                0x0000000000011f40       0x10 /home/olf/projects/circle/gcc-arm-9.2-2019.12-x86_64-arm-none-eabi/bin/../lib/gcc/arm-none-eabi/9.2.1/../../../../arm-none-eabi/lib/thumb/v7ve+simd/hard/libstdc++.a(eh_exception.o)
                0x0000000000011f40                std::exception::~exception()
 .text._ZNSt13bad_exceptionD0Ev
                0x0000000000011f50       0x10 /home/olf/projects/circle/gcc-arm-9.2-2019.12-x86_64-arm-none-eabi/bin/../lib/gcc/arm-none-eabi/9.2.1/../../../../arm-none-eabi/lib/thumb/v7ve+simd/hard/libstdc++.a(eh_exception.o)
                0x0000000000011f50                std::bad_exception::~bad_exception()
 .text._ZN10__cxxabiv115__forced_unwindD2Ev
                0x0000000000011f60        0x4 /home/olf/projects/circle/gcc-arm-9.2-2019.12-x86_64-arm-none-eabi/bin/../lib/gcc/arm-none-eabi/9.2.1/../../../../arm-none-eabi/lib/thumb/v7ve+simd/hard/libstdc++.a(eh_exception.o)
                0x0000000000011f60                __cxxabiv1::__forced_unwind::~__forced_unwind()
                0x0000000000011f60                __cxxabiv1::__forced_unwind::~__forced_unwind()
 .text._ZN10__cxxabiv115__forced_unwindD0Ev
                0x0000000000011f64       0x10 /home/olf/projects/circle/gcc-arm-9.2-2019.12-x86_64-arm-none-eabi/bin/../lib/gcc/arm-none-eabi/9.2.1/../../../../arm-none-eabi/lib/thumb/v7ve+simd/hard/libstdc++.a(eh_exception.o)
                0x0000000000011f64                __cxxabiv1::__forced_unwind::~__forced_unwind()
 .text._ZN10__cxxabiv119__foreign_exceptionD2Ev
                0x0000000000011f74        0x4 /home/olf/projects/circle/gcc-arm-9.2-2019.12-x86_64-arm-none-eabi/bin/../lib/gcc/arm-none-eabi/9.2.1/../../../../arm-none-eabi/lib/thumb/v7ve+simd/hard/libstdc++.a(eh_exception.o)
                0x0000000000011f74                __cxxabiv1::__foreign_exception::~__foreign_exception()
                0x0000000000011f74                __cxxabiv1::__foreign_exception::~__foreign_exception()
 .text._ZN10__cxxabiv119__foreign_exceptionD0Ev
                0x0000000000011f78       0x10 /home/olf/projects/circle/gcc-arm-9.2-2019.12-x86_64-arm-none-eabi/bin/../lib/gcc/arm-none-eabi/9.2.1/../../../../arm-none-eabi/lib/thumb/v7ve+simd/hard/libstdc++.a(eh_exception.o)
                0x0000000000011f78                __cxxabiv1::__foreign_exception::~__foreign_exception()
 .text._ZGTtNKSt9exceptionD1Ev
                0x0000000000011f88        0x4 /home/olf/projects/circle/gcc-arm-9.2-2019.12-x86_64-arm-none-eabi/bin/../lib/gcc/arm-none-eabi/9.2.1/../../../../arm-none-eabi/lib/thumb/v7ve+simd/hard/libstdc++.a(eh_exception.o)
                0x0000000000011f88                transaction clone for std::exception::~exception() const
 .text._ZGTtNKSt13bad_exceptionD1Ev
                0x0000000000011f8c        0x4 /home/olf/projects/circle/gcc-arm-9.2-2019.12-x86_64-arm-none-eabi/bin/../lib/gcc/arm-none-eabi/9.2.1/../../../../arm-none-eabi/lib/thumb/v7ve+simd/hard/libstdc++.a(eh_exception.o)
                0x0000000000011f8c                transaction clone for std::bad_exception::~bad_exception() const
 .text          0x0000000000011f90        0x0 /home/olf/projects/circle/gcc-arm-9.2-2019.12-x86_64-arm-none-eabi/bin/../lib/gcc/arm-none-eabi/9.2.1/../../../../arm-none-eabi/lib/thumb/v7ve+simd/hard/libstdc++.a(eh_globals.o)
 .text.__cxa_get_globals_fast
                0x0000000000011f90        0xc /home/olf/projects/circle/gcc-arm-9.2-2019.12-x86_64-arm-none-eabi/bin/../lib/gcc/arm-none-eabi/9.2.1/../../../../arm-none-eabi/lib/thumb/v7ve+simd/hard/libstdc++.a(eh_globals.o)
                0x0000000000011f90                __cxa_get_globals_fast
 .text.__cxa_get_globals
                0x0000000000011f9c        0xc /home/olf/projects/circle/gcc-arm-9.2-2019.12-x86_64-arm-none-eabi/bin/../lib/gcc/arm-none-eabi/9.2.1/../../../../arm-none-eabi/lib/thumb/v7ve+simd/hard/libstdc++.a(eh_globals.o)
                0x0000000000011f9c                __cxa_get_globals
 .text          0x0000000000011fa8        0x0 /home/olf/projects/circle/gcc-arm-9.2-2019.12-x86_64-arm-none-eabi/bin/../lib/gcc/arm-none-eabi/9.2.1/../../../../arm-none-eabi/lib/thumb/v7ve+simd/hard/libstdc++.a(eh_personality.o)
 .text._ZL28read_encoded_value_with_basehjPKhPj
                0x0000000000011fa8       0xc8 /home/olf/projects/circle/gcc-arm-9.2-2019.12-x86_64-arm-none-eabi/bin/../lib/gcc/arm-none-eabi/9.2.1/../../../../arm-none-eabi/lib/thumb/v7ve+simd/hard/libstdc++.a(eh_personality.o)
 .text._ZL21base_of_encoded_valuehP15_Unwind_Context
                0x0000000000012070       0x48 /home/olf/projects/circle/gcc-arm-9.2-2019.12-x86_64-arm-none-eabi/bin/../lib/gcc/arm-none-eabi/9.2.1/../../../../arm-none-eabi/lib/thumb/v7ve+simd/hard/libstdc++.a(eh_personality.o)
 .text._ZL17parse_lsda_headerP15_Unwind_ContextPKhP16lsda_header_info
                0x00000000000120b8       0x8c /home/olf/projects/circle/gcc-arm-9.2-2019.12-x86_64-arm-none-eabi/bin/../lib/gcc/arm-none-eabi/9.2.1/../../../../arm-none-eabi/lib/thumb/v7ve+simd/hard/libstdc++.a(eh_personality.o)
 .text.__gxx_personality_v0
                0x0000000000012144      0x4c4 /home/olf/projects/circle/gcc-arm-9.2-2019.12-x86_64-arm-none-eabi/bin/../lib/gcc/arm-none-eabi/9.2.1/../../../../arm-none-eabi/lib/thumb/v7ve+simd/hard/libstdc++.a(eh_personality.o)
                0x0000000000012144                __gxx_personality_v0
 .text          0x0000000000012608        0x0 /home/olf/projects/circle/gcc-arm-9.2-2019.12-x86_64-arm-none-eabi/bin/../lib/gcc/arm-none-eabi/9.2.1/../../../../arm-none-eabi/lib/thumb/v7ve+simd/hard/libstdc++.a(eh_terminate.o)
 .text._ZN10__cxxabiv111__terminateEPFvvE
                0x0000000000012608       0x28 /home/olf/projects/circle/gcc-arm-9.2-2019.12-x86_64-arm-none-eabi/bin/../lib/gcc/arm-none-eabi/9.2.1/../../../../arm-none-eabi/lib/thumb/v7ve+simd/hard/libstdc++.a(eh_terminate.o)
                0x0000000000012608                __cxxabiv1::__terminate(void (*)())
 .text._ZSt9terminatev
                0x0000000000012630       0x14 /home/olf/projects/circle/gcc-arm-9.2-2019.12-x86_64-arm-none-eabi/bin/../lib/gcc/arm-none-eabi/9.2.1/../../../../arm-none-eabi/lib/thumb/v7ve+simd/hard/libstdc++.a(eh_terminate.o)
                0x0000000000012630                std::terminate()
 .text._ZN10__cxxabiv112__unexpectedEPFvvE
                0x0000000000012644        0x8 /home/olf/projects/circle/gcc-arm-9.2-2019.12-x86_64-arm-none-eabi/bin/../lib/gcc/arm-none-eabi/9.2.1/../../../../arm-none-eabi/lib/thumb/v7ve+simd/hard/libstdc++.a(eh_terminate.o)
                0x0000000000012644                __cxxabiv1::__unexpected(void (*)())
 .text._ZSt10unexpectedv
                0x000000000001264c       0x14 /home/olf/projects/circle/gcc-arm-9.2-2019.12-x86_64-arm-none-eabi/bin/../lib/gcc/arm-none-eabi/9.2.1/../../../../arm-none-eabi/lib/thumb/v7ve+simd/hard/libstdc++.a(eh_terminate.o)
                0x000000000001264c                std::unexpected()
 .text._ZSt13set_terminatePFvvE
                0x0000000000012660       0x30 /home/olf/projects/circle/gcc-arm-9.2-2019.12-x86_64-arm-none-eabi/bin/../lib/gcc/arm-none-eabi/9.2.1/../../../../arm-none-eabi/lib/thumb/v7ve+simd/hard/libstdc++.a(eh_terminate.o)
                0x0000000000012660                std::set_terminate(void (*)())
 .text._ZSt13get_terminatev
                0x0000000000012690       0x10 /home/olf/projects/circle/gcc-arm-9.2-2019.12-x86_64-arm-none-eabi/bin/../lib/gcc/arm-none-eabi/9.2.1/../../../../arm-none-eabi/lib/thumb/v7ve+simd/hard/libstdc++.a(eh_terminate.o)
                0x0000000000012690                std::get_terminate()
 .text._ZSt14set_unexpectedPFvvE
                0x00000000000126a0       0x30 /home/olf/projects/circle/gcc-arm-9.2-2019.12-x86_64-arm-none-eabi/bin/../lib/gcc/arm-none-eabi/9.2.1/../../../../arm-none-eabi/lib/thumb/v7ve+simd/hard/libstdc++.a(eh_terminate.o)
                0x00000000000126a0                std::set_unexpected(void (*)())
 .text._ZSt14get_unexpectedv
                0x00000000000126d0       0x10 /home/olf/projects/circle/gcc-arm-9.2-2019.12-x86_64-arm-none-eabi/bin/../lib/gcc/arm-none-eabi/9.2.1/../../../../arm-none-eabi/lib/thumb/v7ve+simd/hard/libstdc++.a(eh_terminate.o)
                0x00000000000126d0                std::get_unexpected()
 .text          0x00000000000126e0        0x0 /home/olf/projects/circle/gcc-arm-9.2-2019.12-x86_64-arm-none-eabi/bin/../lib/gcc/arm-none-eabi/9.2.1/../../../../arm-none-eabi/lib/thumb/v7ve+simd/hard/libstdc++.a(eh_throw.o)
 .text._ZL23__gxx_exception_cleanup19_Unwind_Reason_CodeP21_Unwind_Control_Block
                0x00000000000126e0       0x44 /home/olf/projects/circle/gcc-arm-9.2-2019.12-x86_64-arm-none-eabi/bin/../lib/gcc/arm-none-eabi/9.2.1/../../../../arm-none-eabi/lib/thumb/v7ve+simd/hard/libstdc++.a(eh_throw.o)
 .text.__cxa_init_primary_exception
                0x0000000000012724       0x60 /home/olf/projects/circle/gcc-arm-9.2-2019.12-x86_64-arm-none-eabi/bin/../lib/gcc/arm-none-eabi/9.2.1/../../../../arm-none-eabi/lib/thumb/v7ve+simd/hard/libstdc++.a(eh_throw.o)
                0x0000000000012724                __cxa_init_primary_exception
 .text.__cxa_throw
                0x0000000000012784       0x38 /home/olf/projects/circle/gcc-arm-9.2-2019.12-x86_64-arm-none-eabi/bin/../lib/gcc/arm-none-eabi/9.2.1/../../../../arm-none-eabi/lib/thumb/v7ve+simd/hard/libstdc++.a(eh_throw.o)
                0x0000000000012784                __cxa_throw
 .text.__cxa_rethrow
                0x00000000000127bc       0x70 /home/olf/projects/circle/gcc-arm-9.2-2019.12-x86_64-arm-none-eabi/bin/../lib/gcc/arm-none-eabi/9.2.1/../../../../arm-none-eabi/lib/thumb/v7ve+simd/hard/libstdc++.a(eh_throw.o)
                0x00000000000127bc                __cxa_rethrow
 .text          0x000000000001282c        0x0 /home/olf/projects/circle/gcc-arm-9.2-2019.12-x86_64-arm-none-eabi/bin/../lib/gcc/arm-none-eabi/9.2.1/../../../../arm-none-eabi/lib/thumb/v7ve+simd/hard/libstdc++.a(eh_unex_handler.o)
 .text          0x000000000001282c        0x0 /home/olf/projects/circle/gcc-arm-9.2-2019.12-x86_64-arm-none-eabi/bin/../lib/gcc/arm-none-eabi/9.2.1/../../../../arm-none-eabi/lib/thumb/v7ve+simd/hard/libstdc++.a(new_op.o)
 .text._Znwj    0x000000000001282c       0x40 /home/olf/projects/circle/gcc-arm-9.2-2019.12-x86_64-arm-none-eabi/bin/../lib/gcc/arm-none-eabi/9.2.1/../../../../arm-none-eabi/lib/thumb/v7ve+simd/hard/libstdc++.a(new_op.o)
                0x000000000001282c                operator new(unsigned int)
 .text          0x000000000001286c        0x0 /home/olf/projects/circle/gcc-arm-9.2-2019.12-x86_64-arm-none-eabi/bin/../lib/gcc/arm-none-eabi/9.2.1/../../../../arm-none-eabi/lib/thumb/v7ve+simd/hard/libstdc++.a(new_opv.o)
 .text._Znaj    0x000000000001286c        0x4 /home/olf/projects/circle/gcc-arm-9.2-2019.12-x86_64-arm-none-eabi/bin/../lib/gcc/arm-none-eabi/9.2.1/../../../../arm-none-eabi/lib/thumb/v7ve+simd/hard/libstdc++.a(new_opv.o)
                0x000000000001286c                operator new[](unsigned int)
 .text          0x0000000000012870        0x0 /home/olf/projects/circle/gcc-arm-9.2-2019.12-x86_64-arm-none-eabi/bin/../lib/gcc/arm-none-eabi/9.2.1/../../../../arm-none-eabi/lib/thumb/v7ve+simd/hard/libstdc++.a(pure.o)
 .text.__cxa_pure_virtual
                0x0000000000012870       0x18 /home/olf/projects/circle/gcc-arm-9.2-2019.12-x86_64-arm-none-eabi/bin/../lib/gcc/arm-none-eabi/9.2.1/../../../../arm-none-eabi/lib/thumb/v7ve+simd/hard/libstdc++.a(pure.o)
                0x0000000000012870                __cxa_pure_virtual
 .text.__cxa_deleted_virtual
                0x0000000000012888       0x18 /home/olf/projects/circle/gcc-arm-9.2-2019.12-x86_64-arm-none-eabi/bin/../lib/gcc/arm-none-eabi/9.2.1/../../../../arm-none-eabi/lib/thumb/v7ve+simd/hard/libstdc++.a(pure.o)
                0x0000000000012888                __cxa_deleted_virtual
 .text          0x00000000000128a0        0x0 /home/olf/projects/circle/gcc-arm-9.2-2019.12-x86_64-arm-none-eabi/bin/../lib/gcc/arm-none-eabi/9.2.1/../../../../arm-none-eabi/lib/thumb/v7ve+simd/hard/libstdc++.a(si_class_type_info.o)
 .text._ZN10__cxxabiv120__si_class_type_infoD2Ev
                0x00000000000128a0       0x14 /home/olf/projects/circle/gcc-arm-9.2-2019.12-x86_64-arm-none-eabi/bin/../lib/gcc/arm-none-eabi/9.2.1/../../../../arm-none-eabi/lib/thumb/v7ve+simd/hard/libstdc++.a(si_class_type_info.o)
                0x00000000000128a0                __cxxabiv1::__si_class_type_info::~__si_class_type_info()
                0x00000000000128a0                __cxxabiv1::__si_class_type_info::~__si_class_type_info()
 .text._ZN10__cxxabiv120__si_class_type_infoD0Ev
                0x00000000000128b4       0x1c /home/olf/projects/circle/gcc-arm-9.2-2019.12-x86_64-arm-none-eabi/bin/../lib/gcc/arm-none-eabi/9.2.1/../../../../arm-none-eabi/lib/thumb/v7ve+simd/hard/libstdc++.a(si_class_type_info.o)
                0x00000000000128b4                __cxxabiv1::__si_class_type_info::~__si_class_type_info()
 .text._ZNK10__cxxabiv120__si_class_type_info20__do_find_public_srcEiPKvPKNS_17__class_type_infoES2_
                0x00000000000128d0       0x3c /home/olf/projects/circle/gcc-arm-9.2-2019.12-x86_64-arm-none-eabi/bin/../lib/gcc/arm-none-eabi/9.2.1/../../../../arm-none-eabi/lib/thumb/v7ve+simd/hard/libstdc++.a(si_class_type_info.o)
                0x00000000000128d0                __cxxabiv1::__si_class_type_info::__do_find_public_src(int, void const*, __cxxabiv1::__class_type_info const*, void const*) const
 .text._ZNK10__cxxabiv120__si_class_type_info12__do_dyncastEiNS_17__class_type_info10__sub_kindEPKS1_PKvS4_S6_RNS1_16__dyncast_resultE
                0x000000000001290c       0x8c /home/olf/projects/circle/gcc-arm-9.2-2019.12-x86_64-arm-none-eabi/bin/../lib/gcc/arm-none-eabi/9.2.1/../../../../arm-none-eabi/lib/thumb/v7ve+simd/hard/libstdc++.a(si_class_type_info.o)
                0x000000000001290c                __cxxabiv1::__si_class_type_info::__do_dyncast(int, __cxxabiv1::__class_type_info::__sub_kind, __cxxabiv1::__class_type_info const*, void const*, __cxxabiv1::__class_type_info const*, void const*, __cxxabiv1::__class_type_info::__dyncast_result&) const
 .text._ZNK10__cxxabiv120__si_class_type_info11__do_upcastEPKNS_17__class_type_infoEPKvRNS1_15__upcast_resultE
                0x0000000000012998       0x2c /home/olf/projects/circle/gcc-arm-9.2-2019.12-x86_64-arm-none-eabi/bin/../lib/gcc/arm-none-eabi/9.2.1/../../../../arm-none-eabi/lib/thumb/v7ve+simd/hard/libstdc++.a(si_class_type_info.o)
                0x0000000000012998                __cxxabiv1::__si_class_type_info::__do_upcast(__cxxabiv1::__class_type_info const*, void const*, __cxxabiv1::__class_type_info::__upcast_result&) const
 .text          0x00000000000129c4        0x0 /home/olf/projects/circle/gcc-arm-9.2-2019.12-x86_64-arm-none-eabi/bin/../lib/gcc/arm-none-eabi/9.2.1/../../../../arm-none-eabi/lib/thumb/v7ve+simd/hard/libstdc++.a(tinfo.o)
 .text._ZNSt9type_infoD2Ev
                0x00000000000129c4        0x4 /home/olf/projects/circle/gcc-arm-9.2-2019.12-x86_64-arm-none-eabi/bin/../lib/gcc/arm-none-eabi/9.2.1/../../../../arm-none-eabi/lib/thumb/v7ve+simd/hard/libstdc++.a(tinfo.o)
                0x00000000000129c4                std::type_info::~type_info()
                0x00000000000129c4                std::type_info::~type_info()
 .text._ZNKSt9type_info14__is_pointer_pEv
                0x00000000000129c8        0x4 /home/olf/projects/circle/gcc-arm-9.2-2019.12-x86_64-arm-none-eabi/bin/../lib/gcc/arm-none-eabi/9.2.1/../../../../arm-none-eabi/lib/thumb/v7ve+simd/hard/libstdc++.a(tinfo.o)
                0x00000000000129c8                std::type_info::__is_function_p() const
                0x00000000000129c8                std::type_info::__is_pointer_p() const
 .text._ZNKSt9type_info11__do_upcastEPKN10__cxxabiv117__class_type_infoEPPv
                0x00000000000129cc        0x4 /home/olf/projects/circle/gcc-arm-9.2-2019.12-x86_64-arm-none-eabi/bin/../lib/gcc/arm-none-eabi/9.2.1/../../../../arm-none-eabi/lib/thumb/v7ve+simd/hard/libstdc++.a(tinfo.o)
                0x00000000000129cc                std::type_info::__do_upcast(__cxxabiv1::__class_type_info const*, void**) const
 .text._ZNSt9type_infoD0Ev
                0x00000000000129d0       0x10 /home/olf/projects/circle/gcc-arm-9.2-2019.12-x86_64-arm-none-eabi/bin/../lib/gcc/arm-none-eabi/9.2.1/../../../../arm-none-eabi/lib/thumb/v7ve+simd/hard/libstdc++.a(tinfo.o)
                0x00000000000129d0                std::type_info::~type_info()
 .text._ZNKSt9type_infoeqERKS_
                0x00000000000129e0       0x2c /home/olf/projects/circle/gcc-arm-9.2-2019.12-x86_64-arm-none-eabi/bin/../lib/gcc/arm-none-eabi/9.2.1/../../../../arm-none-eabi/lib/thumb/v7ve+simd/hard/libstdc++.a(tinfo.o)
                0x00000000000129e0                std::type_info::operator==(std::type_info const&) const
 .text._ZNKSt9type_info10__do_catchEPKS_PPvj
                0x0000000000012a0c        0x4 /home/olf/projects/circle/gcc-arm-9.2-2019.12-x86_64-arm-none-eabi/bin/../lib/gcc/arm-none-eabi/9.2.1/../../../../arm-none-eabi/lib/thumb/v7ve+simd/hard/libstdc++.a(tinfo.o)
                0x0000000000012a0c                std::type_info::__do_catch(std::type_info const*, void**, unsigned int) const
 .text          0x0000000000012a10        0x0 /home/olf/projects/circle/gcc-arm-9.2-2019.12-x86_64-arm-none-eabi/bin/../lib/gcc/arm-none-eabi/9.2.1/../../../../arm-none-eabi/lib/thumb/v7ve+simd/hard/libstdc++.a(vterminate.o)
 .text._ZN9__gnu_cxx27__verbose_terminate_handlerEv
                0x0000000000012a10      0x128 /home/olf/projects/circle/gcc-arm-9.2-2019.12-x86_64-arm-none-eabi/bin/../lib/gcc/arm-none-eabi/9.2.1/../../../../arm-none-eabi/lib/thumb/v7ve+simd/hard/libstdc++.a(vterminate.o)
                0x0000000000012a10                __gnu_cxx::__verbose_terminate_handler()
 .text          0x0000000000012b38        0x0 /home/olf/projects/circle/gcc-arm-9.2-2019.12-x86_64-arm-none-eabi/bin/../lib/gcc/arm-none-eabi/9.2.1/../../../../arm-none-eabi/lib/thumb/v7ve+simd/hard/libstdc++.a(bad_alloc.o)
 .text._ZNKSt9bad_alloc4whatEv
                0x0000000000012b38        0xc /home/olf/projects/circle/gcc-arm-9.2-2019.12-x86_64-arm-none-eabi/bin/../lib/gcc/arm-none-eabi/9.2.1/../../../../arm-none-eabi/lib/thumb/v7ve+simd/hard/libstdc++.a(bad_alloc.o)
                0x0000000000012b38                std::bad_alloc::what() const
 .text._ZNSt9bad_allocD2Ev
                0x0000000000012b44       0x14 /home/olf/projects/circle/gcc-arm-9.2-2019.12-x86_64-arm-none-eabi/bin/../lib/gcc/arm-none-eabi/9.2.1/../../../../arm-none-eabi/lib/thumb/v7ve+simd/hard/libstdc++.a(bad_alloc.o)
                0x0000000000012b44                std::bad_alloc::~bad_alloc()
                0x0000000000012b44                std::bad_alloc::~bad_alloc()
 .text._ZNSt9bad_allocD0Ev
                0x0000000000012b58       0x1c /home/olf/projects/circle/gcc-arm-9.2-2019.12-x86_64-arm-none-eabi/bin/../lib/gcc/arm-none-eabi/9.2.1/../../../../arm-none-eabi/lib/thumb/v7ve+simd/hard/libstdc++.a(bad_alloc.o)
                0x0000000000012b58                std::bad_alloc::~bad_alloc()
 .text          0x0000000000012b74        0x0 /home/olf/projects/circle/gcc-arm-9.2-2019.12-x86_64-arm-none-eabi/bin/../lib/gcc/arm-none-eabi/9.2.1/../../../../arm-none-eabi/lib/thumb/v7ve+simd/hard/libstdc++.a(bad_array_new.o)
 .text._ZNKSt20bad_array_new_length4whatEv
                0x0000000000012b74        0xc /home/olf/projects/circle/gcc-arm-9.2-2019.12-x86_64-arm-none-eabi/bin/../lib/gcc/arm-none-eabi/9.2.1/../../../../arm-none-eabi/lib/thumb/v7ve+simd/hard/libstdc++.a(bad_array_new.o)
                0x0000000000012b74                std::bad_array_new_length::what() const
 .text._ZNSt20bad_array_new_lengthD2Ev
                0x0000000000012b80       0x14 /home/olf/projects/circle/gcc-arm-9.2-2019.12-x86_64-arm-none-eabi/bin/../lib/gcc/arm-none-eabi/9.2.1/../../../../arm-none-eabi/lib/thumb/v7ve+simd/hard/libstdc++.a(bad_array_new.o)
                0x0000000000012b80                std::bad_array_new_length::~bad_array_new_length()
                0x0000000000012b80                std::bad_array_new_length::~bad_array_new_length()
 .text._ZNSt20bad_array_new_lengthD0Ev
                0x0000000000012b94       0x1c /home/olf/projects/circle/gcc-arm-9.2-2019.12-x86_64-arm-none-eabi/bin/../lib/gcc/arm-none-eabi/9.2.1/../../../../arm-none-eabi/lib/thumb/v7ve+simd/hard/libstdc++.a(bad_array_new.o)
                0x0000000000012b94                std::bad_array_new_length::~bad_array_new_length()
 .text          0x0000000000012bb0        0x0 /home/olf/projects/circle/gcc-arm-9.2-2019.12-x86_64-arm-none-eabi/bin/../lib/gcc/arm-none-eabi/9.2.1/../../../../arm-none-eabi/lib/thumb/v7ve+simd/hard/libstdc++.a(bad_cast.o)
 .text._ZNKSt8bad_cast4whatEv
                0x0000000000012bb0        0xc /home/olf/projects/circle/gcc-arm-9.2-2019.12-x86_64-arm-none-eabi/bin/../lib/gcc/arm-none-eabi/9.2.1/../../../../arm-none-eabi/lib/thumb/v7ve+simd/hard/libstdc++.a(bad_cast.o)
                0x0000000000012bb0                std::bad_cast::what() const
 .text._ZNSt8bad_castD2Ev
                0x0000000000012bbc       0x14 /home/olf/projects/circle/gcc-arm-9.2-2019.12-x86_64-arm-none-eabi/bin/../lib/gcc/arm-none-eabi/9.2.1/../../../../arm-none-eabi/lib/thumb/v7ve+simd/hard/libstdc++.a(bad_cast.o)
                0x0000000000012bbc                std::bad_cast::~bad_cast()
                0x0000000000012bbc                std::bad_cast::~bad_cast()
 .text._ZNSt8bad_castD0Ev
                0x0000000000012bd0       0x1c /home/olf/projects/circle/gcc-arm-9.2-2019.12-x86_64-arm-none-eabi/bin/../lib/gcc/arm-none-eabi/9.2.1/../../../../arm-none-eabi/lib/thumb/v7ve+simd/hard/libstdc++.a(bad_cast.o)
                0x0000000000012bd0                std::bad_cast::~bad_cast()
 .text          0x0000000000012bec        0x0 /home/olf/projects/circle/gcc-arm-9.2-2019.12-x86_64-arm-none-eabi/bin/../lib/gcc/arm-none-eabi/9.2.1/../../../../arm-none-eabi/lib/thumb/v7ve+simd/hard/libstdc++.a(bad_typeid.o)
 .text._ZNKSt10bad_typeid4whatEv
                0x0000000000012bec        0xc /home/olf/projects/circle/gcc-arm-9.2-2019.12-x86_64-arm-none-eabi/bin/../lib/gcc/arm-none-eabi/9.2.1/../../../../arm-none-eabi/lib/thumb/v7ve+simd/hard/libstdc++.a(bad_typeid.o)
                0x0000000000012bec                std::bad_typeid::what() const
 .text._ZNSt10bad_typeidD2Ev
                0x0000000000012bf8       0x14 /home/olf/projects/circle/gcc-arm-9.2-2019.12-x86_64-arm-none-eabi/bin/../lib/gcc/arm-none-eabi/9.2.1/../../../../arm-none-eabi/lib/thumb/v7ve+simd/hard/libstdc++.a(bad_typeid.o)
                0x0000000000012bf8                std::bad_typeid::~bad_typeid()
                0x0000000000012bf8                std::bad_typeid::~bad_typeid()
 .text._ZNSt10bad_typeidD0Ev
                0x0000000000012c0c       0x1c /home/olf/projects/circle/gcc-arm-9.2-2019.12-x86_64-arm-none-eabi/bin/../lib/gcc/arm-none-eabi/9.2.1/../../../../arm-none-eabi/lib/thumb/v7ve+simd/hard/libstdc++.a(bad_typeid.o)
                0x0000000000012c0c                std::bad_typeid::~bad_typeid()
 .text          0x0000000000012c28        0x0 /home/olf/projects/circle/gcc-arm-9.2-2019.12-x86_64-arm-none-eabi/bin/../lib/gcc/arm-none-eabi/9.2.1/../../../../arm-none-eabi/lib/thumb/v7ve+simd/hard/libstdc++.a(cp-demangle.o)
 .text.d_make_comp
                0x0000000000012c28       0x98 /home/olf/projects/circle/gcc-arm-9.2-2019.12-x86_64-arm-none-eabi/bin/../lib/gcc/arm-none-eabi/9.2.1/../../../../arm-none-eabi/lib/thumb/v7ve+simd/hard/libstdc++.a(cp-demangle.o)
 .text.d_ref_qualifier
                0x0000000000012cc0       0x38 /home/olf/projects/circle/gcc-arm-9.2-2019.12-x86_64-arm-none-eabi/bin/../lib/gcc/arm-none-eabi/9.2.1/../../../../arm-none-eabi/lib/thumb/v7ve+simd/hard/libstdc++.a(cp-demangle.o)
 .text.d_count_templates_scopes
                0x0000000000012cf8       0xd0 /home/olf/projects/circle/gcc-arm-9.2-2019.12-x86_64-arm-none-eabi/bin/../lib/gcc/arm-none-eabi/9.2.1/../../../../arm-none-eabi/lib/thumb/v7ve+simd/hard/libstdc++.a(cp-demangle.o)
 .text.d_append_buffer
                0x0000000000012dc8       0x58 /home/olf/projects/circle/gcc-arm-9.2-2019.12-x86_64-arm-none-eabi/bin/../lib/gcc/arm-none-eabi/9.2.1/../../../../arm-none-eabi/lib/thumb/v7ve+simd/hard/libstdc++.a(cp-demangle.o)
 .text.d_number.isra.0
                0x0000000000012e20       0x84 /home/olf/projects/circle/gcc-arm-9.2-2019.12-x86_64-arm-none-eabi/bin/../lib/gcc/arm-none-eabi/9.2.1/../../../../arm-none-eabi/lib/thumb/v7ve+simd/hard/libstdc++.a(cp-demangle.o)
 .text.d_number_component
                0x0000000000012ea4       0x30 /home/olf/projects/circle/gcc-arm-9.2-2019.12-x86_64-arm-none-eabi/bin/../lib/gcc/arm-none-eabi/9.2.1/../../../../arm-none-eabi/lib/thumb/v7ve+simd/hard/libstdc++.a(cp-demangle.o)
 .text.d_compact_number
                0x0000000000012ed4       0x34 /home/olf/projects/circle/gcc-arm-9.2-2019.12-x86_64-arm-none-eabi/bin/../lib/gcc/arm-none-eabi/9.2.1/../../../../arm-none-eabi/lib/thumb/v7ve+simd/hard/libstdc++.a(cp-demangle.o)
 .text.d_template_param
                0x0000000000012f08       0x3c /home/olf/projects/circle/gcc-arm-9.2-2019.12-x86_64-arm-none-eabi/bin/../lib/gcc/arm-none-eabi/9.2.1/../../../../arm-none-eabi/lib/thumb/v7ve+simd/hard/libstdc++.a(cp-demangle.o)
 .text.d_source_name
                0x0000000000012f44       0xdc /home/olf/projects/circle/gcc-arm-9.2-2019.12-x86_64-arm-none-eabi/bin/../lib/gcc/arm-none-eabi/9.2.1/../../../../arm-none-eabi/lib/thumb/v7ve+simd/hard/libstdc++.a(cp-demangle.o)
 .text.d_abi_tags
                0x0000000000013020       0x38 /home/olf/projects/circle/gcc-arm-9.2-2019.12-x86_64-arm-none-eabi/bin/../lib/gcc/arm-none-eabi/9.2.1/../../../../arm-none-eabi/lib/thumb/v7ve+simd/hard/libstdc++.a(cp-demangle.o)
 .text.d_substitution
                0x0000000000013058      0x170 /home/olf/projects/circle/gcc-arm-9.2-2019.12-x86_64-arm-none-eabi/bin/../lib/gcc/arm-none-eabi/9.2.1/../../../../arm-none-eabi/lib/thumb/v7ve+simd/hard/libstdc++.a(cp-demangle.o)
 .text.d_call_offset
                0x00000000000131c8       0x54 /home/olf/projects/circle/gcc-arm-9.2-2019.12-x86_64-arm-none-eabi/bin/../lib/gcc/arm-none-eabi/9.2.1/../../../../arm-none-eabi/lib/thumb/v7ve+simd/hard/libstdc++.a(cp-demangle.o)
 .text.next_is_type_qual.isra.0
                0x000000000001321c       0x3c /home/olf/projects/circle/gcc-arm-9.2-2019.12-x86_64-arm-none-eabi/bin/../lib/gcc/arm-none-eabi/9.2.1/../../../../arm-none-eabi/lib/thumb/v7ve+simd/hard/libstdc++.a(cp-demangle.o)
 .text.d_discriminator
                0x0000000000013258       0x50 /home/olf/projects/circle/gcc-arm-9.2-2019.12-x86_64-arm-none-eabi/bin/../lib/gcc/arm-none-eabi/9.2.1/../../../../arm-none-eabi/lib/thumb/v7ve+simd/hard/libstdc++.a(cp-demangle.o)
 .text.d_index_template_argument.part.0
                0x00000000000132a8       0x24 /home/olf/projects/circle/gcc-arm-9.2-2019.12-x86_64-arm-none-eabi/bin/../lib/gcc/arm-none-eabi/9.2.1/../../../../arm-none-eabi/lib/thumb/v7ve+simd/hard/libstdc++.a(cp-demangle.o)
 .text.d_lookup_template_argument.isra.0
                0x00000000000132cc       0x20 /home/olf/projects/circle/gcc-arm-9.2-2019.12-x86_64-arm-none-eabi/bin/../lib/gcc/arm-none-eabi/9.2.1/../../../../arm-none-eabi/lib/thumb/v7ve+simd/hard/libstdc++.a(cp-demangle.o)
 .text.d_find_pack
                0x00000000000132ec       0x90 /home/olf/projects/circle/gcc-arm-9.2-2019.12-x86_64-arm-none-eabi/bin/../lib/gcc/arm-none-eabi/9.2.1/../../../../arm-none-eabi/lib/thumb/v7ve+simd/hard/libstdc++.a(cp-demangle.o)
 .text.d_growable_string_callback_adapter
                0x000000000001337c       0x78 /home/olf/projects/circle/gcc-arm-9.2-2019.12-x86_64-arm-none-eabi/bin/../lib/gcc/arm-none-eabi/9.2.1/../../../../arm-none-eabi/lib/thumb/v7ve+simd/hard/libstdc++.a(cp-demangle.o)
 .text.d_exprlist
                0x00000000000133f4      0x4e4 /home/olf/projects/circle/gcc-arm-9.2-2019.12-x86_64-arm-none-eabi/bin/../lib/gcc/arm-none-eabi/9.2.1/../../../../arm-none-eabi/lib/thumb/v7ve+simd/hard/libstdc++.a(cp-demangle.o)
 .text.d_expression_1
                0x00000000000138d8      0x410 /home/olf/projects/circle/gcc-arm-9.2-2019.12-x86_64-arm-none-eabi/bin/../lib/gcc/arm-none-eabi/9.2.1/../../../../arm-none-eabi/lib/thumb/v7ve+simd/hard/libstdc++.a(cp-demangle.o)
 .text.d_template_arg
                0x0000000000013ce8       0x54 /home/olf/projects/circle/gcc-arm-9.2-2019.12-x86_64-arm-none-eabi/bin/../lib/gcc/arm-none-eabi/9.2.1/../../../../arm-none-eabi/lib/thumb/v7ve+simd/hard/libstdc++.a(cp-demangle.o)
 .text.d_template_args_1
                0x0000000000013d3c       0x68 /home/olf/projects/circle/gcc-arm-9.2-2019.12-x86_64-arm-none-eabi/bin/../lib/gcc/arm-none-eabi/9.2.1/../../../../arm-none-eabi/lib/thumb/v7ve+simd/hard/libstdc++.a(cp-demangle.o)
 .text.d_template_args
                0x0000000000013da4       0x18 /home/olf/projects/circle/gcc-arm-9.2-2019.12-x86_64-arm-none-eabi/bin/../lib/gcc/arm-none-eabi/9.2.1/../../../../arm-none-eabi/lib/thumb/v7ve+simd/hard/libstdc++.a(cp-demangle.o)
 .text.d_encoding
                0x0000000000013dbc      0x598 /home/olf/projects/circle/gcc-arm-9.2-2019.12-x86_64-arm-none-eabi/bin/../lib/gcc/arm-none-eabi/9.2.1/../../../../arm-none-eabi/lib/thumb/v7ve+simd/hard/libstdc++.a(cp-demangle.o)
 .text.d_name   0x0000000000014354      0x378 /home/olf/projects/circle/gcc-arm-9.2-2019.12-x86_64-arm-none-eabi/bin/../lib/gcc/arm-none-eabi/9.2.1/../../../../arm-none-eabi/lib/thumb/v7ve+simd/hard/libstdc++.a(cp-demangle.o)
 .text.d_type   0x00000000000146cc      0x7e4 /home/olf/projects/circle/gcc-arm-9.2-2019.12-x86_64-arm-none-eabi/bin/../lib/gcc/arm-none-eabi/9.2.1/../../../../arm-none-eabi/lib/thumb/v7ve+simd/hard/libstdc++.a(cp-demangle.o)
 .text.d_operator_name
                0x0000000000014eb0       0xf8 /home/olf/projects/circle/gcc-arm-9.2-2019.12-x86_64-arm-none-eabi/bin/../lib/gcc/arm-none-eabi/9.2.1/../../../../arm-none-eabi/lib/thumb/v7ve+simd/hard/libstdc++.a(cp-demangle.o)
 .text.d_parmlist
                0x0000000000014fa8       0xa0 /home/olf/projects/circle/gcc-arm-9.2-2019.12-x86_64-arm-none-eabi/bin/../lib/gcc/arm-none-eabi/9.2.1/../../../../arm-none-eabi/lib/thumb/v7ve+simd/hard/libstdc++.a(cp-demangle.o)
 .text.d_cv_qualifiers
                0x0000000000015048      0x16c /home/olf/projects/circle/gcc-arm-9.2-2019.12-x86_64-arm-none-eabi/bin/../lib/gcc/arm-none-eabi/9.2.1/../../../../arm-none-eabi/lib/thumb/v7ve+simd/hard/libstdc++.a(cp-demangle.o)
 .text.d_bare_function_type
                0x00000000000151b4       0x48 /home/olf/projects/circle/gcc-arm-9.2-2019.12-x86_64-arm-none-eabi/bin/../lib/gcc/arm-none-eabi/9.2.1/../../../../arm-none-eabi/lib/thumb/v7ve+simd/hard/libstdc++.a(cp-demangle.o)
 .text.d_function_type
                0x00000000000151fc       0x6c /home/olf/projects/circle/gcc-arm-9.2-2019.12-x86_64-arm-none-eabi/bin/../lib/gcc/arm-none-eabi/9.2.1/../../../../arm-none-eabi/lib/thumb/v7ve+simd/hard/libstdc++.a(cp-demangle.o)
 .text.d_unqualified_name
                0x0000000000015268      0x2a8 /home/olf/projects/circle/gcc-arm-9.2-2019.12-x86_64-arm-none-eabi/bin/../lib/gcc/arm-none-eabi/9.2.1/../../../../arm-none-eabi/lib/thumb/v7ve+simd/hard/libstdc++.a(cp-demangle.o)
 .text.d_expr_primary
                0x0000000000015510       0xdc /home/olf/projects/circle/gcc-arm-9.2-2019.12-x86_64-arm-none-eabi/bin/../lib/gcc/arm-none-eabi/9.2.1/../../../../arm-none-eabi/lib/thumb/v7ve+simd/hard/libstdc++.a(cp-demangle.o)
 .text.d_print_comp
                0x00000000000155ec     0x326c /home/olf/projects/circle/gcc-arm-9.2-2019.12-x86_64-arm-none-eabi/bin/../lib/gcc/arm-none-eabi/9.2.1/../../../../arm-none-eabi/lib/thumb/v7ve+simd/hard/libstdc++.a(cp-demangle.o)
 .text.d_print_mod
                0x0000000000018858      0x680 /home/olf/projects/circle/gcc-arm-9.2-2019.12-x86_64-arm-none-eabi/bin/../lib/gcc/arm-none-eabi/9.2.1/../../../../arm-none-eabi/lib/thumb/v7ve+simd/hard/libstdc++.a(cp-demangle.o)
 .text.d_print_function_type.isra.0
                0x0000000000018ed8      0x1ec /home/olf/projects/circle/gcc-arm-9.2-2019.12-x86_64-arm-none-eabi/bin/../lib/gcc/arm-none-eabi/9.2.1/../../../../arm-none-eabi/lib/thumb/v7ve+simd/hard/libstdc++.a(cp-demangle.o)
 .text.d_print_mod_list
                0x00000000000190c4      0x2a0 /home/olf/projects/circle/gcc-arm-9.2-2019.12-x86_64-arm-none-eabi/bin/../lib/gcc/arm-none-eabi/9.2.1/../../../../arm-none-eabi/lib/thumb/v7ve+simd/hard/libstdc++.a(cp-demangle.o)
 .text.d_print_array_type.isra.0
                0x0000000000019364      0x1bc /home/olf/projects/circle/gcc-arm-9.2-2019.12-x86_64-arm-none-eabi/bin/../lib/gcc/arm-none-eabi/9.2.1/../../../../arm-none-eabi/lib/thumb/v7ve+simd/hard/libstdc++.a(cp-demangle.o)
 .text.d_print_expr_op
                0x0000000000019520       0x68 /home/olf/projects/circle/gcc-arm-9.2-2019.12-x86_64-arm-none-eabi/bin/../lib/gcc/arm-none-eabi/9.2.1/../../../../arm-none-eabi/lib/thumb/v7ve+simd/hard/libstdc++.a(cp-demangle.o)
 .text.d_print_subexpr
                0x0000000000019588       0xa0 /home/olf/projects/circle/gcc-arm-9.2-2019.12-x86_64-arm-none-eabi/bin/../lib/gcc/arm-none-eabi/9.2.1/../../../../arm-none-eabi/lib/thumb/v7ve+simd/hard/libstdc++.a(cp-demangle.o)
 .text.d_maybe_print_fold_expression.isra.0
                0x0000000000019628      0x25c /home/olf/projects/circle/gcc-arm-9.2-2019.12-x86_64-arm-none-eabi/bin/../lib/gcc/arm-none-eabi/9.2.1/../../../../arm-none-eabi/lib/thumb/v7ve+simd/hard/libstdc++.a(cp-demangle.o)
 .text.d_demangle_callback.constprop.0
                0x0000000000019884      0x344 /home/olf/projects/circle/gcc-arm-9.2-2019.12-x86_64-arm-none-eabi/bin/../lib/gcc/arm-none-eabi/9.2.1/../../../../arm-none-eabi/lib/thumb/v7ve+simd/hard/libstdc++.a(cp-demangle.o)
 .text.__cxa_demangle
                0x0000000000019bc8       0xd4 /home/olf/projects/circle/gcc-arm-9.2-2019.12-x86_64-arm-none-eabi/bin/../lib/gcc/arm-none-eabi/9.2.1/../../../../arm-none-eabi/lib/thumb/v7ve+simd/hard/libstdc++.a(cp-demangle.o)
                0x0000000000019bc8                __cxa_demangle
 .text.__gcclibcxx_demangle_callback
                0x0000000000019c9c       0x20 /home/olf/projects/circle/gcc-arm-9.2-2019.12-x86_64-arm-none-eabi/bin/../lib/gcc/arm-none-eabi/9.2.1/../../../../arm-none-eabi/lib/thumb/v7ve+simd/hard/libstdc++.a(cp-demangle.o)
                0x0000000000019c9c                __gcclibcxx_demangle_callback
 .text          0x0000000000019cbc        0x0 /home/olf/projects/circle/gcc-arm-9.2-2019.12-x86_64-arm-none-eabi/bin/../lib/gcc/arm-none-eabi/9.2.1/../../../../arm-none-eabi/lib/thumb/v7ve+simd/hard/libstdc++.a(del_op.o)
 .text._ZdlPv   0x0000000000019cbc        0x4 /home/olf/projects/circle/gcc-arm-9.2-2019.12-x86_64-arm-none-eabi/bin/../lib/gcc/arm-none-eabi/9.2.1/../../../../arm-none-eabi/lib/thumb/v7ve+simd/hard/libstdc++.a(del_op.o)
                0x0000000000019cbc                operator delete(void*)
 .text          0x0000000000019cc0        0x0 /home/olf/projects/circle/gcc-arm-9.2-2019.12-x86_64-arm-none-eabi/bin/../lib/gcc/arm-none-eabi/9.2.1/../../../../arm-none-eabi/lib/thumb/v7ve+simd/hard/libstdc++.a(eh_alloc.o)
 .text._ZN12_GLOBAL__N_14pool4freeEPv.constprop.0
                0x0000000000019cc0       0x7c /home/olf/projects/circle/gcc-arm-9.2-2019.12-x86_64-arm-none-eabi/bin/../lib/gcc/arm-none-eabi/9.2.1/../../../../arm-none-eabi/lib/thumb/v7ve+simd/hard/libstdc++.a(eh_alloc.o)
 .text._ZN12_GLOBAL__N_14pool8allocateEj.constprop.0
                0x0000000000019d3c       0x54 /home/olf/projects/circle/gcc-arm-9.2-2019.12-x86_64-arm-none-eabi/bin/../lib/gcc/arm-none-eabi/9.2.1/../../../../arm-none-eabi/lib/thumb/v7ve+simd/hard/libstdc++.a(eh_alloc.o)
 .text._ZN9__gnu_cxx9__freeresEv
                0x0000000000019d90       0x18 /home/olf/projects/circle/gcc-arm-9.2-2019.12-x86_64-arm-none-eabi/bin/../lib/gcc/arm-none-eabi/9.2.1/../../../../arm-none-eabi/lib/thumb/v7ve+simd/hard/libstdc++.a(eh_alloc.o)
                0x0000000000019d90                __gnu_cxx::__freeres()
 .text.__cxa_allocate_exception
                0x0000000000019da8       0x30 /home/olf/projects/circle/gcc-arm-9.2-2019.12-x86_64-arm-none-eabi/bin/../lib/gcc/arm-none-eabi/9.2.1/../../../../arm-none-eabi/lib/thumb/v7ve+simd/hard/libstdc++.a(eh_alloc.o)
                0x0000000000019da8                __cxa_allocate_exception
 .text.__cxa_free_exception
                0x0000000000019dd8       0x20 /home/olf/projects/circle/gcc-arm-9.2-2019.12-x86_64-arm-none-eabi/bin/../lib/gcc/arm-none-eabi/9.2.1/../../../../arm-none-eabi/lib/thumb/v7ve+simd/hard/libstdc++.a(eh_alloc.o)
                0x0000000000019dd8                __cxa_free_exception
 .text.__cxa_allocate_dependent_exception
                0x0000000000019df8       0x28 /home/olf/projects/circle/gcc-arm-9.2-2019.12-x86_64-arm-none-eabi/bin/../lib/gcc/arm-none-eabi/9.2.1/../../../../arm-none-eabi/lib/thumb/v7ve+simd/hard/libstdc++.a(eh_alloc.o)
                0x0000000000019df8                __cxa_allocate_dependent_exception
 .text.__cxa_free_dependent_exception
                0x0000000000019e20       0x24 /home/olf/projects/circle/gcc-arm-9.2-2019.12-x86_64-arm-none-eabi/bin/../lib/gcc/arm-none-eabi/9.2.1/../../../../arm-none-eabi/lib/thumb/v7ve+simd/hard/libstdc++.a(eh_alloc.o)
                0x0000000000019e20                __cxa_free_dependent_exception
 .text.startup._GLOBAL__sub_I__ZN9__gnu_cxx9__freeresEv
                0x0000000000019e44       0x2c /home/olf/projects/circle/gcc-arm-9.2-2019.12-x86_64-arm-none-eabi/bin/../lib/gcc/arm-none-eabi/9.2.1/../../../../arm-none-eabi/lib/thumb/v7ve+simd/hard/libstdc++.a(eh_alloc.o)
 .text          0x0000000000019e70        0x0 /home/olf/projects/circle/gcc-arm-9.2-2019.12-x86_64-arm-none-eabi/bin/../lib/gcc/arm-none-eabi/9.2.1/../../../../arm-none-eabi/lib/thumb/v7ve+simd/hard/libstdc++.a(eh_call.o)
 .text._ZN10__cxxabiv1L24__is_gxx_exception_classEPc
                0x0000000000019e70       0x3c /home/olf/projects/circle/gcc-arm-9.2-2019.12-x86_64-arm-none-eabi/bin/../lib/gcc/arm-none-eabi/9.2.1/../../../../arm-none-eabi/lib/thumb/v7ve+simd/hard/libstdc++.a(eh_call.o)
 .text.__cxa_call_terminate
                0x0000000000019eac       0x20 /home/olf/projects/circle/gcc-arm-9.2-2019.12-x86_64-arm-none-eabi/bin/../lib/gcc/arm-none-eabi/9.2.1/../../../../arm-none-eabi/lib/thumb/v7ve+simd/hard/libstdc++.a(eh_call.o)
                0x0000000000019eac                __cxa_call_terminate
 .text.unlikely.__cxa_call_unexpected
                0x0000000000019ecc       0xf8 /home/olf/projects/circle/gcc-arm-9.2-2019.12-x86_64-arm-none-eabi/bin/../lib/gcc/arm-none-eabi/9.2.1/../../../../arm-none-eabi/lib/thumb/v7ve+simd/hard/libstdc++.a(eh_call.o)
                0x0000000000019ecc                __cxa_call_unexpected
 .text          0x0000000000019fc4        0x0 /home/olf/projects/circle/gcc-arm-9.2-2019.12-x86_64-arm-none-eabi/bin/../lib/gcc/arm-none-eabi/9.2.1/../../../../arm-none-eabi/lib/thumb/v7ve+simd/hard/libstdc++.a(eh_catch.o)
 .text.__cxa_get_exception_ptr
                0x0000000000019fc4        0x4 /home/olf/projects/circle/gcc-arm-9.2-2019.12-x86_64-arm-none-eabi/bin/../lib/gcc/arm-none-eabi/9.2.1/../../../../arm-none-eabi/lib/thumb/v7ve+simd/hard/libstdc++.a(eh_catch.o)
                0x0000000000019fc4                __cxa_get_exception_ptr
 .text.__cxa_begin_catch
                0x0000000000019fc8       0x80 /home/olf/projects/circle/gcc-arm-9.2-2019.12-x86_64-arm-none-eabi/bin/../lib/gcc/arm-none-eabi/9.2.1/../../../../arm-none-eabi/lib/thumb/v7ve+simd/hard/libstdc++.a(eh_catch.o)
                0x0000000000019fc8                __cxa_begin_catch
 .text.__cxa_end_catch
                0x000000000001a048       0x88 /home/olf/projects/circle/gcc-arm-9.2-2019.12-x86_64-arm-none-eabi/bin/../lib/gcc/arm-none-eabi/9.2.1/../../../../arm-none-eabi/lib/thumb/v7ve+simd/hard/libstdc++.a(eh_catch.o)
                0x000000000001a048                __cxa_end_catch
 .text._ZSt18uncaught_exceptionv
                0x000000000001a0d0       0x10 /home/olf/projects/circle/gcc-arm-9.2-2019.12-x86_64-arm-none-eabi/bin/../lib/gcc/arm-none-eabi/9.2.1/../../../../arm-none-eabi/lib/thumb/v7ve+simd/hard/libstdc++.a(eh_catch.o)
                0x000000000001a0d0                std::uncaught_exception()
 .text._ZSt19uncaught_exceptionsv
                0x000000000001a0e0        0xc /home/olf/projects/circle/gcc-arm-9.2-2019.12-x86_64-arm-none-eabi/bin/../lib/gcc/arm-none-eabi/9.2.1/../../../../arm-none-eabi/lib/thumb/v7ve+simd/hard/libstdc++.a(eh_catch.o)
                0x000000000001a0e0                std::uncaught_exceptions()
 .text          0x000000000001a0ec        0x0 /home/olf/projects/circle/gcc-arm-9.2-2019.12-x86_64-arm-none-eabi/bin/../lib/gcc/arm-none-eabi/9.2.1/../../../../arm-none-eabi/lib/thumb/v7ve+simd/hard/libstdc++.a(eh_term_handler.o)
 .text          0x000000000001a0ec        0x0 /home/olf/projects/circle/gcc-arm-9.2-2019.12-x86_64-arm-none-eabi/bin/../lib/gcc/arm-none-eabi/9.2.1/../../../../arm-none-eabi/lib/thumb/v7ve+simd/hard/libstdc++.a(eh_type.o)
 .text.__cxa_current_exception_type
                0x000000000001a0ec       0x1c /home/olf/projects/circle/gcc-arm-9.2-2019.12-x86_64-arm-none-eabi/bin/../lib/gcc/arm-none-eabi/9.2.1/../../../../arm-none-eabi/lib/thumb/v7ve+simd/hard/libstdc++.a(eh_type.o)
                0x000000000001a0ec                __cxa_current_exception_type
 .text          0x000000000001a108        0x0 /home/olf/projects/circle/gcc-arm-9.2-2019.12-x86_64-arm-none-eabi/bin/../lib/gcc/arm-none-eabi/9.2.1/../../../../arm-none-eabi/lib/thumb/v7ve+simd/hard/libstdc++.a(new_handler.o)
 .text._ZSt15set_new_handlerPFvvE
                0x000000000001a108       0x20 /home/olf/projects/circle/gcc-arm-9.2-2019.12-x86_64-arm-none-eabi/bin/../lib/gcc/arm-none-eabi/9.2.1/../../../../arm-none-eabi/lib/thumb/v7ve+simd/hard/libstdc++.a(new_handler.o)
                0x000000000001a108                std::set_new_handler(void (*)())
 .text._ZSt15get_new_handlerv
                0x000000000001a128       0x10 /home/olf/projects/circle/gcc-arm-9.2-2019.12-x86_64-arm-none-eabi/bin/../lib/gcc/arm-none-eabi/9.2.1/../../../../arm-none-eabi/lib/thumb/v7ve+simd/hard/libstdc++.a(new_handler.o)
                0x000000000001a128                std::get_new_handler()
 .text          0x000000000001a138       0xa0 /home/olf/projects/circle/gcc-arm-9.2-2019.12-x86_64-arm-none-eabi/bin/../lib/gcc/arm-none-eabi/9.2.1/thumb/v7ve+simd/hard/libgcc.a(_aeabi_ldivmod.o)
                0x000000000001a138                __aeabi_ldivmod
 .text          0x000000000001a1d8       0x30 /home/olf/projects/circle/gcc-arm-9.2-2019.12-x86_64-arm-none-eabi/bin/../lib/gcc/arm-none-eabi/9.2.1/thumb/v7ve+simd/hard/libgcc.a(_aeabi_uldivmod.o)
                0x000000000001a1d8                __aeabi_uldivmod
 .text          0x000000000001a208        0x0 /home/olf/projects/circle/gcc-arm-9.2-2019.12-x86_64-arm-none-eabi/bin/../lib/gcc/arm-none-eabi/9.2.1/thumb/v7ve+simd/hard/libgcc.a(_udivmoddi4.o)
 .text.__udivmoddi4
                0x000000000001a208      0x350 /home/olf/projects/circle/gcc-arm-9.2-2019.12-x86_64-arm-none-eabi/bin/../lib/gcc/arm-none-eabi/9.2.1/thumb/v7ve+simd/hard/libgcc.a(_udivmoddi4.o)
                0x000000000001a208                __udivmoddi4
 .text          0x000000000001a558        0x0 /home/olf/projects/circle/gcc-arm-9.2-2019.12-x86_64-arm-none-eabi/bin/../lib/gcc/arm-none-eabi/9.2.1/thumb/v7ve+simd/hard/libgcc.a(unwind-arm.o)
 .text.selfrel_offset31
                0x000000000001a558       0x14 /home/olf/projects/circle/gcc-arm-9.2-2019.12-x86_64-arm-none-eabi/bin/../lib/gcc/arm-none-eabi/9.2.1/thumb/v7ve+simd/hard/libgcc.a(unwind-arm.o)
 .text.search_EIT_table
                0x000000000001a56c       0x60 /home/olf/projects/circle/gcc-arm-9.2-2019.12-x86_64-arm-none-eabi/bin/../lib/gcc/arm-none-eabi/9.2.1/thumb/v7ve+simd/hard/libgcc.a(unwind-arm.o)
 .text.__gnu_unwind_get_pr_addr
                0x000000000001a5cc       0x2c /home/olf/projects/circle/gcc-arm-9.2-2019.12-x86_64-arm-none-eabi/bin/../lib/gcc/arm-none-eabi/9.2.1/thumb/v7ve+simd/hard/libgcc.a(unwind-arm.o)
 .text.get_eit_entry
                0x000000000001a5f8       0xa4 /home/olf/projects/circle/gcc-arm-9.2-2019.12-x86_64-arm-none-eabi/bin/../lib/gcc/arm-none-eabi/9.2.1/thumb/v7ve+simd/hard/libgcc.a(unwind-arm.o)
 .text.restore_non_core_regs
                0x000000000001a69c       0x58 /home/olf/projects/circle/gcc-arm-9.2-2019.12-x86_64-arm-none-eabi/bin/../lib/gcc/arm-none-eabi/9.2.1/thumb/v7ve+simd/hard/libgcc.a(unwind-arm.o)
 .text._Unwind_decode_typeinfo_ptr.isra.0
                0x000000000001a6f4        0xc /home/olf/projects/circle/gcc-arm-9.2-2019.12-x86_64-arm-none-eabi/bin/../lib/gcc/arm-none-eabi/9.2.1/thumb/v7ve+simd/hard/libgcc.a(unwind-arm.o)
 .text.__gnu_unwind_24bit.isra.0
                0x000000000001a700        0x4 /home/olf/projects/circle/gcc-arm-9.2-2019.12-x86_64-arm-none-eabi/bin/../lib/gcc/arm-none-eabi/9.2.1/thumb/v7ve+simd/hard/libgcc.a(unwind-arm.o)
 .text._Unwind_DebugHook
                0x000000000001a704        0x4 /home/olf/projects/circle/gcc-arm-9.2-2019.12-x86_64-arm-none-eabi/bin/../lib/gcc/arm-none-eabi/9.2.1/thumb/v7ve+simd/hard/libgcc.a(unwind-arm.o)
 .text.unwind_phase2
                0x000000000001a708       0x3c /home/olf/projects/circle/gcc-arm-9.2-2019.12-x86_64-arm-none-eabi/bin/../lib/gcc/arm-none-eabi/9.2.1/thumb/v7ve+simd/hard/libgcc.a(unwind-arm.o)
 .text.unwind_phase2_forced
                0x000000000001a744       0xdc /home/olf/projects/circle/gcc-arm-9.2-2019.12-x86_64-arm-none-eabi/bin/../lib/gcc/arm-none-eabi/9.2.1/thumb/v7ve+simd/hard/libgcc.a(unwind-arm.o)
 .text._Unwind_GetCFA
                0x000000000001a820        0x4 /home/olf/projects/circle/gcc-arm-9.2-2019.12-x86_64-arm-none-eabi/bin/../lib/gcc/arm-none-eabi/9.2.1/thumb/v7ve+simd/hard/libgcc.a(unwind-arm.o)
                0x000000000001a820                _Unwind_GetCFA
 .text.__gnu_Unwind_RaiseException
                0x000000000001a824       0x60 /home/olf/projects/circle/gcc-arm-9.2-2019.12-x86_64-arm-none-eabi/bin/../lib/gcc/arm-none-eabi/9.2.1/thumb/v7ve+simd/hard/libgcc.a(unwind-arm.o)
                0x000000000001a824                __gnu_Unwind_RaiseException
 .text.__gnu_Unwind_ForcedUnwind
                0x000000000001a884       0x14 /home/olf/projects/circle/gcc-arm-9.2-2019.12-x86_64-arm-none-eabi/bin/../lib/gcc/arm-none-eabi/9.2.1/thumb/v7ve+simd/hard/libgcc.a(unwind-arm.o)
                0x000000000001a884                __gnu_Unwind_ForcedUnwind
 .text.__gnu_Unwind_Resume
                0x000000000001a898       0x44 /home/olf/projects/circle/gcc-arm-9.2-2019.12-x86_64-arm-none-eabi/bin/../lib/gcc/arm-none-eabi/9.2.1/thumb/v7ve+simd/hard/libgcc.a(unwind-arm.o)
                0x000000000001a898                __gnu_Unwind_Resume
 .text.__gnu_Unwind_Resume_or_Rethrow
                0x000000000001a8dc       0x18 /home/olf/projects/circle/gcc-arm-9.2-2019.12-x86_64-arm-none-eabi/bin/../lib/gcc/arm-none-eabi/9.2.1/thumb/v7ve+simd/hard/libgcc.a(unwind-arm.o)
                0x000000000001a8dc                __gnu_Unwind_Resume_or_Rethrow
 .text._Unwind_Complete
                0x000000000001a8f4        0x4 /home/olf/projects/circle/gcc-arm-9.2-2019.12-x86_64-arm-none-eabi/bin/../lib/gcc/arm-none-eabi/9.2.1/thumb/v7ve+simd/hard/libgcc.a(unwind-arm.o)
                0x000000000001a8f4                _Unwind_Complete
 .text._Unwind_DeleteException
                0x000000000001a8f8        0xc /home/olf/projects/circle/gcc-arm-9.2-2019.12-x86_64-arm-none-eabi/bin/../lib/gcc/arm-none-eabi/9.2.1/thumb/v7ve+simd/hard/libgcc.a(unwind-arm.o)
                0x000000000001a8f8                _Unwind_DeleteException
 .text._Unwind_VRS_Get
                0x000000000001a904       0x38 /home/olf/projects/circle/gcc-arm-9.2-2019.12-x86_64-arm-none-eabi/bin/../lib/gcc/arm-none-eabi/9.2.1/thumb/v7ve+simd/hard/libgcc.a(unwind-arm.o)
                0x000000000001a904                _Unwind_VRS_Get
 .text._Unwind_GetGR
                0x000000000001a93c       0x18 /home/olf/projects/circle/gcc-arm-9.2-2019.12-x86_64-arm-none-eabi/bin/../lib/gcc/arm-none-eabi/9.2.1/thumb/v7ve+simd/hard/libgcc.a(unwind-arm.o)
 .text._Unwind_VRS_Set
                0x000000000001a954       0x38 /home/olf/projects/circle/gcc-arm-9.2-2019.12-x86_64-arm-none-eabi/bin/../lib/gcc/arm-none-eabi/9.2.1/thumb/v7ve+simd/hard/libgcc.a(unwind-arm.o)
                0x000000000001a954                _Unwind_VRS_Set
 .text._Unwind_SetGR
                0x000000000001a98c       0x1c /home/olf/projects/circle/gcc-arm-9.2-2019.12-x86_64-arm-none-eabi/bin/../lib/gcc/arm-none-eabi/9.2.1/thumb/v7ve+simd/hard/libgcc.a(unwind-arm.o)
 .text.__gnu_Unwind_Backtrace
                0x000000000001a9a8       0x78 /home/olf/projects/circle/gcc-arm-9.2-2019.12-x86_64-arm-none-eabi/bin/../lib/gcc/arm-none-eabi/9.2.1/thumb/v7ve+simd/hard/libgcc.a(unwind-arm.o)
                0x000000000001a9a8                __gnu_Unwind_Backtrace
 .text.__gnu_unwind_pr_common
                0x000000000001aa20      0x2d4 /home/olf/projects/circle/gcc-arm-9.2-2019.12-x86_64-arm-none-eabi/bin/../lib/gcc/arm-none-eabi/9.2.1/thumb/v7ve+simd/hard/libgcc.a(unwind-arm.o)
 .text.__aeabi_unwind_cpp_pr0
                0x000000000001acf4        0x8 /home/olf/projects/circle/gcc-arm-9.2-2019.12-x86_64-arm-none-eabi/bin/../lib/gcc/arm-none-eabi/9.2.1/thumb/v7ve+simd/hard/libgcc.a(unwind-arm.o)
                0x000000000001acf4                __aeabi_unwind_cpp_pr0
 .text.__aeabi_unwind_cpp_pr1
                0x000000000001acfc        0x8 /home/olf/projects/circle/gcc-arm-9.2-2019.12-x86_64-arm-none-eabi/bin/../lib/gcc/arm-none-eabi/9.2.1/thumb/v7ve+simd/hard/libgcc.a(unwind-arm.o)
                0x000000000001acfc                __aeabi_unwind_cpp_pr1
 .text.__aeabi_unwind_cpp_pr2
                0x000000000001ad04        0x8 /home/olf/projects/circle/gcc-arm-9.2-2019.12-x86_64-arm-none-eabi/bin/../lib/gcc/arm-none-eabi/9.2.1/thumb/v7ve+simd/hard/libgcc.a(unwind-arm.o)
                0x000000000001ad04                __aeabi_unwind_cpp_pr2
 .text._Unwind_VRS_Pop
                0x000000000001ad0c      0x2c0 /home/olf/projects/circle/gcc-arm-9.2-2019.12-x86_64-arm-none-eabi/bin/../lib/gcc/arm-none-eabi/9.2.1/thumb/v7ve+simd/hard/libgcc.a(unwind-arm.o)
                0x000000000001ad0c                _Unwind_VRS_Pop
 .text          0x000000000001afcc      0x1ac /home/olf/projects/circle/gcc-arm-9.2-2019.12-x86_64-arm-none-eabi/bin/../lib/gcc/arm-none-eabi/9.2.1/thumb/v7ve+simd/hard/libgcc.a(libunwind.o)
                0x000000000001afcc                __restore_core_regs
                0x000000000001afcc                restore_core_regs
                0x000000000001afe4                __gnu_Unwind_Restore_VFP
                0x000000000001afec                __gnu_Unwind_Save_VFP
                0x000000000001aff4                __gnu_Unwind_Restore_VFP_D
                0x000000000001affc                __gnu_Unwind_Save_VFP_D
                0x000000000001b004                __gnu_Unwind_Restore_VFP_D_16_to_31
                0x000000000001b00c                __gnu_Unwind_Save_VFP_D_16_to_31
                0x000000000001b014                __gnu_Unwind_Restore_WMMXD
                0x000000000001b058                __gnu_Unwind_Save_WMMXD
                0x000000000001b09c                __gnu_Unwind_Restore_WMMXC
                0x000000000001b0b0                __gnu_Unwind_Save_WMMXC
                0x000000000001b0c4                ___Unwind_RaiseException
                0x000000000001b0c4                _Unwind_RaiseException
                0x000000000001b0e8                ___Unwind_Resume
                0x000000000001b0e8                _Unwind_Resume
                0x000000000001b10c                _Unwind_Resume_or_Rethrow
                0x000000000001b10c                ___Unwind_Resume_or_Rethrow
                0x000000000001b130                ___Unwind_ForcedUnwind
                0x000000000001b130                _Unwind_ForcedUnwind
                0x000000000001b154                _Unwind_Backtrace
                0x000000000001b154                ___Unwind_Backtrace
 .text          0x000000000001b178        0x0 /home/olf/projects/circle/gcc-arm-9.2-2019.12-x86_64-arm-none-eabi/bin/../lib/gcc/arm-none-eabi/9.2.1/thumb/v7ve+simd/hard/libgcc.a(pr-support.o)
 .text.next_unwind_byte
                0x000000000001b178       0x38 /home/olf/projects/circle/gcc-arm-9.2-2019.12-x86_64-arm-none-eabi/bin/../lib/gcc/arm-none-eabi/9.2.1/thumb/v7ve+simd/hard/libgcc.a(pr-support.o)
 .text._Unwind_GetGR.constprop.0
                0x000000000001b1b0       0x1c /home/olf/projects/circle/gcc-arm-9.2-2019.12-x86_64-arm-none-eabi/bin/../lib/gcc/arm-none-eabi/9.2.1/thumb/v7ve+simd/hard/libgcc.a(pr-support.o)
 .text.unwind_UCB_from_context
                0x000000000001b1cc        0x4 /home/olf/projects/circle/gcc-arm-9.2-2019.12-x86_64-arm-none-eabi/bin/../lib/gcc/arm-none-eabi/9.2.1/thumb/v7ve+simd/hard/libgcc.a(pr-support.o)
 .text.__gnu_unwind_execute
                0x000000000001b1d0      0x2c4 /home/olf/projects/circle/gcc-arm-9.2-2019.12-x86_64-arm-none-eabi/bin/../lib/gcc/arm-none-eabi/9.2.1/thumb/v7ve+simd/hard/libgcc.a(pr-support.o)
                0x000000000001b1d0                __gnu_unwind_execute
 .text.__gnu_unwind_frame
                0x000000000001b494       0x2c /home/olf/projects/circle/gcc-arm-9.2-2019.12-x86_64-arm-none-eabi/bin/../lib/gcc/arm-none-eabi/9.2.1/thumb/v7ve+simd/hard/libgcc.a(pr-support.o)
                0x000000000001b494                __gnu_unwind_frame
 .text._Unwind_GetRegionStart
                0x000000000001b4c0        0xc /home/olf/projects/circle/gcc-arm-9.2-2019.12-x86_64-arm-none-eabi/bin/../lib/gcc/arm-none-eabi/9.2.1/thumb/v7ve+simd/hard/libgcc.a(pr-support.o)
                0x000000000001b4c0                _Unwind_GetRegionStart
 .text._Unwind_GetLanguageSpecificData
                0x000000000001b4cc       0x14 /home/olf/projects/circle/gcc-arm-9.2-2019.12-x86_64-arm-none-eabi/bin/../lib/gcc/arm-none-eabi/9.2.1/thumb/v7ve+simd/hard/libgcc.a(pr-support.o)
                0x000000000001b4cc                _Unwind_GetLanguageSpecificData
 .text.unlikely._Unwind_GetDataRelBase
                0x000000000001b4e0        0x6 /home/olf/projects/circle/gcc-arm-9.2-2019.12-x86_64-arm-none-eabi/bin/../lib/gcc/arm-none-eabi/9.2.1/thumb/v7ve+simd/hard/libgcc.a(pr-support.o)
                0x000000000001b4e0                _Unwind_GetDataRelBase
 .text.unlikely._Unwind_GetTextRelBase
                0x000000000001b4e6        0x6 /home/olf/projects/circle/gcc-arm-9.2-2019.12-x86_64-arm-none-eabi/bin/../lib/gcc/arm-none-eabi/9.2.1/thumb/v7ve+simd/hard/libgcc.a(pr-support.o)
                0x000000000001b4e6                _Unwind_GetTextRelBase
 .text          0x000000000001b4ec        0x4 /home/olf/projects/circle/gcc-arm-9.2-2019.12-x86_64-arm-none-eabi/bin/../lib/gcc/arm-none-eabi/9.2.1/thumb/v7ve+simd/hard/libgcc.a(_dvmd_tls.o)
                0x000000000001b4ec                __aeabi_ldiv0
                0x000000000001b4ec                __aeabi_idiv0
 .text          0x000000000001b4f0       0x18 ../../../../install/arm-none-circle/lib/libc.a(lib_a-abort.o)
                0x000000000001b4f0                abort
 .text          0x000000000001b508       0xdc ../../../../install/arm-none-circle/lib/libc.a(lib_a-fputc.o)
                0x000000000001b508                _fputc_r
                0x000000000001b570                fputc
 .text          0x000000000001b5e4      0x120 ../../../../install/arm-none-circle/lib/libc.a(lib_a-fputs.o)
                0x000000000001b5e4                _fputs_r
                0x000000000001b6c4                fputs
 .text          0x000000000001b704      0x608 ../../../../install/arm-none-circle/lib/libc.a(lib_a-fvwrite.o)
                0x000000000001b704                __sfvwrite_r
 .text          0x000000000001bd0c      0x15c ../../../../install/arm-none-circle/lib/libc.a(lib_a-fwrite.o)
                0x000000000001bd0c                _fwrite_r
                0x000000000001be18                fwrite
 .text          0x000000000001be68        0x0 ../../../../install/arm-none-circle/lib/libc.a(lib_a-impure.o)
 *fill*         0x000000000001be68        0x8 
 .text          0x000000000001be70       0xe8 ../../../../install/arm-none-circle/lib/libc.a(lib_a-memchr.o)
                0x000000000001be70                memchr
 .text          0x000000000001bf58      0x138 ../../../../install/arm-none-circle/lib/libc.a(lib_a-memcmp.o)
                0x000000000001bf58                memcmp
 .text          0x000000000001c090      0x21c ../../../../install/arm-none-circle/lib/libc.a(lib_a-memmove.o)
                0x000000000001c090                memmove
 .text          0x000000000001c2ac      0x188 ../../../../install/arm-none-circle/lib/libc.a(lib_a-putc.o)
                0x000000000001c358                _putc_r
                0x000000000001c3c0                putc
 .text          0x000000000001c434      0x434 ../../../../install/arm-none-circle/lib/libc.a(lib_a-signal.o)
                0x000000000001c434                _init_signal_r
                0x000000000001c4d4                _signal_r
                0x000000000001c58c                _raise_r
                0x000000000001c6a0                __sigtramp_r
                0x000000000001c790                raise
                0x000000000001c7c8                signal
                0x000000000001c808                _init_signal
                0x000000000001c830                __sigtramp
 .text          0x000000000001c868       0xa4 ../../../../install/arm-none-circle/lib/libc.a(lib_a-signalr.o)
                0x000000000001c868                _kill_r
                0x000000000001c8e4                _getpid_r
 .text          0x000000000001c90c      0x11c ../../../../install/arm-none-circle/lib/libc.a(lib_a-sprintf.o)
                0x000000000001c90c                _sprintf_r
                0x000000000001c998                sprintf
 .text          0x000000000001ca28       0xc0 ../../../../install/arm-none-circle/lib/libc.a(lib_a-strcat.o)
                0x000000000001ca28                strcat
 .text          0x000000000001cae8      0x280 ../../../../install/arm-none-circle/lib/libc.a(lib_a-strchr.o)
                0x000000000001cae8                strchr
 *fill*         0x000000000001cd68       0x18 
 .text          0x000000000001cd80      0x2dc ../../../../install/arm-none-circle/lib/libc.a(lib_a-strcmp.o)
                0x000000000001cd88                strcmp
 .text          0x000000000001d05c      0x100 ../../../../install/arm-none-circle/lib/libc.a(lib_a-strcpy.o)
                0x000000000001d05c                strcpy
 *fill*         0x000000000001d15c       0x24 
 .text          0x000000000001d180       0xdc ../../../../install/arm-none-circle/lib/libc.a(lib_a-strlen.o)
                0x000000000001d180                strlen
 .text          0x000000000001d25c      0x190 ../../../../install/arm-none-circle/lib/libc.a(lib_a-strncmp.o)
                0x000000000001d25c                strncmp
 .text          0x000000000001d3ec      0x174 ../../../../install/arm-none-circle/lib/libc.a(lib_a-strncpy.o)
                0x000000000001d3ec                strncpy
 .text          0x000000000001d560     0x2354 ../../../../install/arm-none-circle/lib/libc.a(lib_a-svfprintf.o)
                0x000000000001d560                _svfprintf_r
 .text          0x000000000001f8b4       0x44 ../../../../install/arm-none-circle/lib/libc.a(lib_a-syswrite.o)
                0x000000000001f8b4                write
 .text          0x000000000001f8f8      0x1ac ../../../../install/arm-none-circle/lib/libc.a(lib_a-wbuf.o)
                0x000000000001f8f8                __swbuf_r
                0x000000000001fa74                __swbuf
 .text          0x000000000001faa4       0x84 ../../../../install/arm-none-circle/lib/libc.a(lib_a-writer.o)
                0x000000000001faa4                _write_r
 .text          0x000000000001fb28      0x1e4 ../../../../install/arm-none-circle/lib/libc.a(lib_a-wsetup.o)
                0x000000000001fb28                __swsetup_r
 *fill*         0x000000000001fd0c        0x4 
 .text          0x000000000001fd10     0x1b64 ../../../../install/arm-none-circle/lib/libc.a(lib_a-dtoa.o)
                0x00000000000200e0                _dtoa_r
 .text          0x0000000000021874      0x3f0 ../../../../install/arm-none-circle/lib/libc.a(lib_a-fflush.o)
                0x0000000000021874                __sflush_r
                0x0000000000021b94                _fflush_r
                0x0000000000021c08                fflush
 .text          0x0000000000021c64      0x600 ../../../../install/arm-none-circle/lib/libc.a(lib_a-findfp.o)
                0x0000000000021de4                __sfmoreglue
                0x0000000000021e84                __sfp
                0x0000000000022058                _cleanup_r
                0x000000000002208c                _cleanup
                0x00000000000220b0                __sinit
                0x000000000002215c                __sfp_lock_acquire
                0x0000000000022174                __sfp_lock_release
                0x000000000002218c                __sinit_lock_acquire
                0x00000000000221a4                __sinit_lock_release
                0x0000000000022204                __fp_lock_all
                0x0000000000022234                __fp_unlock_all
 .text          0x0000000000022264      0x124 ../../../../install/arm-none-circle/lib/libc.a(lib_a-fwalk.o)
                0x0000000000022264                _fwalk
                0x00000000000222f4                _fwalk_reent
 .text          0x0000000000022388       0xec ../../../../install/arm-none-circle/lib/libc.a(lib_a-localeconv.o)
                0x00000000000223d8                __localeconv_l
                0x0000000000022420                _localeconv_r
                0x0000000000022450                localeconv
 .text          0x0000000000022474      0x128 ../../../../install/arm-none-circle/lib/libc.a(lib_a-locale.o)
                0x00000000000224ac                _setlocale_r
                0x0000000000022540                __locale_mb_cur_max
                0x000000000002255c                setlocale
 .text          0x000000000002259c      0x238 ../../../../install/arm-none-circle/lib/libc.a(lib_a-makebuf.o)
                0x000000000002259c                __smakebuf_r
                0x00000000000226f0                __swhatbuf_r
 .text          0x00000000000227d4      0x12c ../../../../install/arm-none-circle/lib/libc.a(lib_a-mbtowc_r.o)
                0x000000000002280c                _mbtowc_r
                0x0000000000022860                __ascii_mbtowc
 .text          0x0000000000022900     0x19b8 ../../../../install/arm-none-circle/lib/libc.a(lib_a-mprec.o)
                0x0000000000022900                _Balloc
                0x0000000000022a2c                _Bfree
                0x0000000000022aa0                __multadd
                0x0000000000022c28                __s2b
                0x0000000000022da4                __hi0bits
                0x0000000000022e40                __lo0bits
                0x0000000000022f40                __i2b
                0x0000000000022f8c                __multiply
                0x0000000000023364                __pow5mult
                0x00000000000234e0                __lshift
                0x00000000000236e4                __mcmp
                0x00000000000237f8                __mdiff
                0x0000000000023aa8                __ulp
                0x0000000000023b5c                __b2d
                0x0000000000023d44                __d2b
                0x0000000000023f58                __ratio
                0x0000000000024028                _mprec_log10
                0x00000000000240b0                __copybits
                0x000000000002417c                __any_on
 .text          0x00000000000242b8      0x210 ../../../../install/arm-none-circle/lib/libc.a(lib_a-reent.o)
                0x00000000000242b8                cleanup_glue
                0x0000000000024308                _reclaim_reent
 .text          0x00000000000244c8      0x1e8 ../../../../install/arm-none-circle/lib/libc.a(lib_a-stdio.o)
                0x00000000000244c8                __sread
                0x000000000002453c                __seofread
                0x000000000002456c                __swrite
                0x00000000000245f4                __sseek
                0x0000000000024670                __sclose
 .text          0x00000000000246b0     0x1388 ../../../../install/arm-none-circle/lib/libc.a(lib_a-svfiprintf.o)
                0x00000000000246b0                __ssprint_r
                0x0000000000024978                _svfiprintf_r
 .text          0x0000000000025a38      0x100 ../../../../install/arm-none-circle/lib/libc.a(lib_a-wctomb_r.o)
                0x0000000000025a70                _wctomb_r
                0x0000000000025abc                __ascii_wctomb
 .text          0x0000000000025b38       0x74 ../../../../install/arm-none-circle/lib/libc.a(lib_a-closer.o)
                0x0000000000025b38                _close_r
 .text          0x0000000000025bac        0x0 ../../../../install/arm-none-circle/lib/libc.a(lib_a-ctype_.o)
 .text          0x0000000000025bac      0x174 ../../../../install/arm-none-circle/lib/libc.a(lib_a-fclose.o)
                0x0000000000025bac                _fclose_r
                0x0000000000025cf0                fclose
 .text          0x0000000000025d20       0x7c ../../../../install/arm-none-circle/lib/libc.a(lib_a-fstatr.o)
                0x0000000000025d20                _fstat_r
 .text          0x0000000000025d9c       0x74 ../../../../install/arm-none-circle/lib/libc.a(lib_a-isattyr.o)
                0x0000000000025d9c                _isatty_r
 .text          0x0000000000025e10       0x84 ../../../../install/arm-none-circle/lib/libc.a(lib_a-lseekr.o)
                0x0000000000025e10                _lseek_r
 .text          0x0000000000025e94       0x84 ../../../../install/arm-none-circle/lib/libc.a(lib_a-readr.o)
                0x0000000000025e94                _read_r
 .text          0x0000000000025f18       0x38 ../../../../install/arm-none-circle/lib/libcirclenewlib.a(fstat.o)
                0x0000000000025f18                _fstat
 .text          0x0000000000025f50       0x2c ../../../../install/arm-none-circle/lib/libcirclenewlib.a(getpid.o)
                0x0000000000025f50                _getpid
 .text          0x0000000000025f7c     0x17cc ../../../../install/arm-none-circle/lib/libcirclenewlib.a(io.o)
                0x0000000000026bac                CGlueStdioInit(FATFS&, CConsole&)
                0x0000000000026bdc                CGlueStdioInit(FATFS&)
                0x0000000000026c00                CGlueStdioInit(CConsole&)
                0x0000000000026c24                _open
                0x0000000000026d10                _close
                0x0000000000026e20                _read
                0x0000000000026ee4                _write
                0x0000000000026fa8                _lseek
                0x000000000002706c                opendir
                0x00000000000273b4                readdir
                0x0000000000027420                readdir_r
                0x0000000000027498                rewinddir
                0x00000000000274c8                closedir
 .text._ZN9CSpinLockC2Ej
                0x0000000000027748       0x34 ../../../../install/arm-none-circle/lib/libcirclenewlib.a(io.o)
                0x0000000000027748                CSpinLock::CSpinLock(unsigned int)
                0x0000000000027748                CSpinLock::CSpinLock(unsigned int)
 .text._ZN9CSpinLock7AcquireEv
                0x000000000002777c       0x3c ../../../../install/arm-none-circle/lib/libcirclenewlib.a(io.o)
                0x000000000002777c                CSpinLock::Acquire()
 .text._ZN9CSpinLock7ReleaseEv
                0x00000000000277b8       0x30 ../../../../install/arm-none-circle/lib/libcirclenewlib.a(io.o)
                0x00000000000277b8                CSpinLock::Release()
 .text._ZN18CUSBHostController8IsActiveEv
                0x00000000000277e8       0x34 ../../../../install/arm-none-circle/lib/libcirclenewlib.a(io.o)
                0x00000000000277e8                CUSBHostController::IsActive()
 .text._ZN10CScheduler8IsActiveEv
                0x000000000002781c       0x34 ../../../../install/arm-none-circle/lib/libcirclenewlib.a(io.o)
                0x000000000002781c                CScheduler::IsActive()
 .text._ZN11_CIRCLE_DIRC2Ev
                0x0000000000027850       0x5c ../../../../install/arm-none-circle/lib/libcirclenewlib.a(io.o)
                0x0000000000027850                _CIRCLE_DIR::_CIRCLE_DIR()
                0x0000000000027850                _CIRCLE_DIR::_CIRCLE_DIR()
 .text          0x00000000000278ac       0x34 ../../../../install/arm-none-circle/lib/libcirclenewlib.a(isatty.o)
                0x00000000000278ac                _isatty
 .text          0x00000000000278e0       0x38 ../../../../install/arm-none-circle/lib/libcirclenewlib.a(kill.o)
                0x00000000000278e0                _kill
 .text          0x0000000000027918       0x1c ../../../../install/arm-none-circle/lib/libcirclenewlib.a(_exit.o)
                0x0000000000027918                _exit
 .text          0x0000000000027934       0xbc ../../../../install/arm-none-circle/lib/libcirclenewlib.a(mem.o)
                0x0000000000027934                _malloc_r
                0x0000000000027960                _free_r
                0x0000000000027988                _realloc_r
                0x00000000000279bc                _calloc_r
 .text          0x00000000000279f0      0x604 ../../lib/usb/libusb.a(usbhostcontroller.o)
                0x00000000000279f0                CUSBHostController::CUSBHostController(bool)
                0x00000000000279f0                CUSBHostController::CUSBHostController(bool)
                0x0000000000027a34                CUSBHostController::~CUSBHostController()
                0x0000000000027a34                CUSBHostController::~CUSBHostController()
                0x0000000000027a64                CUSBHostController::~CUSBHostController()
                0x0000000000027aa0                CUSBHostController::ControlMessage(CUSBEndpoint*, unsigned char, unsigned char, unsigned short, unsigned short, void*, unsigned short)
                0x0000000000027b5c                CUSBHostController::GetDescriptor(CUSBEndpoint*, unsigned char, unsigned char, void*, unsigned int, unsigned char, unsigned short)
                0x0000000000027b94                CUSBHostController::SetAddress(CUSBEndpoint*, unsigned char)
                0x0000000000027be0                CUSBHostController::SetConfiguration(CUSBEndpoint*, unsigned char)
                0x0000000000027c2c                CUSBHostController::Transfer(CUSBEndpoint*, void*, unsigned int, unsigned int)
                0x0000000000027c9c                CUSBHostController::IsPlugAndPlay()
                0x0000000000027cac                CUSBHostController::UpdatePlugAndPlay()
                0x0000000000027e0c                CUSBHostController::PortStatusChanged(CUSBHCIRootPort*)
                0x0000000000027ee8                CUSBHostController::PortStatusChanged(CUSBStandardHub*)
                0x0000000000027fc4                CUSBHostController::Get()
 .text._ZN18CUSBHostController24CancelDeviceTransactionsEP10CUSBDevice
                0x0000000000027ff4        0x4 ../../lib/usb/libusb.a(usbhostcontroller.o)
                0x0000000000027ff4                CUSBHostController::CancelDeviceTransactions(CUSBDevice*)
 .text          0x0000000000027ff8      0x3e8 ../../lib/usb/libusb.a(usbrequest.o)
                0x0000000000027ff8                CUSBRequest::CUSBRequest(CUSBEndpoint*, void*, unsigned int, TSetupData*)
                0x0000000000027ff8                CUSBRequest::CUSBRequest(CUSBEndpoint*, void*, unsigned int, TSetupData*)
                0x0000000000028084                CUSBRequest::~CUSBRequest()
                0x0000000000028084                CUSBRequest::~CUSBRequest()
                0x0000000000028088                CUSBRequest::GetEndpoint() const
                0x00000000000280b0                CUSBRequest::SetStatus(int)
                0x00000000000280b8                CUSBRequest::SetResultLen(unsigned int)
                0x00000000000280c0                CUSBRequest::SetUSBError(TUSBError)
                0x00000000000280c8                CUSBRequest::GetStatus() const
                0x00000000000280d0                CUSBRequest::GetResultLength() const
                0x0000000000028100                CUSBRequest::GetUSBError() const
                0x0000000000028130                CUSBRequest::GetSetupData()
                0x0000000000028184                CUSBRequest::GetBuffer()
                0x00000000000281bc                CUSBRequest::GetBufLen() const
                0x00000000000281c4                CUSBRequest::SetCompletionRoutine(void (*)(CUSBRequest*, void*, void*), void*, void*)
                0x00000000000281f0                CUSBRequest::CallCompletionRoutine()
                0x000000000002822c                CUSBRequest::SetCompleteOnNAK()
                0x0000000000028238                CUSBRequest::IsCompleteOnNAK() const
                0x0000000000028240                CUSBRequest::operator new(unsigned int)
                0x0000000000028298                CUSBRequest::operator delete(void*, unsigned int)
                0x00000000000282f4                CUSBRequest::InitAllocator(unsigned int)
                0x0000000000028360                CUSBRequest::InitProtectedAllocator(unsigned int, unsigned int)
 .text          0x00000000000283e0     0x10ec ../../lib/usb/libusb.a(usbstandardhub.o)
                0x00000000000283e0                CUSBStandardHub::~CUSBStandardHub()
                0x00000000000283e0                CUSBStandardHub::~CUSBStandardHub()
                0x00000000000284fc                CUSBStandardHub::~CUSBStandardHub()
                0x000000000002851c                CUSBStandardHub::CUSBStandardHub(CUSBFunction*)
                0x000000000002851c                CUSBStandardHub::CUSBStandardHub(CUSBFunction*)
                0x000000000002857c                CUSBStandardHub::DisablePort(unsigned int)
                0x000000000002863c                CUSBStandardHub::RemoveDevice(unsigned int)
                0x0000000000028680                CUSBStandardHub::StartStatusChangeRequest()
                0x0000000000028768                CUSBStandardHub::CompletionRoutine(CUSBRequest*)
                0x000000000002880c                CUSBStandardHub::CompletionStub(CUSBRequest*, void*, void*)
                0x000000000002883c                CUSBStandardHub::HandlePortStatusChange()
                0x0000000000028b58                CUSBStandardHub::Initialize()
                0x0000000000028c94                CUSBStandardHub::EnumeratePorts()
                0x0000000000029354                CUSBStandardHub::ReScanDevices()
                0x0000000000029358                CUSBStandardHub::Configure()
 .text.startup  0x00000000000294cc       0x38 ../../lib/usb/libusb.a(usbstandardhub.o)
 .text          0x0000000000029504     0x10e8 ../../lib/usb/libusb.a(usbdevice.o)
                0x0000000000029504                CUSBDevice::CUSBDevice(CUSBHostController*, TUSBSpeed, CUSBHCIRootPort*)
                0x0000000000029504                CUSBDevice::CUSBDevice(CUSBHostController*, TUSBSpeed, CUSBHCIRootPort*)
                0x00000000000295d8                CUSBDevice::CUSBDevice(CUSBHostController*, TUSBSpeed, CUSBStandardHub*, unsigned int)
                0x00000000000295d8                CUSBDevice::CUSBDevice(CUSBHostController*, TUSBSpeed, CUSBStandardHub*, unsigned int)
                0x0000000000029754                CUSBDevice::ReScanDevices()
                0x0000000000029794                CUSBDevice::RemoveDevice()
                0x00000000000297e0                CUSBDevice::GetName(TDeviceNameSelector) const
                0x00000000000298fc                CUSBDevice::GetNames() const
                0x00000000000299fc                CUSBDevice::SetAddress(unsigned char)
                0x0000000000029a28                CUSBDevice::GetAddress() const
                0x0000000000029a30                CUSBDevice::GetSpeed() const
                0x0000000000029a38                CUSBDevice::IsSplit() const
                0x0000000000029a40                CUSBDevice::GetHubAddress() const
                0x0000000000029a48                CUSBDevice::GetHubPortNumber() const
                0x0000000000029a50                CUSBDevice::GetTTHubDevice() const
                0x0000000000029a58                CUSBDevice::GetEndpoint0() const
                0x0000000000029a80                CUSBDevice::GetHost() const
                0x0000000000029aa8                CUSBDevice::GetDeviceDescriptor() const
                0x0000000000029ad0                CUSBDevice::GetConfigurationDescriptor() const
                0x0000000000029af8                CUSBDevice::GetDescriptor(unsigned char)
                0x0000000000029b24                CUSBDevice::ConfigurationError(char const*) const
                0x0000000000029b50                CUSBDevice::LogWrite(TLogSeverity, char const*, ...)
                0x0000000000029c0c                CUSBDevice::~CUSBDevice()
                0x0000000000029c0c                CUSBDevice::~CUSBDevice()
                0x0000000000029d9c                CUSBDevice::~CUSBDevice()
                0x0000000000029dbc                CUSBDevice::Initialize()
                0x000000000002a4fc                CUSBDevice::Configure()
 .text.startup  0x000000000002a5ec       0x38 ../../lib/usb/libusb.a(usbdevice.o)
 .text          0x000000000002a624      0x52c ../../lib/usb/libusb.a(usbdevicefactory.o)
                0x000000000002a624                CUSBDeviceFactory::GetDevice(CUSBFunction*, CString*)
 .text          0x000000000002ab50      0x360 ../../lib/usb/libusb.a(usbendpoint.o)
                0x000000000002ab50                CUSBEndpoint::CUSBEndpoint(CUSBDevice*)
                0x000000000002ab50                CUSBEndpoint::CUSBEndpoint(CUSBDevice*)
                0x000000000002ab98                CUSBEndpoint::CUSBEndpoint(CUSBDevice*, TUSBEndpointDescriptor const*)
                0x000000000002ab98                CUSBEndpoint::CUSBEndpoint(CUSBDevice*, TUSBEndpointDescriptor const*)
                0x000000000002ad08                CUSBEndpoint::~CUSBEndpoint()
                0x000000000002ad08                CUSBEndpoint::~CUSBEndpoint()
                0x000000000002ad0c                CUSBEndpoint::GetDevice() const
                0x000000000002ad34                CUSBEndpoint::GetNumber() const
                0x000000000002ad3c                CUSBEndpoint::GetType() const
                0x000000000002ad44                CUSBEndpoint::IsDirectionIn() const
                0x000000000002ad4c                CUSBEndpoint::SetMaxPacketSize(unsigned int)
                0x000000000002ad58                CUSBEndpoint::GetMaxPacketSize() const
                0x000000000002ad60                CUSBEndpoint::GetInterval() const
                0x000000000002ad90                CUSBEndpoint::GetNextPID(bool)
                0x000000000002add0                CUSBEndpoint::SkipPID(unsigned int, bool)
                0x000000000002ae80                CUSBEndpoint::ResetPID()
 .text          0x000000000002aeb0      0x6d4 ../../lib/usb/libusb.a(usbfunction.o)
                0x000000000002aeb0                CUSBFunction::Initialize()
                0x000000000002aeb8                CUSBFunction::ReScanDevices()
                0x000000000002aec0                CUSBFunction::~CUSBFunction()
                0x000000000002aec0                CUSBFunction::~CUSBFunction()
                0x000000000002af18                CUSBFunction::~CUSBFunction()
                0x000000000002af38                CUSBFunction::RemoveDevice()
                0x000000000002af64                CUSBFunction::Configure()
                0x000000000002b064                CUSBFunction::CUSBFunction(CUSBDevice*, CUSBConfigurationParser*)
                0x000000000002b064                CUSBFunction::CUSBFunction(CUSBDevice*, CUSBConfigurationParser*)
                0x000000000002b13c                CUSBFunction::CUSBFunction(CUSBFunction*)
                0x000000000002b13c                CUSBFunction::CUSBFunction(CUSBFunction*)
                0x000000000002b23c                CUSBFunction::GetInterfaceName() const
                0x000000000002b2c4                CUSBFunction::GetNumEndpoints() const
                0x000000000002b2f4                CUSBFunction::GetDevice() const
                0x000000000002b31c                CUSBFunction::GetEndpoint0() const
                0x000000000002b348                CUSBFunction::GetHost() const
                0x000000000002b374                CUSBFunction::GetDescriptor(unsigned char)
                0x000000000002b3a0                CUSBFunction::ConfigurationError(char const*) const
                0x000000000002b3f0                CUSBFunction::SelectInterfaceByClass(unsigned char, unsigned char, unsigned char)
                0x000000000002b4c4                CUSBFunction::GetInterfaceNumber() const
                0x000000000002b4f4                CUSBFunction::GetInterfaceClass() const
                0x000000000002b524                CUSBFunction::GetInterfaceSubClass() const
                0x000000000002b554                CUSBFunction::GetInterfaceProtocol() const
 .text          0x000000000002b584      0x554 ../../lib/usb/libusb.a(usbgamepadps3.o)
                0x000000000002b584                CUSBGamePadPS3Device::~CUSBGamePadPS3Device()
                0x000000000002b584                CUSBGamePadPS3Device::~CUSBGamePadPS3Device()
                0x000000000002b5a4                CUSBGamePadPS3Device::~CUSBGamePadPS3Device()
                0x000000000002b5d0                CUSBGamePadPS3Device::SetRumbleMode(TGamePadRumbleMode)
                0x000000000002b6d0                CUSBGamePadPS3Device::SetLEDMode(TGamePadLEDMode)
                0x000000000002b764                CUSBGamePadPS3Device::CUSBGamePadPS3Device(CUSBFunction*)
                0x000000000002b764                CUSBGamePadPS3Device::CUSBGamePadPS3Device(CUSBFunction*)
                0x000000000002b7c0                CUSBGamePadPS3Device::PS3Enable()
                0x000000000002b874                CUSBGamePadPS3Device::Configure()
                0x000000000002b990                CUSBGamePadPS3Device::DecodeReport(unsigned char const*)
 .text._ZN17CUSBGamePadDevice10SetLEDModeEjhh
                0x000000000002bad8        0x8 ../../lib/usb/libusb.a(usbgamepadps3.o)
                0x000000000002bad8                CUSBGamePadDevice::SetLEDMode(unsigned int, unsigned char, unsigned char)
 .text._ZN20CUSBGamePadPS3Device13GetPropertiesEv
                0x000000000002bae0        0x8 ../../lib/usb/libusb.a(usbgamepadps3.o)
                0x000000000002bae0                CUSBGamePadPS3Device::GetProperties()
 .text          0x000000000002bae8      0x7bc ../../lib/usb/libusb.a(usbgamepadps4.o)
                0x000000000002bae8                CUSBGamePadPS4Device::DecodeReport(unsigned char const*)
                0x000000000002bc58                CUSBGamePadPS4Device::~CUSBGamePadPS4Device()
                0x000000000002bc58                CUSBGamePadPS4Device::~CUSBGamePadPS4Device()
                0x000000000002bca4                CUSBGamePadPS4Device::~CUSBGamePadPS4Device()
                0x000000000002bcc4                CUSBGamePadPS4Device::CUSBGamePadPS4Device(CUSBFunction*)
                0x000000000002bcc4                CUSBGamePadPS4Device::CUSBGamePadPS4Device(CUSBFunction*)
                0x000000000002bd1c                CUSBGamePadPS4Device::HandleTouchpad(unsigned char const*)
                0x000000000002beb4                CUSBGamePadPS4Device::ReportHandler(unsigned char const*, unsigned int)
                0x000000000002bf20                CUSBGamePadPS4Device::SendLedRumbleCommand()
                0x000000000002bfc8                CUSBGamePadPS4Device::SetLEDMode(TGamePadLEDMode)
                0x000000000002c0a8                CUSBGamePadPS4Device::SetLEDMode(unsigned int, unsigned char, unsigned char)
                0x000000000002c0c8                CUSBGamePadPS4Device::SetRumbleMode(TGamePadRumbleMode)
                0x000000000002c12c                CUSBGamePadPS4Device::DisableTouchpad()
                0x000000000002c140                CUSBGamePadPS4Device::Configure()
 .text._ZN20CUSBGamePadPS4Device13GetPropertiesEv
                0x000000000002c2a4        0x8 ../../lib/usb/libusb.a(usbgamepadps4.o)
                0x000000000002c2a4                CUSBGamePadPS4Device::GetProperties()
 .text          0x000000000002c2ac      0x78c ../../lib/usb/libusb.a(usbgamepadstandard.o)
                0x000000000002c2ac                CUSBGamePadStandardDevice::~CUSBGamePadStandardDevice()
                0x000000000002c2ac                CUSBGamePadStandardDevice::~CUSBGamePadStandardDevice()
                0x000000000002c2e8                CUSBGamePadStandardDevice::~CUSBGamePadStandardDevice()
                0x000000000002c308                CUSBGamePadStandardDevice::CUSBGamePadStandardDevice(CUSBFunction*, bool)
                0x000000000002c308                CUSBGamePadStandardDevice::CUSBGamePadStandardDevice(CUSBFunction*, bool)
                0x000000000002c340                CUSBGamePadStandardDevice::BitGetUnsigned(void const*, unsigned int, unsigned int)
                0x000000000002c440                CUSBGamePadStandardDevice::BitGetSigned(void const*, unsigned int, unsigned int)
                0x000000000002c468                CUSBGamePadStandardDevice::DecodeReport(unsigned char const*)
                0x000000000002c88c                CUSBGamePadStandardDevice::Configure()
 .text._ZN17CUSBGamePadDevice13GetPropertiesEv
                0x000000000002ca38        0x8 ../../lib/usb/libusb.a(usbgamepadstandard.o)
                0x000000000002ca38                CUSBGamePadDevice::GetProperties()
 .text._ZN17CUSBGamePadDevice10SetLEDModeE15TGamePadLEDMode
                0x000000000002ca40        0x8 ../../lib/usb/libusb.a(usbgamepadstandard.o)
                0x000000000002ca40                CUSBGamePadDevice::SetLEDMode(TGamePadLEDMode)
 .text._ZN17CUSBGamePadDevice13SetRumbleModeE18TGamePadRumbleMode
                0x000000000002ca48        0x8 ../../lib/usb/libusb.a(usbgamepadstandard.o)
                0x000000000002ca48                CUSBGamePadDevice::SetRumbleMode(TGamePadRumbleMode)
 .text          0x000000000002ca50      0x794 ../../lib/usb/libusb.a(usbgamepadswitchpro.o)
                0x000000000002ca50                CUSBGamePadSwitchProDevice::~CUSBGamePadSwitchProDevice()
                0x000000000002ca50                CUSBGamePadSwitchProDevice::~CUSBGamePadSwitchProDevice()
                0x000000000002ca70                CUSBGamePadSwitchProDevice::~CUSBGamePadSwitchProDevice()
                0x000000000002ca9c                CUSBGamePadSwitchProDevice::DecodeReport(unsigned char const*)
                0x000000000002cc84                CUSBGamePadSwitchProDevice::SetLEDMode(TGamePadLEDMode)
                0x000000000002cd3c                CUSBGamePadSwitchProDevice::SetRumbleMode(TGamePadRumbleMode)
                0x000000000002ce28                CUSBGamePadSwitchProDevice::CUSBGamePadSwitchProDevice(CUSBFunction*)
                0x000000000002ce28                CUSBGamePadSwitchProDevice::CUSBGamePadSwitchProDevice(CUSBFunction*)
                0x000000000002ce74                CUSBGamePadSwitchProDevice::Configure()
 .text._ZN26CUSBGamePadSwitchProDevice13GetPropertiesEv
                0x000000000002d1e4        0x8 ../../lib/usb/libusb.a(usbgamepadswitchpro.o)
                0x000000000002d1e4                CUSBGamePadSwitchProDevice::GetProperties()
 .text          0x000000000002d1ec      0x39c ../../lib/usb/libusb.a(usbgamepadxbox360.o)
                0x000000000002d1ec                CUSBGamePadXbox360Device::~CUSBGamePadXbox360Device()
                0x000000000002d1ec                CUSBGamePadXbox360Device::~CUSBGamePadXbox360Device()
                0x000000000002d20c                CUSBGamePadXbox360Device::~CUSBGamePadXbox360Device()
                0x000000000002d238                CUSBGamePadXbox360Device::ReportHandler(unsigned char const*, unsigned int)
                0x000000000002d2a8                CUSBGamePadXbox360Device::DecodeReport(unsigned char const*)
                0x000000000002d3c0                CUSBGamePadXbox360Device::SetLEDMode(TGamePadLEDMode)
                0x000000000002d418                CUSBGamePadXbox360Device::SetRumbleMode(TGamePadRumbleMode)
                0x000000000002d4a8                CUSBGamePadXbox360Device::CUSBGamePadXbox360Device(CUSBFunction*)
                0x000000000002d4a8                CUSBGamePadXbox360Device::CUSBGamePadXbox360Device(CUSBFunction*)
                0x000000000002d4c8                CUSBGamePadXbox360Device::Configure()
 .text._ZN24CUSBGamePadXbox360Device13GetPropertiesEv
                0x000000000002d588        0x8 ../../lib/usb/libusb.a(usbgamepadxbox360.o)
                0x000000000002d588                CUSBGamePadXbox360Device::GetProperties()
 .text          0x000000000002d590      0x4e8 ../../lib/usb/libusb.a(usbgamepadxboxone.o)
                0x000000000002d590                CUSBGamePadXboxOneDevice::DecodeReport(unsigned char const*)
                0x000000000002d700                CUSBGamePadXboxOneDevice::~CUSBGamePadXboxOneDevice()
                0x000000000002d700                CUSBGamePadXboxOneDevice::~CUSBGamePadXboxOneDevice()
                0x000000000002d720                CUSBGamePadXboxOneDevice::~CUSBGamePadXboxOneDevice()
                0x000000000002d74c                CUSBGamePadXboxOneDevice::ReportHandler(unsigned char const*, unsigned int)
                0x000000000002d860                CUSBGamePadXboxOneDevice::SetRumbleMode(TGamePadRumbleMode)
                0x000000000002d924                CUSBGamePadXboxOneDevice::CUSBGamePadXboxOneDevice(CUSBFunction*)
                0x000000000002d924                CUSBGamePadXboxOneDevice::CUSBGamePadXboxOneDevice(CUSBFunction*)
                0x000000000002d94c                CUSBGamePadXboxOneDevice::Configure()
 .text._ZN24CUSBGamePadXboxOneDevice13GetPropertiesEv
                0x000000000002da78        0x8 ../../lib/usb/libusb.a(usbgamepadxboxone.o)
                0x000000000002da78                CUSBGamePadXboxOneDevice::GetProperties()
 .text          0x000000000002da80      0x8d0 ../../lib/usb/libusb.a(usbhiddevice.o)
                0x000000000002da80                CUSBHIDDevice::SendCompletionRoutine(CUSBRequest*, void*, void*)
                0x000000000002db14                CUSBHIDDevice::CUSBHIDDevice(CUSBFunction*, unsigned int)
                0x000000000002db14                CUSBHIDDevice::CUSBHIDDevice(CUSBFunction*, unsigned int)
                0x000000000002db78                CUSBHIDDevice::~CUSBHIDDevice()
                0x000000000002db78                CUSBHIDDevice::~CUSBHIDDevice()
                0x000000000002dc04                CUSBHIDDevice::~CUSBHIDDevice()
                0x000000000002dc24                CUSBHIDDevice::Configure(unsigned int)
                0x000000000002de98                CUSBHIDDevice::SendToEndpointOut(void const*, unsigned int, unsigned int)
                0x000000000002df2c                CUSBHIDDevice::SendToEndpointOutAsync(void const*, unsigned int, unsigned int)
                0x000000000002e020                CUSBHIDDevice::ReceiveFromEndpointIn(void*, unsigned int, unsigned int)
                0x000000000002e0e0                CUSBHIDDevice::StartRequest()
                0x000000000002e1ec                CUSBHIDDevice::CompletionRoutine(CUSBRequest*)
                0x000000000002e320                CUSBHIDDevice::CompletionStub(CUSBRequest*, void*, void*)
 .text          0x000000000002e350      0x47c ../../lib/usb/libusb.a(usbkeyboard.o)
                0x000000000002e350                CUSBKeyboardDevice::~CUSBKeyboardDevice()
                0x000000000002e350                CUSBKeyboardDevice::~CUSBKeyboardDevice()
                0x000000000002e3b8                CUSBKeyboardDevice::~CUSBKeyboardDevice()
                0x000000000002e3d8                CUSBKeyboardDevice::ReportHandler(unsigned char const*, unsigned int)
                0x000000000002e550                CUSBKeyboardDevice::CUSBKeyboardDevice(CUSBFunction*)
                0x000000000002e550                CUSBKeyboardDevice::CUSBKeyboardDevice(CUSBFunction*)
                0x000000000002e5a8                CUSBKeyboardDevice::RegisterKeyPressedHandler(void (*)(char const*))
                0x000000000002e5b0                CUSBKeyboardDevice::RegisterSelectConsoleHandler(void (*)(unsigned int))
                0x000000000002e5b8                CUSBKeyboardDevice::RegisterShutdownHandler(void (*)())
                0x000000000002e5c0                CUSBKeyboardDevice::GetLEDStatus() const
                0x000000000002e5e8                CUSBKeyboardDevice::RegisterKeyStatusHandlerRaw(void (*)(unsigned char, unsigned char const*))
                0x000000000002e614                CUSBKeyboardDevice::SetLEDs(unsigned char)
                0x000000000002e6ac                CUSBKeyboardDevice::Configure()
                0x000000000002e744                CUSBKeyboardDevice::UpdateLEDs()
                0x000000000002e7a0                CUSBKeyboardDevice::FindByte(unsigned char const*, unsigned char, unsigned int)
 .text.startup  0x000000000002e7cc       0x38 ../../lib/usb/libusb.a(usbkeyboard.o)
 .text          0x000000000002e804      0xdc4 ../../lib/usb/libusb.a(usbmassdevice.o)
                0x000000000002e804                CUSBBulkOnlyMassStorageDevice::CUSBBulkOnlyMassStorageDevice(CUSBFunction*)
                0x000000000002e804                CUSBBulkOnlyMassStorageDevice::CUSBBulkOnlyMassStorageDevice(CUSBFunction*)
                0x000000000002e848                CUSBBulkOnlyMassStorageDevice::~CUSBBulkOnlyMassStorageDevice()
                0x000000000002e848                CUSBBulkOnlyMassStorageDevice::~CUSBBulkOnlyMassStorageDevice()
                0x000000000002e920                CUSBBulkOnlyMassStorageDevice::~CUSBBulkOnlyMassStorageDevice()
                0x000000000002e940                CUSBBulkOnlyMassStorageDevice::Configure()
                0x000000000002edfc                CUSBBulkOnlyMassStorageDevice::Read(void*, unsigned int)
                0x000000000002ee64                CUSBBulkOnlyMassStorageDevice::Write(void const*, unsigned int)
                0x000000000002eecc                CUSBBulkOnlyMassStorageDevice::Seek(unsigned long long)
                0x000000000002eee0                CUSBBulkOnlyMassStorageDevice::GetCapacity() const
                0x000000000002eee8                CUSBBulkOnlyMassStorageDevice::TryRead(void*, unsigned int)
                0x000000000002efd4                CUSBBulkOnlyMassStorageDevice::TryWrite(void const*, unsigned int)
                0x000000000002f0c4                CUSBBulkOnlyMassStorageDevice::Command(void*, unsigned int, void*, unsigned int, bool)
                0x000000000002f430                CUSBBulkOnlyMassStorageDevice::Reset()
 .text.startup  0x000000000002f5c8        0x4 ../../lib/usb/libusb.a(usbmassdevice.o)
 .text          0x000000000002f5cc      0x790 ../../lib/usb/libusb.a(usbmidi.o)
                0x000000000002f5cc                CUSBMIDIDevice::~CUSBMIDIDevice()
                0x000000000002f5cc                CUSBMIDIDevice::~CUSBMIDIDevice()
                0x000000000002f694                CUSBMIDIDevice::~CUSBMIDIDevice()
                0x000000000002f6b4                CUSBMIDIDevice::CUSBMIDIDevice(CUSBFunction*)
                0x000000000002f6b4                CUSBMIDIDevice::CUSBMIDIDevice(CUSBFunction*)
                0x000000000002f6f0                CUSBMIDIDevice::RegisterPacketHandler(void (*)(unsigned int, unsigned char*, unsigned int))
                0x000000000002f73c                CUSBMIDIDevice::StartRequest()
                0x000000000002f850                CUSBMIDIDevice::TimerStub(unsigned int, void*, void*)
                0x000000000002f8ac                CUSBMIDIDevice::CompletionRoutine(CUSBRequest*)
                0x000000000002faf0                CUSBMIDIDevice::CompletionStub(CUSBRequest*, void*, void*)
                0x000000000002fb20                CUSBMIDIDevice::TimerHandler(unsigned int)
                0x000000000002fb54                CUSBMIDIDevice::Configure()
 .text.startup  0x000000000002fd5c       0x38 ../../lib/usb/libusb.a(usbmidi.o)
 .text          0x000000000002fd94      0x244 ../../lib/usb/libusb.a(usbmouse.o)
                0x000000000002fd94                CUSBMouseDevice::~CUSBMouseDevice()
                0x000000000002fd94                CUSBMouseDevice::~CUSBMouseDevice()
                0x000000000002fdf0                CUSBMouseDevice::~CUSBMouseDevice()
                0x000000000002fe10                CUSBMouseDevice::Configure()
                0x000000000002ff58                CUSBMouseDevice::ReportHandler(unsigned char const*, unsigned int)
                0x000000000002ffa8                CUSBMouseDevice::CUSBMouseDevice(CUSBFunction*)
                0x000000000002ffa8                CUSBMouseDevice::CUSBMouseDevice(CUSBFunction*)
 .text          0x000000000002ffd8      0x3a4 ../../lib/usb/libusb.a(usbprinter.o)
                0x000000000002ffd8                CUSBPrinterDevice::~CUSBPrinterDevice()
                0x000000000002ffd8                CUSBPrinterDevice::~CUSBPrinterDevice()
                0x0000000000030080                CUSBPrinterDevice::~CUSBPrinterDevice()
                0x00000000000300a0                CUSBPrinterDevice::Write(void const*, unsigned int)
                0x0000000000030140                CUSBPrinterDevice::CUSBPrinterDevice(CUSBFunction*)
                0x0000000000030140                CUSBPrinterDevice::CUSBPrinterDevice(CUSBFunction*)
                0x0000000000030174                CUSBPrinterDevice::Configure()
 .text.startup  0x000000000003037c       0x38 ../../lib/usb/libusb.a(usbprinter.o)
 .text          0x00000000000303b4      0xdf4 ../../lib/usb/libusb.a(lan7800.o)
                0x00000000000303b4                CLAN7800Device::GetMACAddress() const
                0x00000000000303bc                CLAN7800Device::~CLAN7800Device()
                0x00000000000303bc                CLAN7800Device::~CLAN7800Device()
                0x0000000000030440                non-virtual thunk to CLAN7800Device::~CLAN7800Device()
                0x0000000000030448                CLAN7800Device::~CLAN7800Device()
                0x0000000000030468                non-virtual thunk to CLAN7800Device::~CLAN7800Device()
                0x0000000000030470                CLAN7800Device::ReceiveFrame(void*, unsigned int*)
                0x00000000000305ec                non-virtual thunk to CLAN7800Device::ReceiveFrame(void*, unsigned int*)
                0x00000000000305f4                CLAN7800Device::SendFrame(void const*, unsigned int)
                0x00000000000306a8                non-virtual thunk to CLAN7800Device::SendFrame(void const*, unsigned int)
                0x00000000000306b0                non-virtual thunk to CLAN7800Device::GetMACAddress() const
                0x00000000000306b8                CLAN7800Device::CLAN7800Device(CUSBFunction*)
                0x00000000000306b8                CLAN7800Device::CLAN7800Device(CUSBFunction*)
                0x0000000000030700                CLAN7800Device::WriteReg(unsigned int, unsigned int)
                0x0000000000030798                CLAN7800Device::ReadReg(unsigned int, unsigned int*)
                0x000000000003082c                CLAN7800Device::WaitReg(unsigned int, unsigned int, unsigned int, unsigned int, unsigned int)
                0x00000000000308d8                CLAN7800Device::PHYWrite(unsigned char, unsigned short)
                0x0000000000030998                CLAN7800Device::PHYRead(unsigned char, unsigned short*)
                0x0000000000030a88                CLAN7800Device::IsLinkUp()
                0x0000000000030ab0                non-virtual thunk to CLAN7800Device::IsLinkUp()
                0x0000000000030ab8                CLAN7800Device::GetLinkSpeed()
                0x0000000000030b4c                non-virtual thunk to CLAN7800Device::GetLinkSpeed()
                0x0000000000030b54                CLAN7800Device::InitPHY()
                0x0000000000030bb8                CLAN7800Device::ReadWriteReg(unsigned int, unsigned int, unsigned int)
                0x0000000000030c04                CLAN7800Device::InitMACAddress()
                0x0000000000030d3c                CLAN7800Device::Configure()
 .text._ZN10CNetDevice7GetTypeEv
                0x00000000000311a8        0x8 ../../lib/usb/libusb.a(lan7800.o)
                0x00000000000311a8                CNetDevice::GetType()
 .text._ZN10CNetDevice20IsSendFrameAdvisableEv
                0x00000000000311b0        0x8 ../../lib/usb/libusb.a(lan7800.o)
                0x00000000000311b0                CNetDevice::IsSendFrameAdvisable()
 .text._ZN10CNetDevice9UpdatePHYEv
                0x00000000000311b8        0x8 ../../lib/usb/libusb.a(lan7800.o)
                0x00000000000311b8                CNetDevice::UpdatePHY()
 .text          0x00000000000311c0      0xb60 ../../lib/usb/libusb.a(smsc951x.o)
                0x00000000000311c0                CSMSC951xDevice::GetMACAddress() const
                0x00000000000311c8                CSMSC951xDevice::~CSMSC951xDevice()
                0x00000000000311c8                CSMSC951xDevice::~CSMSC951xDevice()
                0x000000000003124c                non-virtual thunk to CSMSC951xDevice::~CSMSC951xDevice()
                0x0000000000031254                CSMSC951xDevice::~CSMSC951xDevice()
                0x0000000000031274                non-virtual thunk to CSMSC951xDevice::~CSMSC951xDevice()
                0x000000000003127c                CSMSC951xDevice::ReceiveFrame(void*, unsigned int*)
                0x0000000000031404                non-virtual thunk to CSMSC951xDevice::ReceiveFrame(void*, unsigned int*)
                0x000000000003140c                CSMSC951xDevice::SendFrame(void const*, unsigned int)
                0x00000000000314b8                non-virtual thunk to CSMSC951xDevice::SendFrame(void const*, unsigned int)
                0x00000000000314c0                non-virtual thunk to CSMSC951xDevice::GetMACAddress() const
                0x00000000000314c8                CSMSC951xDevice::CSMSC951xDevice(CUSBFunction*)
                0x00000000000314c8                CSMSC951xDevice::CSMSC951xDevice(CUSBFunction*)
                0x0000000000031510                CSMSC951xDevice::WriteReg(unsigned int, unsigned int)
                0x0000000000031578                CSMSC951xDevice::ReadReg(unsigned int, unsigned int*)
                0x00000000000315e0                CSMSC951xDevice::PHYWaitNotBusy()
                0x0000000000031660                CSMSC951xDevice::PHYWrite(unsigned char, unsigned short)
                0x00000000000316e4                CSMSC951xDevice::PHYRead(unsigned char, unsigned short*)
                0x00000000000317a4                CSMSC951xDevice::IsLinkUp()
                0x00000000000317cc                non-virtual thunk to CSMSC951xDevice::IsLinkUp()
                0x00000000000317d4                CSMSC951xDevice::GetLinkSpeed()
                0x0000000000031830                non-virtual thunk to CSMSC951xDevice::GetLinkSpeed()
                0x0000000000031838                CSMSC951xDevice::DumpReg(char const*, unsigned int)
                0x00000000000318b0                CSMSC951xDevice::DumpRegs()
                0x0000000000031a48                CSMSC951xDevice::Configure()
 .text          0x0000000000031d20      0x688 ../../lib/usb/libusb.a(usbbluetooth.o)
                0x0000000000031d20                CUSBBluetoothDevice::~CUSBBluetoothDevice()
                0x0000000000031d20                CUSBBluetoothDevice::~CUSBBluetoothDevice()
                0x0000000000031e10                CUSBBluetoothDevice::~CUSBBluetoothDevice()
                0x0000000000031e30                CUSBBluetoothDevice::CUSBBluetoothDevice(CUSBFunction*)
                0x0000000000031e30                CUSBBluetoothDevice::CUSBBluetoothDevice(CUSBFunction*)
                0x0000000000031e70                CUSBBluetoothDevice::SendHCICommand(void const*, unsigned int)
                0x0000000000031ecc                CUSBBluetoothDevice::StartRequest()
                0x0000000000031fbc                CUSBBluetoothDevice::RegisterHCIEventHandler(void (*)(void const*, unsigned int))
                0x0000000000031fe8                CUSBBluetoothDevice::CompletionRoutine(CUSBRequest*)
                0x000000000003213c                CUSBBluetoothDevice::CompletionStub(CUSBRequest*, void*, void*)
                0x000000000003216c                CUSBBluetoothDevice::Configure()
 .text.startup  0x00000000000323a8       0x38 ../../lib/usb/libusb.a(usbbluetooth.o)
 .text          0x00000000000323e0      0x610 ../../lib/usb/libusb.a(usbcdcethernet.o)
                0x00000000000323e0                CUSBCDCEthernetDevice::GetMACAddress() const
                0x00000000000323e8                CUSBCDCEthernetDevice::~CUSBCDCEthernetDevice()
                0x00000000000323e8                CUSBCDCEthernetDevice::~CUSBCDCEthernetDevice()
                0x000000000003246c                non-virtual thunk to CUSBCDCEthernetDevice::~CUSBCDCEthernetDevice()
                0x0000000000032474                CUSBCDCEthernetDevice::~CUSBCDCEthernetDevice()
                0x0000000000032494                non-virtual thunk to CUSBCDCEthernetDevice::~CUSBCDCEthernetDevice()
                0x000000000003249c                CUSBCDCEthernetDevice::ReceiveFrame(void*, unsigned int*)
                0x0000000000032590                non-virtual thunk to CUSBCDCEthernetDevice::ReceiveFrame(void*, unsigned int*)
                0x0000000000032598                CUSBCDCEthernetDevice::SendFrame(void const*, unsigned int)
                0x000000000003263c                non-virtual thunk to CUSBCDCEthernetDevice::SendFrame(void const*, unsigned int)
                0x0000000000032644                non-virtual thunk to CUSBCDCEthernetDevice::GetMACAddress() const
                0x000000000003264c                CUSBCDCEthernetDevice::CUSBCDCEthernetDevice(CUSBFunction*)
                0x000000000003264c                CUSBCDCEthernetDevice::CUSBCDCEthernetDevice(CUSBFunction*)
                0x0000000000032694                CUSBCDCEthernetDevice::InitMACAddress(unsigned char)
                0x0000000000032798                CUSBCDCEthernetDevice::Configure()
 .text._ZN10CNetDevice8IsLinkUpEv
                0x00000000000329f0        0x8 ../../lib/usb/libusb.a(usbcdcethernet.o)
                0x00000000000329f0                CNetDevice::IsLinkUp()
 .text._ZN10CNetDevice12GetLinkSpeedEv
                0x00000000000329f8        0x8 ../../lib/usb/libusb.a(usbcdcethernet.o)
                0x00000000000329f8                CNetDevice::GetLinkSpeed()
 .text          0x0000000000032a00      0x324 ../../lib/usb/libusb.a(usbconfigparser.o)
                0x0000000000032a00                CUSBConfigurationParser::CUSBConfigurationParser(void const*, unsigned int)
                0x0000000000032a00                CUSBConfigurationParser::CUSBConfigurationParser(void const*, unsigned int)
                0x0000000000032b58                CUSBConfigurationParser::CUSBConfigurationParser(CUSBConfigurationParser*)
                0x0000000000032b58                CUSBConfigurationParser::CUSBConfigurationParser(CUSBConfigurationParser*)
                0x0000000000032bb8                CUSBConfigurationParser::~CUSBConfigurationParser()
                0x0000000000032bb8                CUSBConfigurationParser::~CUSBConfigurationParser()
                0x0000000000032bbc                CUSBConfigurationParser::IsValid() const
                0x0000000000032bc4                CUSBConfigurationParser::GetDescriptor(unsigned char)
                0x0000000000032c70                CUSBConfigurationParser::GetCurrentDescriptor()
                0x0000000000032cbc                CUSBConfigurationParser::Error(char const*) const
 .text          0x0000000000032d24      0x23c ../../lib/usb/libusb.a(usbgamepad.o)
                0x0000000000032d24                CUSBGamePadDevice::GetInitialState()
                0x0000000000032d2c                CUSBGamePadDevice::ReportHandler(unsigned char const*, unsigned int)
                0x0000000000032d80                CUSBGamePadDevice::RegisterStatusHandler(void (*)(unsigned int, TGamePadState const*))
                0x0000000000032dcc                CUSBGamePadDevice::Configure()
                0x0000000000032e9c                CUSBGamePadDevice::CUSBGamePadDevice(CUSBFunction*)
                0x0000000000032e9c                CUSBGamePadDevice::CUSBGamePadDevice(CUSBFunction*)
                0x0000000000032ee0                CUSBGamePadDevice::~CUSBGamePadDevice()
                0x0000000000032ee0                CUSBGamePadDevice::~CUSBGamePadDevice()
                0x0000000000032f40                CUSBGamePadDevice::~CUSBGamePadDevice()
 .text.startup  0x0000000000032f60       0x38 ../../lib/usb/libusb.a(usbgamepad.o)
 .text          0x0000000000032f98      0x578 ../../lib/usb/libusb.a(usbstring.o)
                0x0000000000032f98                CUSBString::CUSBString(CUSBDevice*)
                0x0000000000032f98                CUSBString::CUSBString(CUSBDevice*)
                0x0000000000032ffc                CUSBString::CUSBString(CUSBString*)
                0x0000000000032ffc                CUSBString::CUSBString(CUSBString*)
                0x00000000000330d0                CUSBString::~CUSBString()
                0x00000000000330d0                CUSBString::~CUSBString()
                0x0000000000033110                CUSBString::GetFromDescriptor(unsigned char, unsigned short)
                0x0000000000033370                CUSBString::Get() const
                0x0000000000033378                CUSBString::GetLanguageID()
 .text          0x0000000000033510      0x310 ../../lib/input/libinput.a(keyboardbehaviour.o)
                0x0000000000033510                CKeyboardBehaviour::CKeyboardBehaviour()
                0x0000000000033510                CKeyboardBehaviour::CKeyboardBehaviour()
                0x0000000000033540                CKeyboardBehaviour::~CKeyboardBehaviour()
                0x0000000000033540                CKeyboardBehaviour::~CKeyboardBehaviour()
                0x0000000000033568                CKeyboardBehaviour::RegisterKeyPressedHandler(void (*)(char const*))
                0x0000000000033594                CKeyboardBehaviour::RegisterSelectConsoleHandler(void (*)(unsigned int))
                0x00000000000335c0                CKeyboardBehaviour::RegisterShutdownHandler(void (*)())
                0x00000000000335ec                CKeyboardBehaviour::GetLEDStatus() const
                0x00000000000335f4                CKeyboardBehaviour::GenerateKeyEvent(unsigned char)
                0x00000000000336c0                CKeyboardBehaviour::KeyPressed(unsigned char)
                0x0000000000033700                CKeyboardBehaviour::KeyReleased(unsigned char)
                0x0000000000033768                CKeyboardBehaviour::TimerHandler(unsigned int)
                0x00000000000337f0                CKeyboardBehaviour::TimerStub(unsigned int, void*, void*)
 .text          0x0000000000033820      0x390 ../../lib/input/libinput.a(keymap.o)
                0x0000000000033820                CKeyMap::~CKeyMap()
                0x0000000000033820                CKeyMap::~CKeyMap()
                0x0000000000033824                CKeyMap::ClearTable(unsigned char)
                0x000000000003385c                CKeyMap::SetEntry(unsigned char, unsigned char, unsigned short)
                0x00000000000338ac                CKeyMap::Translate(unsigned char, unsigned char)
                0x00000000000339b0                CKeyMap::GetString(unsigned short, unsigned char, char*) const
                0x0000000000033a70                CKeyMap::GetLEDStatus() const
                0x0000000000033aa0                CKeyMap::LookupDefaultMap(char const*)
                0x0000000000033b20                CKeyMap::CKeyMap()
                0x0000000000033b20                CKeyMap::CKeyMap()
 .text          0x0000000000033bb0      0x1c8 ../../lib/input/libinput.a(mouse.o)
                0x0000000000033bb0                CMouseDevice::~CMouseDevice()
                0x0000000000033bb0                CMouseDevice::~CMouseDevice()
                0x0000000000033c0c                CMouseDevice::~CMouseDevice()
                0x0000000000033c2c                CMouseDevice::CMouseDevice()
                0x0000000000033c2c                CMouseDevice::CMouseDevice()
                0x0000000000033cbc                CMouseDevice::Setup(unsigned int, unsigned int)
                0x0000000000033cc4                CMouseDevice::RegisterEventHandler(void (*)(TMouseEvent, unsigned int, unsigned int, unsigned int))
                0x0000000000033ccc                CMouseDevice::SetCursor(unsigned int, unsigned int)
                0x0000000000033cd4                CMouseDevice::ShowCursor(bool)
                0x0000000000033cdc                CMouseDevice::UpdateCursor()
                0x0000000000033cf0                CMouseDevice::RegisterStatusHandler(void (*)(unsigned int, int, int))
                0x0000000000033d3c                CMouseDevice::ReportHandler(unsigned int, int, int)
 .text.startup  0x0000000000033d78       0x38 ../../lib/input/libinput.a(mouse.o)
 .text          0x0000000000033db0      0x6f0 ../../lib/input/libinput.a(console.o)
                0x0000000000033db0                CConsole::Read(void*, unsigned int)
                0x0000000000033dc8                CConsole::~CConsole()
                0x0000000000033dc8                CConsole::~CConsole()
                0x0000000000033e34                CConsole::~CConsole()
                0x0000000000033e54                CConsole::KeyboardRemovedHandler(CDevice*, void*)
                0x0000000000033f24                CConsole::Write(void const*, unsigned int)
                0x0000000000033f8c                CConsole::CConsole(CDevice*, bool)
                0x0000000000033f8c                CConsole::CConsole(CDevice*, bool)
                0x0000000000033fdc                CConsole::CConsole(CDevice*, CDevice*)
                0x0000000000033fdc                CConsole::CConsole(CDevice*, CDevice*)
                0x0000000000034078                CConsole::IsAlternateDeviceUsed() const
                0x0000000000034080                CConsole::GetOptions() const
                0x0000000000034088                CConsole::SetOptions(unsigned int)
                0x00000000000340c0                CConsole::UpdatePlugAndPlay()
                0x0000000000034244                CConsole::Initialize()
 .text          0x00000000000344a0      0x308 ../../lib/input/libinput.a(keyboardbuffer.o)
                0x00000000000344a0                CKeyboardBuffer::~CKeyboardBuffer()
                0x00000000000344a0                CKeyboardBuffer::~CKeyboardBuffer()
                0x00000000000344d4                CKeyboardBuffer::~CKeyboardBuffer()
                0x0000000000034514                CKeyboardBuffer::Read(void*, unsigned int)
                0x00000000000345e8                CKeyboardBuffer::CKeyboardBuffer(CUSBKeyboardDevice*)
                0x00000000000345e8                CKeyboardBuffer::CKeyboardBuffer(CUSBKeyboardDevice*)
                0x0000000000034690                CKeyboardBuffer::InBuf(char)
                0x00000000000346b4                CKeyboardBuffer::BufStat() const
                0x00000000000346c8                CKeyboardBuffer::OutBuf()
                0x00000000000346f4                CKeyboardBuffer::KeyPressedHandler(char const*)
                0x0000000000034770                CKeyboardBuffer::KeyPressedStub(char const*)
 .text          0x00000000000347a8      0x3d8 ../../lib/input/libinput.a(linediscipline.o)
                0x00000000000347a8                CLineDiscipline::~CLineDiscipline()
                0x00000000000347a8                CLineDiscipline::~CLineDiscipline()
                0x00000000000347dc                CLineDiscipline::~CLineDiscipline()
                0x000000000003481c                CLineDiscipline::CLineDiscipline(CDevice*, CDevice*)
                0x000000000003481c                CLineDiscipline::CLineDiscipline(CDevice*, CDevice*)
                0x000000000003485c                CLineDiscipline::SetOptionRawMode(bool)
                0x0000000000034878                CLineDiscipline::SetOptionEcho(bool)
                0x0000000000034880                CLineDiscipline::GetChar()
                0x00000000000348f4                CLineDiscipline::PutChar(int)
                0x000000000003496c                CLineDiscipline::Read(void*, unsigned int)
 .text          0x0000000000034b80      0x4e4 ../../lib/input/libinput.a(mousebehaviour.o)
                0x0000000000034b80                CMouseBehaviour::CMouseBehaviour()
                0x0000000000034b80                CMouseBehaviour::CMouseBehaviour()
                0x0000000000034ba4                CMouseBehaviour::Setup(unsigned int, unsigned int)
                0x0000000000034cd8                CMouseBehaviour::RegisterEventHandler(void (*)(TMouseEvent, unsigned int, unsigned int, unsigned int))
                0x0000000000034d24                CMouseBehaviour::MouseStatusChanged(unsigned int, int, int)
                0x0000000000034e78                CMouseBehaviour::SetCursorState(unsigned int, unsigned int, bool)
                0x0000000000034ef8                CMouseBehaviour::~CMouseBehaviour()
                0x0000000000034ef8                CMouseBehaviour::~CMouseBehaviour()
                0x0000000000034f30                CMouseBehaviour::SetCursor(unsigned int, unsigned int)
                0x0000000000034fc4                CMouseBehaviour::ShowCursor(bool)
                0x0000000000035034                CMouseBehaviour::UpdateCursor()
 .text          0x0000000000035064     0x4df4 ../../addon/fatfs/libfatfs.a(ff.o)
                0x00000000000376ec                f_mount
                0x00000000000377d0                f_open
                0x0000000000037c1c                f_read
                0x0000000000037f0c                f_write
                0x000000000003830c                f_sync
                0x00000000000384a0                f_close
                0x00000000000384f4                f_lseek
                0x00000000000387f8                f_opendir
                0x0000000000038964                f_closedir
                0x00000000000389a4                f_readdir
                0x0000000000038a90                f_findnext
                0x0000000000038b28                f_findfirst
                0x0000000000038b58                f_stat
                0x0000000000038c44                f_getfree
                0x0000000000038e14                f_truncate
                0x0000000000038ff4                f_unlink
                0x0000000000039194                f_mkdir
                0x0000000000039430                f_rename
                0x000000000003969c                f_chmod
                0x00000000000397a8                f_utime
                0x00000000000398bc                f_gets
                0x0000000000039948                f_putc
                0x0000000000039988                f_puts
                0x00000000000399e4                f_printf
 .text          0x0000000000039e58      0x2f0 ../../addon/fatfs/libfatfs.a(diskio.o)
                0x0000000000039e58                disk_status
                0x0000000000039e78                disk_initialize
                0x0000000000039ec4                disk_read
                0x0000000000039fb4                disk_write
                0x000000000003a074                disk_ioctl
 .text          0x000000000003a148      0x1dc ../../addon/fatfs/libfatfs.a(ffsystem.o)
                0x000000000003a148                ff_cre_syncobj
                0x000000000003a170                ff_del_syncobj
                0x000000000003a194                ff_req_grant
                0x000000000003a1d8                ff_rel_grant
                0x000000000003a20c                ff_memalloc
                0x000000000003a210                ff_memfree
                0x000000000003a214                get_fattime
 .text          0x000000000003a324      0x1e8 ../../addon/fatfs/libfatfs.a(ffunicode.o)
                0x000000000003a324                ff_uni2oem
                0x000000000003a390                ff_oem2uni
                0x000000000003a3cc                ff_wtoupper
 .text          0x000000000003a50c      0x310 ../../lib/fs/libfs.a(partitionmanager.o)
                0x000000000003a50c                CPartitionManager::CPartitionManager(CDevice*, char const*)
                0x000000000003a50c                CPartitionManager::CPartitionManager(CDevice*, char const*)
                0x000000000003a540                CPartitionManager::~CPartitionManager()
                0x000000000003a540                CPartitionManager::~CPartitionManager()
                0x000000000003a604                CPartitionManager::Initialize()
 .text          0x000000000003a81c      0x2c0 ../../lib/fs/libfs.a(partition.o)
                0x000000000003a81c                CPartition::~CPartition()
                0x000000000003a81c                CPartition::~CPartition()
                0x000000000003a844                CPartition::~CPartition()
                0x000000000003a878                CPartition::Read(void*, unsigned int)
                0x000000000003a90c                CPartition::Write(void const*, unsigned int)
                0x000000000003a9a0                CPartition::Seek(unsigned long long)
                0x000000000003aa68                CPartition::CPartition(CDevice*, unsigned int, unsigned int)
                0x000000000003aa68                CPartition::CPartition(CDevice*, unsigned int, unsigned int)
 .text          0x000000000003aadc      0x5e8 ../../lib/sched/libsched.a(scheduler.o)
                0x000000000003aadc                CScheduler::CScheduler()
                0x000000000003aadc                CScheduler::CScheduler()
                0x000000000003ab5c                CScheduler::~CScheduler()
                0x000000000003ab5c                CScheduler::~CScheduler()
                0x000000000003ab70                CScheduler::GetCurrentTask()
                0x000000000003ab78                CScheduler::RegisterTaskSwitchHandler(void (*)(CTask*))
                0x000000000003abc4                CScheduler::RegisterTaskTerminationHandler(void (*)(CTask*))
                0x000000000003ac10                CScheduler::AddTask(CTask*)
                0x000000000003aca8                CScheduler::RemoveTask(CTask*)
                0x000000000003ad0c                CScheduler::WakeTask(CTask**)
                0x000000000003ad88                CScheduler::GetNextTask()
                0x000000000003ae74                CScheduler::Yield()
                0x000000000003af30                CScheduler::usSleep(unsigned int)
                0x000000000003afac                CScheduler::Sleep(unsigned int)
                0x000000000003b000                CScheduler::MsSleep(unsigned int)
                0x000000000003b014                CScheduler::BlockTask(CTask**)
                0x000000000003b094                CScheduler::Get()
 .text          0x000000000003b0c4       0x24 ../../lib/sched/libsched.a(taskswitch.o)
                0x000000000003b0c4                TaskSwitch
 .text          0x000000000003b0e8      0x27c ../../lib/sched/libsched.a(task.o)
                0x000000000003b0e8                CTask::Run()
                0x000000000003b104                CTask::TaskEntry(void*)
                0x000000000003b164                CTask::~CTask()
                0x000000000003b164                CTask::~CTask()
                0x000000000003b1cc                CTask::~CTask()
                0x000000000003b1ec                CTask::Terminate()
                0x000000000003b220                CTask::WaitForTermination()
                0x000000000003b228                CTask::SetUserData(void*, unsigned int)
                0x000000000003b234                CTask::GetUserData(unsigned int)
                0x000000000003b240                CTask::InitializeRegs()
                0x000000000003b2a8                CTask::CTask(unsigned int)
                0x000000000003b2a8                CTask::CTask(unsigned int)
 .text          0x000000000003b364       0xec ../../lib/sched/libsched.a(synchronizationevent.o)
                0x000000000003b364                CSynchronizationEvent::CSynchronizationEvent(bool)
                0x000000000003b364                CSynchronizationEvent::CSynchronizationEvent(bool)
                0x000000000003b374                CSynchronizationEvent::~CSynchronizationEvent()
                0x000000000003b374                CSynchronizationEvent::~CSynchronizationEvent()
                0x000000000003b39c                CSynchronizationEvent::GetState()
                0x000000000003b3a4                CSynchronizationEvent::Clear()
                0x000000000003b3b0                CSynchronizationEvent::Set()
                0x000000000003b3e8                CSynchronizationEvent::Wait()
 .text          0x000000000003b450       0xdc ../../lib/libcircle.a(alloc.o)
                0x000000000003b450                malloc
                0x000000000003b468                free
                0x000000000003b480                calloc
                0x000000000003b4e4                realloc
                0x000000000003b500                palloc
                0x000000000003b514                pfree
 .text          0x000000000003b52c      0x310 ../../lib/libcircle.a(classallocator.o)
                0x000000000003b52c                CClassAllocator::~CClassAllocator()
                0x000000000003b52c                CClassAllocator::~CClassAllocator()
                0x000000000003b554                CClassAllocator::Init(unsigned int, unsigned int)
                0x000000000003b618                CClassAllocator::CClassAllocator(unsigned int, unsigned int, char const*)
                0x000000000003b618                CClassAllocator::CClassAllocator(unsigned int, unsigned int, char const*)
                0x000000000003b648                CClassAllocator::CClassAllocator(unsigned int, unsigned int, unsigned int, char const*)
                0x000000000003b648                CClassAllocator::CClassAllocator(unsigned int, unsigned int, unsigned int, char const*)
                0x000000000003b67c                CClassAllocator::Allocate()
                0x000000000003b768                CClassAllocator::Free(void*)
 .text          0x000000000003b83c      0x280 ../../lib/libcircle.a(macaddress.o)
                0x000000000003b83c                CMACAddress::CMACAddress()
                0x000000000003b83c                CMACAddress::CMACAddress()
                0x000000000003b848                CMACAddress::~CMACAddress()
                0x000000000003b848                CMACAddress::~CMACAddress()
                0x000000000003b84c                CMACAddress::operator==(CMACAddress const&) const
                0x000000000003b8b4                CMACAddress::operator!=(CMACAddress const&) const
                0x000000000003b8c8                CMACAddress::Set(unsigned char const*)
                0x000000000003b908                CMACAddress::CMACAddress(unsigned char const*)
                0x000000000003b908                CMACAddress::CMACAddress(unsigned char const*)
                0x000000000003b91c                CMACAddress::SetBroadcast()
                0x000000000003b940                CMACAddress::Get() const
                0x000000000003b970                CMACAddress::CopyTo(unsigned char*) const
                0x000000000003b9d0                CMACAddress::IsBroadcast() const
                0x000000000003ba2c                CMACAddress::GetSize() const
                0x000000000003ba34                CMACAddress::Format(CString*) const
 .text          0x000000000003babc       0xf8 ../../lib/libcircle.a(netdevice.o)
                0x000000000003babc                CNetDevice::AddNetDevice()
                0x000000000003bae0                CNetDevice::GetSpeedString(TNetDeviceSpeed)
                0x000000000003bafc                CNetDevice::GetNetDevice(unsigned int)
                0x000000000003bb1c                CNetDevice::GetNetDevice(TNetDeviceType)
 .text          0x000000000003bbb4      0x198 ../../lib/libcircle.a(numberpool.o)
                0x000000000003bbb4                CNumberPool::CNumberPool(unsigned int, unsigned int)
                0x000000000003bbb4                CNumberPool::CNumberPool(unsigned int, unsigned int)
                0x000000000003bc04                CNumberPool::~CNumberPool()
                0x000000000003bc04                CNumberPool::~CNumberPool()
                0x000000000003bc08                CNumberPool::AllocateNumber(bool, char const*)
                0x000000000003bcd0                CNumberPool::FreeNumber(unsigned int)
 .text          0x000000000003bd4c        0x0 /home/olf/projects/circle/gcc-arm-9.2-2019.12-x86_64-arm-none-eabi/bin/../lib/gcc/arm-none-eabi/9.2.1/../../../../arm-none-eabi/lib/thumb/v7ve+simd/hard/libstdc++.a(vmi_class_type_info.o)
 .text._ZN10__cxxabiv121__vmi_class_type_infoD2Ev
                0x000000000003bd4c       0x14 /home/olf/projects/circle/gcc-arm-9.2-2019.12-x86_64-arm-none-eabi/bin/../lib/gcc/arm-none-eabi/9.2.1/../../../../arm-none-eabi/lib/thumb/v7ve+simd/hard/libstdc++.a(vmi_class_type_info.o)
                0x000000000003bd4c                __cxxabiv1::__vmi_class_type_info::~__vmi_class_type_info()
                0x000000000003bd4c                __cxxabiv1::__vmi_class_type_info::~__vmi_class_type_info()
 .text._ZN10__cxxabiv121__vmi_class_type_infoD0Ev
                0x000000000003bd60       0x1c /home/olf/projects/circle/gcc-arm-9.2-2019.12-x86_64-arm-none-eabi/bin/../lib/gcc/arm-none-eabi/9.2.1/../../../../arm-none-eabi/lib/thumb/v7ve+simd/hard/libstdc++.a(vmi_class_type_info.o)
                0x000000000003bd60                __cxxabiv1::__vmi_class_type_info::~__vmi_class_type_info()
 .text._ZNK10__cxxabiv121__vmi_class_type_info20__do_find_public_srcEiPKvPKNS_17__class_type_infoES2_
                0x000000000003bd7c       0x88 /home/olf/projects/circle/gcc-arm-9.2-2019.12-x86_64-arm-none-eabi/bin/../lib/gcc/arm-none-eabi/9.2.1/../../../../arm-none-eabi/lib/thumb/v7ve+simd/hard/libstdc++.a(vmi_class_type_info.o)
                0x000000000003bd7c                __cxxabiv1::__vmi_class_type_info::__do_find_public_src(int, void const*, __cxxabiv1::__class_type_info const*, void const*) const
 .text._ZNK10__cxxabiv121__vmi_class_type_info12__do_dyncastEiNS_17__class_type_info10__sub_kindEPKS1_PKvS4_S6_RNS1_16__dyncast_resultE
                0x000000000003be04      0x3e4 /home/olf/projects/circle/gcc-arm-9.2-2019.12-x86_64-arm-none-eabi/bin/../lib/gcc/arm-none-eabi/9.2.1/../../../../arm-none-eabi/lib/thumb/v7ve+simd/hard/libstdc++.a(vmi_class_type_info.o)
                0x000000000003be04                __cxxabiv1::__vmi_class_type_info::__do_dyncast(int, __cxxabiv1::__class_type_info::__sub_kind, __cxxabiv1::__class_type_info const*, void const*, __cxxabiv1::__class_type_info const*, void const*, __cxxabiv1::__class_type_info::__dyncast_result&) const
 .text._ZNK10__cxxabiv121__vmi_class_type_info11__do_upcastEPKNS_17__class_type_infoEPKvRNS1_15__upcast_resultE
                0x000000000003c1e8      0x164 /home/olf/projects/circle/gcc-arm-9.2-2019.12-x86_64-arm-none-eabi/bin/../lib/gcc/arm-none-eabi/9.2.1/../../../../arm-none-eabi/lib/thumb/v7ve+simd/hard/libstdc++.a(vmi_class_type_info.o)
                0x000000000003c1e8                __cxxabiv1::__vmi_class_type_info::__do_upcast(__cxxabiv1::__class_type_info const*, void const*, __cxxabiv1::__class_type_info::__upcast_result&) const
 *fill*         0x000000000003c34c        0x4 
 .text._ZNK10__cxxabiv121__vmi_class_type_info11__do_upcastEPKNS_17__class_type_infoEPKvRNS1_15__upcast_resultE.__stub
                0x000000000003c350       0x28 linker stubs
                0x000000000003c378                _etext = .

.glue_7         0x000000000003c378        0x0
 .glue_7        0x000000000003c378        0x0 linker stubs

.glue_7t        0x000000000003c378        0x0
 .glue_7t       0x000000000003c378        0x0 linker stubs

.vfp11_veneer   0x000000000003c378        0x0
 .vfp11_veneer  0x000000000003c378        0x0 linker stubs

.v4_bx          0x000000000003c378        0x0
 .v4_bx         0x000000000003c378        0x0 linker stubs

.iplt           0x000000000003c378        0x0
 .iplt          0x000000000003c378        0x0 main.o

.rodata         0x000000000003c378     0x8aa4
 *(.rodata*)
 .rodata.str1.4
                0x000000000003c378       0x93 ../../lib/libcircle.a(devicenameservice.o)
                                         0x96 (size before relaxing)
 *fill*         0x000000000003c40b        0x1 
 .rodata        0x000000000003c40c      0x2fa ../../lib/libcircle.a(gpiopin.o)
                0x000000000003c40c                vtable for CGPIOPin
                0x000000000003c6f4                typeinfo for CGPIOPin
                0x000000000003c6fc                typeinfo name for CGPIOPin
 *fill*         0x000000000003c706        0x2 
 .rodata.str1.4
                0x000000000003c708       0x8e ../../lib/libcircle.a(koptions.o)
 *fill*         0x000000000003c796        0x2 
 .rodata        0x000000000003c798      0x1df ../../lib/libcircle.a(machineinfo.o)
 .rodata.str1.4
                0x000000000003c977        0x5 ../../lib/libcircle.a(screen.o)
 *fill*         0x000000000003c977        0x1 
 .rodata        0x000000000003c978       0x44 ../../lib/libcircle.a(screen.o)
                0x000000000003c978                vtable for CScreenDevice
                0x000000000003c9a0                typeinfo for CScreenDevice
                0x000000000003c9ac                typeinfo name for CScreenDevice
 .rodata.str1.4
                0x000000000003c9bc       0x13 ../../lib/libcircle.a(string.o)
                                         0x17 (size before relaxing)
 *fill*         0x000000000003c9cf        0x1 
 .rodata        0x000000000003c9d0       0x24 ../../lib/libcircle.a(string.o)
                0x000000000003c9d0                vtable for CString
                0x000000000003c9e0                typeinfo name for CString
                0x000000000003c9ec                typeinfo for CString
 .rodata.str1.4
                0x000000000003c9f4      0x1c8 ../../lib/libcircle.a(timer.o)
                                        0x1d8 (size before relaxing)
 .rodata        0x000000000003cbbc       0x36 ../../lib/libcircle.a(timer.o)
                0x000000000003cbbc                CTimer::s_nDaysOfMonth
 *fill*         0x000000000003cbf2        0x2 
 .rodata        0x000000000003cbf4       0x4a ../../lib/libcircle.a(virtualgpiopin.o)
                0x000000000003cbf4                vtable for CVirtualGPIOPin
                0x000000000003cc24                typeinfo for CVirtualGPIOPin
                0x000000000003cc2c                typeinfo name for CVirtualGPIOPin
 *fill*         0x000000000003cc3e        0x2 
 .rodata        0x000000000003cc40       0x8e ../../lib/libcircle.a(memory.o)
 *fill*         0x000000000003ccce        0x2 
 .rodata.str1.4
                0x000000000003ccd0       0xb5 ../../lib/libcircle.a(synchronize.o)
 *fill*         0x000000000003cd85        0x3 
 .rodata.str1.4
                0x000000000003cd88       0xe6 ../../lib/libcircle.a(interrupt.o)
                                        0x106 (size before relaxing)
 *fill*         0x000000000003ce6e        0x2 
 .rodata.str1.4
                0x000000000003ce70       0x1d ../../lib/libcircle.a(assert.o)
 *fill*         0x000000000003ce8d        0x3 
 .rodata        0x000000000003ce90       0x97 ../../lib/libcircle.a(bcmpropertytags.o)
 *fill*         0x000000000003cf27        0x1 
 .rodata.str1.4
                0x000000000003cf28       0x29 ../../lib/libcircle.a(chargenerator.o)
 *fill*         0x000000000003cf51        0x3 
 .rodata        0x000000000003cf54      0xdf0 ../../lib/libcircle.a(chargenerator.o)
 .rodata.str1.4
                0x000000000003dd44       0x93 ../../lib/libcircle.a(debug.o)
 *fill*         0x000000000003ddd7        0x1 
 .rodata        0x000000000003ddd8        0x6 ../../lib/libcircle.a(debug.o)
 *fill*         0x000000000003ddde        0x2 
 .rodata        0x000000000003dde0       0x34 ../../lib/libcircle.a(device.o)
                0x000000000003dde0                vtable for CDevice
                0x000000000003de00                typeinfo name for CDevice
                0x000000000003de0c                typeinfo for CDevice
 .rodata        0x000000000003de14      0x33f ../../lib/libcircle.a(dmachannel.o)
 *fill*         0x000000000003e153        0x1 
 .rodata.str1.4
                0x000000000003e154       0x9c ../../lib/libcircle.a(gpiomanager.o)
 .rodata        0x000000000003e1f0       0x3d ../../lib/libcircle.a(logger.o)
 *fill*         0x000000000003e22d        0x3 
 .rodata.str1.4
                0x000000000003e230      0x176 ../../lib/libcircle.a(ptrlist.o)
 *fill*         0x000000000003e3a6        0x2 
 .rodata.str1.4
                0x000000000003e3a8       0x7b ../../lib/libcircle.a(heapallocator.o)
 *fill*         0x000000000003e423        0x1 
 .rodata        0x000000000003e424       0x48 ../../lib/libcircle.a(pageallocator.o)
 .rodata.str1.4
                0x000000000003e46c       0x23 ../../lib/libcircle.a(bcmmailbox.o)
 *fill*         0x000000000003e48f        0x1 
 .rodata.str1.4
                0x000000000003e490       0xc4 ../../lib/libcircle.a(exceptionhandler.o)
                                         0xe4 (size before relaxing)
 .rodata        0x000000000003e554        0x7 ../../lib/libcircle.a(exceptionhandler.o)
 *fill*         0x000000000003e55b        0x1 
 .rodata._ZTIN10__cxxabiv117__class_type_infoE
                0x000000000003e55c        0xc /home/olf/projects/circle/gcc-arm-9.2-2019.12-x86_64-arm-none-eabi/bin/../lib/gcc/arm-none-eabi/9.2.1/../../../../arm-none-eabi/lib/thumb/v7ve+simd/hard/libstdc++.a(class_type_info.o)
                0x000000000003e55c                typeinfo for __cxxabiv1::__class_type_info
 .rodata._ZTSN10__cxxabiv117__class_type_infoE
                0x000000000003e568       0x22 /home/olf/projects/circle/gcc-arm-9.2-2019.12-x86_64-arm-none-eabi/bin/../lib/gcc/arm-none-eabi/9.2.1/../../../../arm-none-eabi/lib/thumb/v7ve+simd/hard/libstdc++.a(class_type_info.o)
                0x000000000003e568                typeinfo name for __cxxabiv1::__class_type_info
 *fill*         0x000000000003e58a        0x2 
 .rodata._ZTVN10__cxxabiv117__class_type_infoE
                0x000000000003e58c       0x2c /home/olf/projects/circle/gcc-arm-9.2-2019.12-x86_64-arm-none-eabi/bin/../lib/gcc/arm-none-eabi/9.2.1/../../../../arm-none-eabi/lib/thumb/v7ve+simd/hard/libstdc++.a(class_type_info.o)
                0x000000000003e58c                vtable for __cxxabiv1::__class_type_info
 .rodata._ZNKSt9exception4whatEv.str1.4
                0x000000000003e5b8        0xf /home/olf/projects/circle/gcc-arm-9.2-2019.12-x86_64-arm-none-eabi/bin/../lib/gcc/arm-none-eabi/9.2.1/../../../../arm-none-eabi/lib/thumb/v7ve+simd/hard/libstdc++.a(eh_exception.o)
 *fill*         0x000000000003e5c7        0x1 
 .rodata._ZNKSt13bad_exception4whatEv.str1.4
                0x000000000003e5c8       0x13 /home/olf/projects/circle/gcc-arm-9.2-2019.12-x86_64-arm-none-eabi/bin/../lib/gcc/arm-none-eabi/9.2.1/../../../../arm-none-eabi/lib/thumb/v7ve+simd/hard/libstdc++.a(eh_exception.o)
 *fill*         0x000000000003e5db        0x1 
 .rodata._ZTIN10__cxxabiv115__forced_unwindE
                0x000000000003e5dc        0x8 /home/olf/projects/circle/gcc-arm-9.2-2019.12-x86_64-arm-none-eabi/bin/../lib/gcc/arm-none-eabi/9.2.1/../../../../arm-none-eabi/lib/thumb/v7ve+simd/hard/libstdc++.a(eh_exception.o)
                0x000000000003e5dc                typeinfo for __cxxabiv1::__forced_unwind
 .rodata._ZTIN10__cxxabiv119__foreign_exceptionE
                0x000000000003e5e4        0x8 /home/olf/projects/circle/gcc-arm-9.2-2019.12-x86_64-arm-none-eabi/bin/../lib/gcc/arm-none-eabi/9.2.1/../../../../arm-none-eabi/lib/thumb/v7ve+simd/hard/libstdc++.a(eh_exception.o)
                0x000000000003e5e4                typeinfo for __cxxabiv1::__foreign_exception
 .rodata._ZTISt13bad_exception
                0x000000000003e5ec        0xc /home/olf/projects/circle/gcc-arm-9.2-2019.12-x86_64-arm-none-eabi/bin/../lib/gcc/arm-none-eabi/9.2.1/../../../../arm-none-eabi/lib/thumb/v7ve+simd/hard/libstdc++.a(eh_exception.o)
                0x000000000003e5ec                typeinfo for std::bad_exception
 .rodata._ZTISt9exception
                0x000000000003e5f8        0x8 /home/olf/projects/circle/gcc-arm-9.2-2019.12-x86_64-arm-none-eabi/bin/../lib/gcc/arm-none-eabi/9.2.1/../../../../arm-none-eabi/lib/thumb/v7ve+simd/hard/libstdc++.a(eh_exception.o)
                0x000000000003e5f8                typeinfo for std::exception
 .rodata._ZTSN10__cxxabiv115__forced_unwindE
                0x000000000003e600       0x20 /home/olf/projects/circle/gcc-arm-9.2-2019.12-x86_64-arm-none-eabi/bin/../lib/gcc/arm-none-eabi/9.2.1/../../../../arm-none-eabi/lib/thumb/v7ve+simd/hard/libstdc++.a(eh_exception.o)
                0x000000000003e600                typeinfo name for __cxxabiv1::__forced_unwind
 .rodata._ZTSN10__cxxabiv119__foreign_exceptionE
                0x000000000003e620       0x24 /home/olf/projects/circle/gcc-arm-9.2-2019.12-x86_64-arm-none-eabi/bin/../lib/gcc/arm-none-eabi/9.2.1/../../../../arm-none-eabi/lib/thumb/v7ve+simd/hard/libstdc++.a(eh_exception.o)
                0x000000000003e620                typeinfo name for __cxxabiv1::__foreign_exception
 .rodata._ZTSSt13bad_exception
                0x000000000003e644       0x12 /home/olf/projects/circle/gcc-arm-9.2-2019.12-x86_64-arm-none-eabi/bin/../lib/gcc/arm-none-eabi/9.2.1/../../../../arm-none-eabi/lib/thumb/v7ve+simd/hard/libstdc++.a(eh_exception.o)
                0x000000000003e644                typeinfo name for std::bad_exception
 *fill*         0x000000000003e656        0x2 
 .rodata._ZTSSt9exception
                0x000000000003e658        0xd /home/olf/projects/circle/gcc-arm-9.2-2019.12-x86_64-arm-none-eabi/bin/../lib/gcc/arm-none-eabi/9.2.1/../../../../arm-none-eabi/lib/thumb/v7ve+simd/hard/libstdc++.a(eh_exception.o)
                0x000000000003e658                typeinfo name for std::exception
 *fill*         0x000000000003e665        0x3 
 .rodata._ZTVN10__cxxabiv115__forced_unwindE
                0x000000000003e668       0x14 /home/olf/projects/circle/gcc-arm-9.2-2019.12-x86_64-arm-none-eabi/bin/../lib/gcc/arm-none-eabi/9.2.1/../../../../arm-none-eabi/lib/thumb/v7ve+simd/hard/libstdc++.a(eh_exception.o)
                0x000000000003e668                vtable for __cxxabiv1::__forced_unwind
 .rodata._ZTVN10__cxxabiv119__foreign_exceptionE
                0x000000000003e67c       0x14 /home/olf/projects/circle/gcc-arm-9.2-2019.12-x86_64-arm-none-eabi/bin/../lib/gcc/arm-none-eabi/9.2.1/../../../../arm-none-eabi/lib/thumb/v7ve+simd/hard/libstdc++.a(eh_exception.o)
                0x000000000003e67c                vtable for __cxxabiv1::__foreign_exception
 .rodata._ZTVSt13bad_exception
                0x000000000003e690       0x14 /home/olf/projects/circle/gcc-arm-9.2-2019.12-x86_64-arm-none-eabi/bin/../lib/gcc/arm-none-eabi/9.2.1/../../../../arm-none-eabi/lib/thumb/v7ve+simd/hard/libstdc++.a(eh_exception.o)
                0x000000000003e690                vtable for std::bad_exception
 .rodata._ZTVSt9exception
                0x000000000003e6a4       0x14 /home/olf/projects/circle/gcc-arm-9.2-2019.12-x86_64-arm-none-eabi/bin/../lib/gcc/arm-none-eabi/9.2.1/../../../../arm-none-eabi/lib/thumb/v7ve+simd/hard/libstdc++.a(eh_exception.o)
                0x000000000003e6a4                vtable for std::exception
 .rodata.__cxa_pure_virtual.str1.4
                0x000000000003e6b8       0x1c /home/olf/projects/circle/gcc-arm-9.2-2019.12-x86_64-arm-none-eabi/bin/../lib/gcc/arm-none-eabi/9.2.1/../../../../arm-none-eabi/lib/thumb/v7ve+simd/hard/libstdc++.a(pure.o)
 .rodata.__cxa_deleted_virtual.str1.4
                0x000000000003e6d4       0x1f /home/olf/projects/circle/gcc-arm-9.2-2019.12-x86_64-arm-none-eabi/bin/../lib/gcc/arm-none-eabi/9.2.1/../../../../arm-none-eabi/lib/thumb/v7ve+simd/hard/libstdc++.a(pure.o)
 *fill*         0x000000000003e6f3        0x1 
 .rodata._ZTIN10__cxxabiv120__si_class_type_infoE
                0x000000000003e6f4        0xc /home/olf/projects/circle/gcc-arm-9.2-2019.12-x86_64-arm-none-eabi/bin/../lib/gcc/arm-none-eabi/9.2.1/../../../../arm-none-eabi/lib/thumb/v7ve+simd/hard/libstdc++.a(si_class_type_info.o)
                0x000000000003e6f4                typeinfo for __cxxabiv1::__si_class_type_info
 .rodata._ZTSN10__cxxabiv120__si_class_type_infoE
                0x000000000003e700       0x25 /home/olf/projects/circle/gcc-arm-9.2-2019.12-x86_64-arm-none-eabi/bin/../lib/gcc/arm-none-eabi/9.2.1/../../../../arm-none-eabi/lib/thumb/v7ve+simd/hard/libstdc++.a(si_class_type_info.o)
                0x000000000003e700                typeinfo name for __cxxabiv1::__si_class_type_info
 *fill*         0x000000000003e725        0x3 
 .rodata._ZTVN10__cxxabiv120__si_class_type_infoE
                0x000000000003e728       0x2c /home/olf/projects/circle/gcc-arm-9.2-2019.12-x86_64-arm-none-eabi/bin/../lib/gcc/arm-none-eabi/9.2.1/../../../../arm-none-eabi/lib/thumb/v7ve+simd/hard/libstdc++.a(si_class_type_info.o)
                0x000000000003e728                vtable for __cxxabiv1::__si_class_type_info
 .rodata._ZTISt9type_info
                0x000000000003e754        0x8 /home/olf/projects/circle/gcc-arm-9.2-2019.12-x86_64-arm-none-eabi/bin/../lib/gcc/arm-none-eabi/9.2.1/../../../../arm-none-eabi/lib/thumb/v7ve+simd/hard/libstdc++.a(tinfo.o)
                0x000000000003e754                typeinfo for std::type_info
 .rodata._ZTSSt9type_info
                0x000000000003e75c        0xd /home/olf/projects/circle/gcc-arm-9.2-2019.12-x86_64-arm-none-eabi/bin/../lib/gcc/arm-none-eabi/9.2.1/../../../../arm-none-eabi/lib/thumb/v7ve+simd/hard/libstdc++.a(tinfo.o)
                0x000000000003e75c                typeinfo name for std::type_info
 *fill*         0x000000000003e769        0x3 
 .rodata._ZTVSt9type_info
                0x000000000003e76c       0x20 /home/olf/projects/circle/gcc-arm-9.2-2019.12-x86_64-arm-none-eabi/bin/../lib/gcc/arm-none-eabi/9.2.1/../../../../arm-none-eabi/lib/thumb/v7ve+simd/hard/libstdc++.a(tinfo.o)
                0x000000000003e76c                vtable for std::type_info
 .rodata._ZN9__gnu_cxx27__verbose_terminate_handlerEv.str1.4
                0x000000000003e78c       0x94 /home/olf/projects/circle/gcc-arm-9.2-2019.12-x86_64-arm-none-eabi/bin/../lib/gcc/arm-none-eabi/9.2.1/../../../../arm-none-eabi/lib/thumb/v7ve+simd/hard/libstdc++.a(vterminate.o)
 .rodata._ZNKSt9bad_alloc4whatEv.str1.4
                0x000000000003e820        0xf /home/olf/projects/circle/gcc-arm-9.2-2019.12-x86_64-arm-none-eabi/bin/../lib/gcc/arm-none-eabi/9.2.1/../../../../arm-none-eabi/lib/thumb/v7ve+simd/hard/libstdc++.a(bad_alloc.o)
 *fill*         0x000000000003e82f        0x1 
 .rodata._ZTISt9bad_alloc
                0x000000000003e830        0xc /home/olf/projects/circle/gcc-arm-9.2-2019.12-x86_64-arm-none-eabi/bin/../lib/gcc/arm-none-eabi/9.2.1/../../../../arm-none-eabi/lib/thumb/v7ve+simd/hard/libstdc++.a(bad_alloc.o)
                0x000000000003e830                typeinfo for std::bad_alloc
 .rodata._ZTSSt9bad_alloc
                0x000000000003e83c        0xd /home/olf/projects/circle/gcc-arm-9.2-2019.12-x86_64-arm-none-eabi/bin/../lib/gcc/arm-none-eabi/9.2.1/../../../../arm-none-eabi/lib/thumb/v7ve+simd/hard/libstdc++.a(bad_alloc.o)
                0x000000000003e83c                typeinfo name for std::bad_alloc
 *fill*         0x000000000003e849        0x3 
 .rodata._ZTVSt9bad_alloc
                0x000000000003e84c       0x14 /home/olf/projects/circle/gcc-arm-9.2-2019.12-x86_64-arm-none-eabi/bin/../lib/gcc/arm-none-eabi/9.2.1/../../../../arm-none-eabi/lib/thumb/v7ve+simd/hard/libstdc++.a(bad_alloc.o)
                0x000000000003e84c                vtable for std::bad_alloc
 .rodata._ZNKSt20bad_array_new_length4whatEv.str1.4
                0x000000000003e860       0x1a /home/olf/projects/circle/gcc-arm-9.2-2019.12-x86_64-arm-none-eabi/bin/../lib/gcc/arm-none-eabi/9.2.1/../../../../arm-none-eabi/lib/thumb/v7ve+simd/hard/libstdc++.a(bad_array_new.o)
 *fill*         0x000000000003e87a        0x2 
 .rodata._ZTISt20bad_array_new_length
                0x000000000003e87c        0xc /home/olf/projects/circle/gcc-arm-9.2-2019.12-x86_64-arm-none-eabi/bin/../lib/gcc/arm-none-eabi/9.2.1/../../../../arm-none-eabi/lib/thumb/v7ve+simd/hard/libstdc++.a(bad_array_new.o)
                0x000000000003e87c                typeinfo for std::bad_array_new_length
 .rodata._ZTSSt20bad_array_new_length
                0x000000000003e888       0x19 /home/olf/projects/circle/gcc-arm-9.2-2019.12-x86_64-arm-none-eabi/bin/../lib/gcc/arm-none-eabi/9.2.1/../../../../arm-none-eabi/lib/thumb/v7ve+simd/hard/libstdc++.a(bad_array_new.o)
                0x000000000003e888                typeinfo name for std::bad_array_new_length
 *fill*         0x000000000003e8a1        0x3 
 .rodata._ZTVSt20bad_array_new_length
                0x000000000003e8a4       0x14 /home/olf/projects/circle/gcc-arm-9.2-2019.12-x86_64-arm-none-eabi/bin/../lib/gcc/arm-none-eabi/9.2.1/../../../../arm-none-eabi/lib/thumb/v7ve+simd/hard/libstdc++.a(bad_array_new.o)
                0x000000000003e8a4                vtable for std::bad_array_new_length
 .rodata._ZNKSt8bad_cast4whatEv.str1.4
                0x000000000003e8b8        0xe /home/olf/projects/circle/gcc-arm-9.2-2019.12-x86_64-arm-none-eabi/bin/../lib/gcc/arm-none-eabi/9.2.1/../../../../arm-none-eabi/lib/thumb/v7ve+simd/hard/libstdc++.a(bad_cast.o)
 *fill*         0x000000000003e8c6        0x2 
 .rodata._ZTISt8bad_cast
                0x000000000003e8c8        0xc /home/olf/projects/circle/gcc-arm-9.2-2019.12-x86_64-arm-none-eabi/bin/../lib/gcc/arm-none-eabi/9.2.1/../../../../arm-none-eabi/lib/thumb/v7ve+simd/hard/libstdc++.a(bad_cast.o)
                0x000000000003e8c8                typeinfo for std::bad_cast
 .rodata._ZTSSt8bad_cast
                0x000000000003e8d4        0xc /home/olf/projects/circle/gcc-arm-9.2-2019.12-x86_64-arm-none-eabi/bin/../lib/gcc/arm-none-eabi/9.2.1/../../../../arm-none-eabi/lib/thumb/v7ve+simd/hard/libstdc++.a(bad_cast.o)
                0x000000000003e8d4                typeinfo name for std::bad_cast
 .rodata._ZTVSt8bad_cast
                0x000000000003e8e0       0x14 /home/olf/projects/circle/gcc-arm-9.2-2019.12-x86_64-arm-none-eabi/bin/../lib/gcc/arm-none-eabi/9.2.1/../../../../arm-none-eabi/lib/thumb/v7ve+simd/hard/libstdc++.a(bad_cast.o)
                0x000000000003e8e0                vtable for std::bad_cast
 .rodata._ZNKSt10bad_typeid4whatEv.str1.4
                0x000000000003e8f4       0x10 /home/olf/projects/circle/gcc-arm-9.2-2019.12-x86_64-arm-none-eabi/bin/../lib/gcc/arm-none-eabi/9.2.1/../../../../arm-none-eabi/lib/thumb/v7ve+simd/hard/libstdc++.a(bad_typeid.o)
 .rodata._ZTISt10bad_typeid
                0x000000000003e904        0xc /home/olf/projects/circle/gcc-arm-9.2-2019.12-x86_64-arm-none-eabi/bin/../lib/gcc/arm-none-eabi/9.2.1/../../../../arm-none-eabi/lib/thumb/v7ve+simd/hard/libstdc++.a(bad_typeid.o)
                0x000000000003e904                typeinfo for std::bad_typeid
 .rodata._ZTSSt10bad_typeid
                0x000000000003e910        0xf /home/olf/projects/circle/gcc-arm-9.2-2019.12-x86_64-arm-none-eabi/bin/../lib/gcc/arm-none-eabi/9.2.1/../../../../arm-none-eabi/lib/thumb/v7ve+simd/hard/libstdc++.a(bad_typeid.o)
                0x000000000003e910                typeinfo name for std::bad_typeid
 *fill*         0x000000000003e91f        0x1 
 .rodata._ZTVSt10bad_typeid
                0x000000000003e920       0x14 /home/olf/projects/circle/gcc-arm-9.2-2019.12-x86_64-arm-none-eabi/bin/../lib/gcc/arm-none-eabi/9.2.1/../../../../arm-none-eabi/lib/thumb/v7ve+simd/hard/libstdc++.a(bad_typeid.o)
                0x000000000003e920                vtable for std::bad_typeid
 .rodata.d_source_name.str1.4
                0x000000000003e934       0x22 /home/olf/projects/circle/gcc-arm-9.2-2019.12-x86_64-arm-none-eabi/bin/../lib/gcc/arm-none-eabi/9.2.1/../../../../arm-none-eabi/lib/thumb/v7ve+simd/hard/libstdc++.a(cp-demangle.o)
 *fill*         0x000000000003e956        0x2 
 .rodata.d_name.str1.4
                0x000000000003e958       0x14 /home/olf/projects/circle/gcc-arm-9.2-2019.12-x86_64-arm-none-eabi/bin/../lib/gcc/arm-none-eabi/9.2.1/../../../../arm-none-eabi/lib/thumb/v7ve+simd/hard/libstdc++.a(cp-demangle.o)
 .rodata.d_type.str1.4
                0x000000000003e96c       0x17 /home/olf/projects/circle/gcc-arm-9.2-2019.12-x86_64-arm-none-eabi/bin/../lib/gcc/arm-none-eabi/9.2.1/../../../../arm-none-eabi/lib/thumb/v7ve+simd/hard/libstdc++.a(cp-demangle.o)
 *fill*         0x000000000003e983        0x1 
 .rodata.d_print_comp.str1.4
                0x000000000003e984      0x2a1 /home/olf/projects/circle/gcc-arm-9.2-2019.12-x86_64-arm-none-eabi/bin/../lib/gcc/arm-none-eabi/9.2.1/../../../../arm-none-eabi/lib/thumb/v7ve+simd/hard/libstdc++.a(cp-demangle.o)
                                        0x2e5 (size before relaxing)
 *fill*         0x000000000003ec25        0x3 
 .rodata.d_print_mod.str1.4
                0x000000000003ec28       0x73 /home/olf/projects/circle/gcc-arm-9.2-2019.12-x86_64-arm-none-eabi/bin/../lib/gcc/arm-none-eabi/9.2.1/../../../../arm-none-eabi/lib/thumb/v7ve+simd/hard/libstdc++.a(cp-demangle.o)
 .rodata.d_print_array_type.isra.0.str1.4
                0x000000000003ec9b       0x73 /home/olf/projects/circle/gcc-arm-9.2-2019.12-x86_64-arm-none-eabi/bin/../lib/gcc/arm-none-eabi/9.2.1/../../../../arm-none-eabi/lib/thumb/v7ve+simd/hard/libstdc++.a(cp-demangle.o)
                                          0x3 (size before relaxing)
 *fill*         0x000000000003ec9b        0x1 
 .rodata.d_maybe_print_fold_expression.isra.0.str1.4
                0x000000000003ec9c        0xd /home/olf/projects/circle/gcc-arm-9.2-2019.12-x86_64-arm-none-eabi/bin/../lib/gcc/arm-none-eabi/9.2.1/../../../../arm-none-eabi/lib/thumb/v7ve+simd/hard/libstdc++.a(cp-demangle.o)
 *fill*         0x000000000003eca9        0x3 
 .rodata.str1.4
                0x000000000003ecac      0x4f2 /home/olf/projects/circle/gcc-arm-9.2-2019.12-x86_64-arm-none-eabi/bin/../lib/gcc/arm-none-eabi/9.2.1/../../../../arm-none-eabi/lib/thumb/v7ve+simd/hard/libstdc++.a(cp-demangle.o)
                                        0x51a (size before relaxing)
 *fill*         0x000000000003f19e        0x2 
 .rodata.cplus_demangle_builtin_types
                0x000000000003f1a0      0x2a8 /home/olf/projects/circle/gcc-arm-9.2-2019.12-x86_64-arm-none-eabi/bin/../lib/gcc/arm-none-eabi/9.2.1/../../../../arm-none-eabi/lib/thumb/v7ve+simd/hard/libstdc++.a(cp-demangle.o)
 .rodata.cplus_demangle_operators
                0x000000000003f448      0x440 /home/olf/projects/circle/gcc-arm-9.2-2019.12-x86_64-arm-none-eabi/bin/../lib/gcc/arm-none-eabi/9.2.1/../../../../arm-none-eabi/lib/thumb/v7ve+simd/hard/libstdc++.a(cp-demangle.o)
 .rodata.standard_subs
                0x000000000003f888       0xc4 /home/olf/projects/circle/gcc-arm-9.2-2019.12-x86_64-arm-none-eabi/bin/../lib/gcc/arm-none-eabi/9.2.1/../../../../arm-none-eabi/lib/thumb/v7ve+simd/hard/libstdc++.a(cp-demangle.o)
 .rodata._ZSt7nothrow
                0x000000000003f94c        0x1 /home/olf/projects/circle/gcc-arm-9.2-2019.12-x86_64-arm-none-eabi/bin/../lib/gcc/arm-none-eabi/9.2.1/../../../../arm-none-eabi/lib/thumb/v7ve+simd/hard/libstdc++.a(new_handler.o)
                0x000000000003f94c                std::nothrow
 *fill*         0x000000000003f94d        0x3 
 .rodata        0x000000000003f950        0x4 ../../../../install/arm-none-circle/lib/libc.a(lib_a-impure.o)
                0x000000000003f950                _global_impure_ptr
 .rodata        0x000000000003f954       0x80 ../../../../install/arm-none-circle/lib/libc.a(lib_a-svfprintf.o)
 .rodata        0x000000000003f9d4       0x12 ../../../../install/arm-none-circle/lib/libc.a(lib_a-dtoa.o)
 *fill*         0x000000000003f9e6        0x2 
 .rodata        0x000000000003f9e8       0x12 ../../../../install/arm-none-circle/lib/libc.a(lib_a-locale.o)
 *fill*         0x000000000003f9fa        0x6 
 .rodata        0x000000000003fa00      0x124 ../../../../install/arm-none-circle/lib/libc.a(lib_a-mprec.o)
                0x000000000003fa00                __mprec_tens
                0x000000000003fac8                __mprec_bigtens
                0x000000000003faf0                __mprec_tinytens
 .rodata        0x000000000003fb24       0x6c ../../../../install/arm-none-circle/lib/libc.a(lib_a-svfiprintf.o)
 .rodata        0x000000000003fb90      0x101 ../../../../install/arm-none-circle/lib/libc.a(lib_a-ctype_.o)
                0x000000000003fb90                _ctype_
 *fill*         0x000000000003fc91        0x3 
 .rodata        0x000000000003fc94      0x114 ../../../../install/arm-none-circle/lib/libcirclenewlib.a(io.o)
 .rodata.str1.4
                0x000000000003fda8       0x5e ../../lib/usb/libusb.a(usbhostcontroller.o)
                                         0x89 (size before relaxing)
 *fill*         0x000000000003fe06        0x2 
 .rodata        0x000000000003fe08       0x3c ../../lib/usb/libusb.a(usbhostcontroller.o)
                0x000000000003fe08                vtable for CUSBHostController
                0x000000000003fe24                typeinfo name for CUSBHostController
                0x000000000003fe3c                typeinfo for CUSBHostController
 .rodata.str1.4
                0x000000000003fe44      0x114 ../../lib/usb/libusb.a(usbrequest.o)
 .rodata.str1.4
                0x000000000003ff58      0x3e5 ../../lib/usb/libusb.a(usbstandardhub.o)
                                        0x3f1 (size before relaxing)
 *fill*         0x000000000004033d        0x3 
 .rodata        0x0000000000040340       0x5c ../../lib/usb/libusb.a(usbstandardhub.o)
                0x0000000000040340                vtable for CUSBStandardHub
                0x000000000004037c                typeinfo name for CUSBStandardHub
                0x0000000000040390                typeinfo for CUSBStandardHub
 .rodata.str1.4
                0x000000000004039c      0x39e ../../lib/usb/libusb.a(usbdevice.o)
                                        0x3b2 (size before relaxing)
 *fill*         0x000000000004073a        0x2 
 .rodata        0x000000000004073c       0x38 ../../lib/usb/libusb.a(usbdevice.o)
                0x000000000004073c                vtable for CUSBDevice
                0x000000000004075c                typeinfo name for CUSBDevice
                0x000000000004076c                typeinfo for CUSBDevice
 .rodata.str1.4
                0x0000000000040774      0x16e ../../lib/usb/libusb.a(usbdevicefactory.o)
                                        0x17a (size before relaxing)
 *fill*         0x00000000000408e2        0x2 
 .rodata.str1.4
                0x00000000000408e4      0x137 ../../lib/usb/libusb.a(usbendpoint.o)
                                        0x13b (size before relaxing)
 *fill*         0x0000000000040a1b        0x1 
 .rodata.str1.4
                0x0000000000040a1c       0x85 ../../lib/usb/libusb.a(usbfunction.o)
                                         0xcd (size before relaxing)
 *fill*         0x0000000000040aa1        0x3 
 .rodata        0x0000000000040aa4       0x50 ../../lib/usb/libusb.a(usbfunction.o)
                0x0000000000040aa4                vtable for CUSBFunction
                0x0000000000040ad8                typeinfo name for CUSBFunction
                0x0000000000040ae8                typeinfo for CUSBFunction
 .rodata.str1.4
                0x0000000000040af4       0x7d ../../lib/usb/libusb.a(usbgamepadps3.o)
                                         0x81 (size before relaxing)
 *fill*         0x0000000000040b71        0x3 
 .rodata        0x0000000000040b74       0xe8 ../../lib/usb/libusb.a(usbgamepadps3.o)
                0x0000000000040b74                vtable for CUSBGamePadPS3Device
                0x0000000000040bcc                CUSBGamePadPS3Device::s_CommandDefault
                0x0000000000040c38                typeinfo name for CUSBGamePadPS3Device
                0x0000000000040c50                typeinfo for CUSBGamePadPS3Device
 .rodata.str1.4
                0x0000000000040c5c       0x47 ../../lib/usb/libusb.a(usbgamepadps4.o)
                                         0x68 (size before relaxing)
 *fill*         0x0000000000040ca3        0x1 
 .rodata        0x0000000000040ca4       0xa0 ../../lib/usb/libusb.a(usbgamepadps4.o)
                0x0000000000040cc8                vtable for CUSBGamePadPS4Device
                0x0000000000040d20                typeinfo name for CUSBGamePadPS4Device
                0x0000000000040d38                typeinfo for CUSBGamePadPS4Device
 .rodata.str1.4
                0x0000000000040d44       0x6c ../../lib/usb/libusb.a(usbgamepadstandard.o)
                                         0x8c (size before relaxing)
 .rodata        0x0000000000040db0       0x80 ../../lib/usb/libusb.a(usbgamepadstandard.o)
                0x0000000000040db0                vtable for CUSBGamePadStandardDevice
                0x0000000000040e08                typeinfo name for CUSBGamePadStandardDevice
                0x0000000000040e24                typeinfo for CUSBGamePadStandardDevice
 .rodata.str1.4
                0x0000000000040e30       0xfa ../../lib/usb/libusb.a(usbgamepadswitchpro.o)
                                        0x11a (size before relaxing)
 *fill*         0x0000000000040f2a        0x2 
 .rodata        0x0000000000040f2c      0x108 ../../lib/usb/libusb.a(usbgamepadswitchpro.o)
                0x0000000000040f2c                vtable for CUSBGamePadSwitchProDevice
                0x0000000000041008                typeinfo name for CUSBGamePadSwitchProDevice
                0x0000000000041028                typeinfo for CUSBGamePadSwitchProDevice
 .rodata.str1.4
                0x0000000000041034       0x39 ../../lib/usb/libusb.a(usbgamepadxbox360.o)
                                         0x70 (size before relaxing)
 *fill*         0x000000000004106d        0x3 
 .rodata        0x0000000000041070       0xe4 ../../lib/usb/libusb.a(usbgamepadxbox360.o)
                0x0000000000041070                vtable for CUSBGamePadXbox360Device
                0x000000000004112c                typeinfo name for CUSBGamePadXbox360Device
                0x0000000000041148                typeinfo for CUSBGamePadXbox360Device
 .rodata.str1.4
                0x0000000000041154       0x42 ../../lib/usb/libusb.a(usbgamepadxboxone.o)
                                         0x66 (size before relaxing)
 *fill*         0x0000000000041196        0x2 
 .rodata        0x0000000000041198      0x144 ../../lib/usb/libusb.a(usbgamepadxboxone.o)
                0x0000000000041198                vtable for CUSBGamePadXboxOneDevice
                0x00000000000412b4                typeinfo name for CUSBGamePadXboxOneDevice
                0x00000000000412d0                typeinfo for CUSBGamePadXboxOneDevice
 .rodata.str1.4
                0x00000000000412dc       0xeb ../../lib/usb/libusb.a(usbhiddevice.o)
                                        0x143 (size before relaxing)
 *fill*         0x00000000000413c7        0x1 
 .rodata        0x00000000000413c8       0x54 ../../lib/usb/libusb.a(usbhiddevice.o)
                0x00000000000413d0                vtable for CUSBHIDDevice
                0x0000000000041400                typeinfo name for CUSBHIDDevice
                0x0000000000041410                typeinfo for CUSBHIDDevice
 .rodata.str1.4
                0x000000000004141c       0x5e ../../lib/usb/libusb.a(usbkeyboard.o)
 *fill*         0x000000000004147a        0x2 
 .rodata        0x000000000004147c       0x64 ../../lib/usb/libusb.a(usbkeyboard.o)
                0x000000000004147c                vtable for CUSBKeyboardDevice
                0x00000000000414bc                typeinfo name for CUSBKeyboardDevice
                0x00000000000414d4                typeinfo for CUSBKeyboardDevice
 .rodata        0x00000000000414e0      0x320 ../../lib/usb/libusb.a(usbmassdevice.o)
                0x00000000000414e8                vtable for CUSBBulkOnlyMassStorageDevice
                0x00000000000417d4                typeinfo for CUSBBulkOnlyMassStorageDevice
                0x00000000000417e0                typeinfo name for CUSBBulkOnlyMassStorageDevice
 .rodata.str1.4
                0x0000000000041800       0xf1 ../../lib/usb/libusb.a(usbmidi.o)
                                        0x13d (size before relaxing)
 *fill*         0x00000000000418f1        0x3 
 .rodata        0x00000000000418f4       0x9c ../../lib/usb/libusb.a(usbmidi.o)
                0x00000000000418f4                vtable for CUSBMIDIDevice
                0x0000000000041970                typeinfo name for CUSBMIDIDevice
                0x0000000000041984                typeinfo for CUSBMIDIDevice
 .rodata.str1.4
                0x0000000000041990       0x40 ../../lib/usb/libusb.a(usbmouse.o)
 .rodata        0x0000000000041990       0x58 ../../lib/usb/libusb.a(usbmouse.o)
                0x0000000000041990                vtable for CUSBMouseDevice
                0x00000000000419c8                typeinfo name for CUSBMouseDevice
                0x00000000000419dc                typeinfo for CUSBMouseDevice
 .rodata.str1.4
                0x00000000000419e8       0x39 ../../lib/usb/libusb.a(usbprinter.o)
                                         0x85 (size before relaxing)
 *fill*         0x0000000000041a21        0x3 
 .rodata        0x0000000000041a24       0x5c ../../lib/usb/libusb.a(usbprinter.o)
                0x0000000000041a24                vtable for CUSBPrinterDevice
                0x0000000000041a60                typeinfo name for CUSBPrinterDevice
                0x0000000000041a74                typeinfo for CUSBPrinterDevice
 .rodata.str1.4
                0x0000000000041a80      0x1a0 ../../lib/usb/libusb.a(lan7800.o)
                                        0x1d4 (size before relaxing)
 .rodata._ZTS10CNetDevice
                0x0000000000041c20        0xd ../../lib/usb/libusb.a(lan7800.o)
                0x0000000000041c20                typeinfo name for CNetDevice
 *fill*         0x0000000000041c2d        0x3 
 .rodata._ZTI10CNetDevice
                0x0000000000041c30        0x8 ../../lib/usb/libusb.a(lan7800.o)
                0x0000000000041c30                typeinfo for CNetDevice
 .rodata        0x0000000000041c38       0xb4 ../../lib/usb/libusb.a(lan7800.o)
                0x0000000000041c38                vtable for CLAN7800Device
                0x0000000000041cb8                typeinfo name for CLAN7800Device
                0x0000000000041ccc                typeinfo for CLAN7800Device
 .rodata.str1.4
                0x0000000000041cec      0x12c ../../lib/usb/libusb.a(smsc951x.o)
                                        0x228 (size before relaxing)
 .rodata        0x0000000000041e18       0xb8 ../../lib/usb/libusb.a(smsc951x.o)
                0x0000000000041e18                vtable for CSMSC951xDevice
                0x0000000000041e9c                typeinfo name for CSMSC951xDevice
                0x0000000000041eb0                typeinfo for CSMSC951xDevice
 .rodata.str1.4
                0x0000000000041ed0       0x8d ../../lib/usb/libusb.a(usbbluetooth.o)
                                        0x109 (size before relaxing)
 *fill*         0x0000000000041f5d        0x3 
 .rodata        0x0000000000041f60       0x5c ../../lib/usb/libusb.a(usbbluetooth.o)
                0x0000000000041f60                vtable for CUSBBluetoothDevice
                0x0000000000041f98                typeinfo name for CUSBBluetoothDevice
                0x0000000000041fb0                typeinfo for CUSBBluetoothDevice
 .rodata.str1.4
                0x0000000000041fbc       0x44 ../../lib/usb/libusb.a(usbcdcethernet.o)
                                         0xd9 (size before relaxing)
 .rodata        0x0000000000042000       0xa8 ../../lib/usb/libusb.a(usbcdcethernet.o)
                0x0000000000042000                vtable for CUSBCDCEthernetDevice
                0x0000000000042070                typeinfo name for CUSBCDCEthernetDevice
                0x0000000000042088                typeinfo for CUSBCDCEthernetDevice
 .rodata.str1.4
                0x00000000000420a8       0xa7 ../../lib/usb/libusb.a(usbconfigparser.o)
                                         0xb7 (size before relaxing)
 *fill*         0x000000000004214f        0x1 
 .rodata.str1.4
                0x0000000000042150       0x3e ../../lib/usb/libusb.a(usbgamepad.o)
                                         0x85 (size before relaxing)
 *fill*         0x000000000004218e        0x2 
 .rodata        0x0000000000042190       0x7c ../../lib/usb/libusb.a(usbgamepad.o)
                0x00000000000421a0                vtable for CUSBGamePadDevice
                0x00000000000421ec                typeinfo name for CUSBGamePadDevice
                0x0000000000042200                typeinfo for CUSBGamePadDevice
 .rodata.str1.4
                0x000000000004220c       0xa5 ../../lib/usb/libusb.a(usbstring.o)
                                         0xc5 (size before relaxing)
 *fill*         0x00000000000422b1        0x3 
 .rodata.str1.4
                0x00000000000422b4       0x77 ../../lib/input/libinput.a(keyboardbehaviour.o)
                                         0x93 (size before relaxing)
 *fill*         0x000000000004232b        0x1 
 .rodata.str1.4
                0x000000000004232c       0xec ../../lib/input/libinput.a(keymap.o)
                                        0x126 (size before relaxing)
 .rodata        0x0000000000042418     0x1800 ../../lib/input/libinput.a(keymap.o)
                0x0000000000042418                CKeyMap::s_DefaultMap
 .rodata.str1.4
                0x0000000000043c18        0xa ../../lib/input/libinput.a(mouse.o)
                                         0x3a (size before relaxing)
 *fill*         0x0000000000043c22        0x2 
 .rodata        0x0000000000043c24       0x4c ../../lib/input/libinput.a(mouse.o)
                0x0000000000043c24                vtable for CMouseDevice
                0x0000000000043c54                typeinfo name for CMouseDevice
                0x0000000000043c64                typeinfo for CMouseDevice
 .rodata.str1.4
                0x0000000000043c70      0x110 ../../lib/input/libinput.a(console.o)
                                        0x124 (size before relaxing)
 .rodata        0x0000000000043d80       0x38 ../../lib/input/libinput.a(console.o)
                0x0000000000043d80                vtable for CConsole
                0x0000000000043da0                typeinfo name for CConsole
                0x0000000000043dac                typeinfo for CConsole
 .rodata.str1.4
                0x0000000000043db8       0x25 ../../lib/input/libinput.a(keyboardbuffer.o)
                                         0x55 (size before relaxing)
 *fill*         0x0000000000043ddd        0x3 
 .rodata        0x0000000000043de0       0x40 ../../lib/input/libinput.a(keyboardbuffer.o)
                0x0000000000043de0                vtable for CKeyboardBuffer
                0x0000000000043e00                typeinfo name for CKeyboardBuffer
                0x0000000000043e14                typeinfo for CKeyboardBuffer
 .rodata.str1.4
                0x0000000000043e20       0x2d ../../lib/input/libinput.a(linediscipline.o)
                                         0x7a (size before relaxing)
 *fill*         0x0000000000043e4d        0x3 
 .rodata        0x0000000000043e50       0x40 ../../lib/input/libinput.a(linediscipline.o)
                0x0000000000043e50                vtable for CLineDiscipline
                0x0000000000043e70                typeinfo name for CLineDiscipline
                0x0000000000043e84                typeinfo for CLineDiscipline
 .rodata.str1.4
                0x0000000000043e90       0xb6 ../../lib/input/libinput.a(mousebehaviour.o)
                                         0xce (size before relaxing)
 *fill*         0x0000000000043f46        0x2 
 .rodata        0x0000000000043f48      0x400 ../../lib/input/libinput.a(mousebehaviour.o)
 .rodata.str1.4
                0x0000000000044348       0x35 ../../addon/fatfs/libfatfs.a(ff.o)
 *fill*         0x000000000004437d        0x3 
 .rodata        0x0000000000044380       0x9d ../../addon/fatfs/libfatfs.a(ff.o)
 *fill*         0x000000000004441d        0x3 
 .rodata.str1.4
                0x0000000000044420       0x36 ../../addon/fatfs/libfatfs.a(diskio.o)
 *fill*         0x0000000000044456        0x2 
 .rodata        0x0000000000044458       0x10 ../../addon/fatfs/libfatfs.a(diskio.o)
 .rodata.str1.4
                0x0000000000044468       0x1f ../../addon/fatfs/libfatfs.a(ffsystem.o)
 *fill*         0x0000000000044487        0x1 
 .rodata        0x0000000000044488      0x3b0 ../../addon/fatfs/libfatfs.a(ffunicode.o)
 .rodata.str1.4
                0x0000000000044838       0x7d ../../lib/fs/libfs.a(partitionmanager.o)
 *fill*         0x00000000000448b5        0x3 
 .rodata        0x00000000000448b8        0x6 ../../lib/fs/libfs.a(partitionmanager.o)
 *fill*         0x00000000000448be        0x2 
 .rodata.str1.4
                0x00000000000448c0        0xe ../../lib/fs/libfs.a(partition.o)
                                         0x1f (size before relaxing)
 *fill*         0x00000000000448ce        0x2 
 .rodata        0x00000000000448d0       0x3c ../../lib/fs/libfs.a(partition.o)
                0x00000000000448d0                vtable for CPartition
                0x00000000000448f0                typeinfo name for CPartition
                0x0000000000044900                typeinfo for CPartition
 .rodata.str1.4
                0x000000000004490c      0x156 ../../lib/sched/libsched.a(scheduler.o)
                                        0x179 (size before relaxing)
 *fill*         0x0000000000044a62        0x2 
 .rodata        0x0000000000044a64        0x6 ../../lib/sched/libsched.a(scheduler.o)
 *fill*         0x0000000000044a6a        0x2 
 .rodata.str1.4
                0x0000000000044a6c       0x6c ../../lib/sched/libsched.a(task.o)
                                         0x7c (size before relaxing)
 .rodata        0x0000000000044ad8       0x24 ../../lib/sched/libsched.a(task.o)
                0x0000000000044ad8                vtable for CTask
                0x0000000000044aec                typeinfo name for CTask
                0x0000000000044af4                typeinfo for CTask
 .rodata.str1.4
                0x0000000000044afc       0x39 ../../lib/sched/libsched.a(synchronizationevent.o)
 *fill*         0x0000000000044b35        0x3 
 .rodata.str1.4
                0x0000000000044b38       0x1d ../../lib/libcircle.a(alloc.o)
 *fill*         0x0000000000044b55        0x3 
 .rodata.str1.4
                0x0000000000044b58       0xed ../../lib/libcircle.a(classallocator.o)
 *fill*         0x0000000000044c45        0x3 
 .rodata.str1.4
                0x0000000000044c48       0x4e ../../lib/libcircle.a(macaddress.o)
                                         0x6a (size before relaxing)
 *fill*         0x0000000000044c96        0x2 
 .rodata.str1.4
                0x0000000000044c98       0x8f ../../lib/libcircle.a(netdevice.o)
                                         0x97 (size before relaxing)
 *fill*         0x0000000000044d27        0x1 
 .rodata.str1.4
                0x0000000000044d28       0x94 ../../lib/libcircle.a(numberpool.o)
 .rodata._ZTIN10__cxxabiv121__vmi_class_type_infoE
                0x0000000000044dbc        0xc /home/olf/projects/circle/gcc-arm-9.2-2019.12-x86_64-arm-none-eabi/bin/../lib/gcc/arm-none-eabi/9.2.1/../../../../arm-none-eabi/lib/thumb/v7ve+simd/hard/libstdc++.a(vmi_class_type_info.o)
                0x0000000000044dbc                typeinfo for __cxxabiv1::__vmi_class_type_info
 .rodata._ZTSN10__cxxabiv121__vmi_class_type_infoE
                0x0000000000044dc8       0x26 /home/olf/projects/circle/gcc-arm-9.2-2019.12-x86_64-arm-none-eabi/bin/../lib/gcc/arm-none-eabi/9.2.1/../../../../arm-none-eabi/lib/thumb/v7ve+simd/hard/libstdc++.a(vmi_class_type_info.o)
                0x0000000000044dc8                typeinfo name for __cxxabiv1::__vmi_class_type_info
 *fill*         0x0000000000044dee        0x2 
 .rodata._ZTVN10__cxxabiv121__vmi_class_type_infoE
                0x0000000000044df0       0x2c /home/olf/projects/circle/gcc-arm-9.2-2019.12-x86_64-arm-none-eabi/bin/../lib/gcc/arm-none-eabi/9.2.1/../../../../arm-none-eabi/lib/thumb/v7ve+simd/hard/libstdc++.a(vmi_class_type_info.o)
                0x0000000000044df0                vtable for __cxxabiv1::__vmi_class_type_info

.ARM.extab.text.startup
                0x0000000000044e1c       0x1c
 .ARM.extab.text.startup
                0x0000000000044e1c       0x1c main.o
 .ARM.extab.text.startup
                0x0000000000044e38        0x0 ../../lib/libcircle.a(gpiopin.o)
 .ARM.extab.text.startup
                0x0000000000044e38        0x0 ../../lib/libcircle.a(virtualgpiopin.o)
 .ARM.extab.text.startup
                0x0000000000044e38        0x0 ../../lib/libcircle.a(bcmmailbox.o)
 .ARM.extab.text.startup
                0x0000000000044e38        0x0 ../../lib/usb/libusb.a(usbstandardhub.o)
 .ARM.extab.text.startup
                0x0000000000044e38        0x0 ../../lib/usb/libusb.a(usbdevice.o)
 .ARM.extab.text.startup
                0x0000000000044e38        0x0 ../../lib/usb/libusb.a(usbkeyboard.o)
 .ARM.extab.text.startup
                0x0000000000044e38        0x0 ../../lib/usb/libusb.a(usbmassdevice.o)
 .ARM.extab.text.startup
                0x0000000000044e38        0x0 ../../lib/usb/libusb.a(usbmidi.o)
 .ARM.extab.text.startup
                0x0000000000044e38        0x0 ../../lib/usb/libusb.a(usbprinter.o)
 .ARM.extab.text.startup
                0x0000000000044e38        0x0 ../../lib/usb/libusb.a(usbbluetooth.o)
 .ARM.extab.text.startup
                0x0000000000044e38        0x0 ../../lib/usb/libusb.a(usbgamepad.o)
 .ARM.extab.text.startup
                0x0000000000044e38        0x0 ../../lib/input/libinput.a(mouse.o)

.ARM.extab      0x0000000000044e38      0xc64
 .ARM.extab     0x0000000000044e38       0x27 kernel.o
 *fill*         0x0000000000044e5f        0x1 
 .ARM.extab     0x0000000000044e60       0x24 ../../lib/libcircle.a(actled.o)
 .ARM.extab     0x0000000000044e84       0x69 ../../lib/libcircle.a(devicenameservice.o)
 .ARM.extab     0x0000000000044eed        0x0 ../../lib/libcircle.a(gpiopin.o)
 *fill*         0x0000000000044eed        0x3 
 .ARM.extab     0x0000000000044ef0       0x1b ../../lib/libcircle.a(koptions.o)
 *fill*         0x0000000000044f0b        0x1 
 .ARM.extab     0x0000000000044f0c       0x3a ../../lib/libcircle.a(machineinfo.o)
 *fill*         0x0000000000044f46        0x2 
 .ARM.extab     0x0000000000044f48       0x3d ../../lib/libcircle.a(screen.o)
 *fill*         0x0000000000044f85        0x3 
 .ARM.extab     0x0000000000044f88       0x28 ../../lib/libcircle.a(string.o)
 .ARM.extab     0x0000000000044fb0       0x1f ../../lib/libcircle.a(sysinit.o)
 *fill*         0x0000000000044fcf        0x1 
 .ARM.extab     0x0000000000044fd0       0x45 ../../lib/libcircle.a(timer.o)
 .ARM.extab     0x0000000000045015        0x0 ../../lib/libcircle.a(util.o)
 *fill*         0x0000000000045015        0x3 
 .ARM.extab     0x0000000000045018       0x36 ../../lib/libcircle.a(virtualgpiopin.o)
 .ARM.extab     0x000000000004504e        0x0 ../../lib/libcircle.a(chainboot.o)
 *fill*         0x000000000004504e        0x2 
 .ARM.extab     0x0000000000045050       0x40 ../../lib/libcircle.a(memory.o)
 .ARM.extab     0x0000000000045090        0x0 ../../lib/libcircle.a(pagetable.o)
 .ARM.extab     0x0000000000045090        0x0 ../../lib/libcircle.a(synchronize.o)
 .ARM.extab     0x0000000000045090        0x0 ../../lib/libcircle.a(interrupt.o)
 .ARM.extab     0x0000000000045090       0x1a ../../lib/libcircle.a(assert.o)
 *fill*         0x00000000000450aa        0x2 
 .ARM.extab     0x00000000000450ac       0xa0 ../../lib/libcircle.a(bcmframebuffer.o)
 .ARM.extab     0x000000000004514c        0x0 ../../lib/libcircle.a(bcmpropertytags.o)
 .ARM.extab     0x000000000004514c        0x0 ../../lib/libcircle.a(chargenerator.o)
 .ARM.extab     0x000000000004514c        0x0 ../../lib/libcircle.a(debug.o)
 .ARM.extab     0x000000000004514c       0x18 ../../lib/libcircle.a(device.o)
 .ARM.extab     0x0000000000045164        0xc ../../lib/libcircle.a(dmachannel.o)
 .ARM.extab     0x0000000000045170        0xc ../../lib/libcircle.a(gpiomanager.o)
 .ARM.extab     0x000000000004517c       0x2c ../../lib/libcircle.a(logger.o)
 .ARM.extab     0x00000000000451a8        0xc ../../lib/libcircle.a(ptrlist.o)
 .ARM.extab     0x00000000000451b4        0x0 ../../lib/libcircle.a(new.o)
 .ARM.extab     0x00000000000451b4        0x0 ../../lib/libcircle.a(heapallocator.o)
 .ARM.extab     0x00000000000451b4        0x0 ../../lib/libcircle.a(pageallocator.o)
 .ARM.extab     0x00000000000451b4        0x0 ../../lib/libcircle.a(bcmmailbox.o)
 .ARM.extab     0x00000000000451b4        0x0 ../../lib/libcircle.a(exceptionhandler.o)
 .ARM.extab     0x00000000000451b4       0x34 ../../lib/usb/libusb.a(usbhostcontroller.o)
 .ARM.extab     0x00000000000451e8       0x30 ../../lib/usb/libusb.a(usbrequest.o)
 .ARM.extab     0x0000000000045218       0x68 ../../lib/usb/libusb.a(usbstandardhub.o)
 .ARM.extab     0x0000000000045280       0xc5 ../../lib/usb/libusb.a(usbdevice.o)
 *fill*         0x0000000000045345        0x3 
 .ARM.extab     0x0000000000045348       0xc0 ../../lib/usb/libusb.a(usbdevicefactory.o)
 .ARM.extab     0x0000000000045408        0x0 ../../lib/usb/libusb.a(usbendpoint.o)
 .ARM.extab     0x0000000000045408       0x60 ../../lib/usb/libusb.a(usbfunction.o)
 .ARM.extab     0x0000000000045468       0x18 ../../lib/usb/libusb.a(usbgamepadps3.o)
 .ARM.extab     0x0000000000045480       0x34 ../../lib/usb/libusb.a(usbgamepadps4.o)
 .ARM.extab     0x00000000000454b4        0x0 ../../lib/usb/libusb.a(usbgamepadstandard.o)
 .ARM.extab     0x00000000000454b4       0x24 ../../lib/usb/libusb.a(usbgamepadswitchpro.o)
 .ARM.extab     0x00000000000454d8        0x0 ../../lib/usb/libusb.a(usbgamepadxbox360.o)
 .ARM.extab     0x00000000000454d8        0x0 ../../lib/usb/libusb.a(usbgamepadxboxone.o)
 .ARM.extab     0x00000000000454d8       0x7f ../../lib/usb/libusb.a(usbhiddevice.o)
 *fill*         0x0000000000045557        0x1 
 .ARM.extab     0x0000000000045558       0x24 ../../lib/usb/libusb.a(usbkeyboard.o)
 .ARM.extab     0x000000000004557c       0x62 ../../lib/usb/libusb.a(usbmassdevice.o)
 *fill*         0x00000000000455de        0x2 
 .ARM.extab     0x00000000000455e0       0x49 ../../lib/usb/libusb.a(usbmidi.o)
 *fill*         0x0000000000045629        0x3 
 .ARM.extab     0x000000000004562c       0x1c ../../lib/usb/libusb.a(usbmouse.o)
 .ARM.extab     0x0000000000045648       0x33 ../../lib/usb/libusb.a(usbprinter.o)
 *fill*         0x000000000004567b        0x1 
 .ARM.extab     0x000000000004567c       0x98 ../../lib/usb/libusb.a(lan7800.o)
 .ARM.extab     0x0000000000045714       0x8a ../../lib/usb/libusb.a(smsc951x.o)
 *fill*         0x000000000004579e        0x2 
 .ARM.extab     0x00000000000457a0       0x5e ../../lib/usb/libusb.a(usbbluetooth.o)
 *fill*         0x00000000000457fe        0x2 
 .ARM.extab     0x0000000000045800       0x8a ../../lib/usb/libusb.a(usbcdcethernet.o)
 .ARM.extab     0x000000000004588a        0x0 ../../lib/usb/libusb.a(usbconfigparser.o)
 *fill*         0x000000000004588a        0x2 
 .ARM.extab     0x000000000004588c        0xc ../../lib/usb/libusb.a(usbgamepad.o)
 .ARM.extab     0x0000000000045898       0x51 ../../lib/usb/libusb.a(usbstring.o)
 .ARM.extab     0x00000000000458e9        0x0 ../../lib/input/libinput.a(keyboardbehaviour.o)
 .ARM.extab     0x00000000000458e9        0x0 ../../lib/input/libinput.a(keymap.o)
 *fill*         0x00000000000458e9        0x3 
 .ARM.extab     0x00000000000458ec       0x29 ../../lib/input/libinput.a(mouse.o)
 *fill*         0x0000000000045915        0x3 
 .ARM.extab     0x0000000000045918       0x90 ../../lib/input/libinput.a(console.o)
 .ARM.extab     0x00000000000459a8       0x1a ../../lib/input/libinput.a(keyboardbuffer.o)
 .ARM.extab     0x00000000000459c2        0x0 ../../lib/input/libinput.a(linediscipline.o)
 *fill*         0x00000000000459c2        0x2 
 .ARM.extab     0x00000000000459c4       0x40 ../../lib/input/libinput.a(mousebehaviour.o)
 .ARM.extab     0x0000000000045a04        0x0 ../../addon/fatfs/libfatfs.a(diskio.o)
 .ARM.extab     0x0000000000045a04        0x0 ../../addon/fatfs/libfatfs.a(ffsystem.o)
 .ARM.extab     0x0000000000045a04       0x33 ../../lib/fs/libfs.a(partitionmanager.o)
 *fill*         0x0000000000045a37        0x1 
 .ARM.extab     0x0000000000045a38       0x18 ../../lib/fs/libfs.a(partition.o)
 .ARM.extab     0x0000000000045a50       0x18 ../../lib/sched/libsched.a(scheduler.o)
 .ARM.extab     0x0000000000045a68       0x26 ../../lib/sched/libsched.a(task.o)
 *fill*         0x0000000000045a8e        0x2 
 .ARM.extab     0x0000000000045a90        0xc ../../lib/sched/libsched.a(synchronizationevent.o)
 .ARM.extab     0x0000000000045a9c        0x0 ../../lib/libcircle.a(alloc.o)
 .ARM.extab     0x0000000000045a9c        0x0 ../../lib/libcircle.a(classallocator.o)
 .ARM.extab     0x0000000000045a9c        0x0 ../../lib/libcircle.a(macaddress.o)
 .ARM.extab     0x0000000000045a9c        0x0 ../../lib/libcircle.a(netdevice.o)
 .ARM.extab     0x0000000000045a9c        0x0 ../../lib/libcircle.a(numberpool.o)

.ARM.extab.text._ZNK10__cxxabiv117__class_type_info11__do_upcastEPKS0_PPv
                0x0000000000045a9c        0x0
 .ARM.extab.text._ZNK10__cxxabiv117__class_type_info11__do_upcastEPKS0_PPv
                0x0000000000045a9c        0x0 /home/olf/projects/circle/gcc-arm-9.2-2019.12-x86_64-arm-none-eabi/bin/../lib/gcc/arm-none-eabi/9.2.1/../../../../arm-none-eabi/lib/thumb/v7ve+simd/hard/libstdc++.a(class_type_info.o)

.ARM.extab.text._ZNK10__cxxabiv117__class_type_info20__do_find_public_srcEiPKvPKS0_S2_
                0x0000000000045a9c        0x0
 .ARM.extab.text._ZNK10__cxxabiv117__class_type_info20__do_find_public_srcEiPKvPKS0_S2_
                0x0000000000045a9c        0x0 /home/olf/projects/circle/gcc-arm-9.2-2019.12-x86_64-arm-none-eabi/bin/../lib/gcc/arm-none-eabi/9.2.1/../../../../arm-none-eabi/lib/thumb/v7ve+simd/hard/libstdc++.a(class_type_info.o)

.ARM.extab.text._ZN10__cxxabiv117__class_type_infoD2Ev
                0x0000000000045a9c        0x0
 .ARM.extab.text._ZN10__cxxabiv117__class_type_infoD2Ev
                0x0000000000045a9c        0x0 /home/olf/projects/circle/gcc-arm-9.2-2019.12-x86_64-arm-none-eabi/bin/../lib/gcc/arm-none-eabi/9.2.1/../../../../arm-none-eabi/lib/thumb/v7ve+simd/hard/libstdc++.a(class_type_info.o)

.ARM.extab.text._ZN10__cxxabiv117__class_type_infoD0Ev
                0x0000000000045a9c        0x0
 .ARM.extab.text._ZN10__cxxabiv117__class_type_infoD0Ev
                0x0000000000045a9c        0x0 /home/olf/projects/circle/gcc-arm-9.2-2019.12-x86_64-arm-none-eabi/bin/../lib/gcc/arm-none-eabi/9.2.1/../../../../arm-none-eabi/lib/thumb/v7ve+simd/hard/libstdc++.a(class_type_info.o)

.ARM.extab.text._ZNK10__cxxabiv117__class_type_info12__do_dyncastEiNS0_10__sub_kindEPKS0_PKvS3_S5_RNS0_16__dyncast_resultE
                0x0000000000045a9c        0x0
 .ARM.extab.text._ZNK10__cxxabiv117__class_type_info12__do_dyncastEiNS0_10__sub_kindEPKS0_PKvS3_S5_RNS0_16__dyncast_resultE
                0x0000000000045a9c        0x0 /home/olf/projects/circle/gcc-arm-9.2-2019.12-x86_64-arm-none-eabi/bin/../lib/gcc/arm-none-eabi/9.2.1/../../../../arm-none-eabi/lib/thumb/v7ve+simd/hard/libstdc++.a(class_type_info.o)

.ARM.extab.text._ZNK10__cxxabiv117__class_type_info11__do_upcastEPKS0_PKvRNS0_15__upcast_resultE
                0x0000000000045a9c        0x0
 .ARM.extab.text._ZNK10__cxxabiv117__class_type_info11__do_upcastEPKS0_PKvRNS0_15__upcast_resultE
                0x0000000000045a9c        0x0 /home/olf/projects/circle/gcc-arm-9.2-2019.12-x86_64-arm-none-eabi/bin/../lib/gcc/arm-none-eabi/9.2.1/../../../../arm-none-eabi/lib/thumb/v7ve+simd/hard/libstdc++.a(class_type_info.o)

.ARM.extab.text._ZNK10__cxxabiv117__class_type_info10__do_catchEPKSt9type_infoPPvj
                0x0000000000045a9c        0x0
 .ARM.extab.text._ZNK10__cxxabiv117__class_type_info10__do_catchEPKSt9type_infoPPvj
                0x0000000000045a9c        0x0 /home/olf/projects/circle/gcc-arm-9.2-2019.12-x86_64-arm-none-eabi/bin/../lib/gcc/arm-none-eabi/9.2.1/../../../../arm-none-eabi/lib/thumb/v7ve+simd/hard/libstdc++.a(class_type_info.o)

.ARM.extab.text._ZdlPvj
                0x0000000000045a9c        0x0
 .ARM.extab.text._ZdlPvj
                0x0000000000045a9c        0x0 /home/olf/projects/circle/gcc-arm-9.2-2019.12-x86_64-arm-none-eabi/bin/../lib/gcc/arm-none-eabi/9.2.1/../../../../arm-none-eabi/lib/thumb/v7ve+simd/hard/libstdc++.a(del_ops.o)

.ARM.extab.text._ZdaPv
                0x0000000000045a9c        0x0
 .ARM.extab.text._ZdaPv
                0x0000000000045a9c        0x0 /home/olf/projects/circle/gcc-arm-9.2-2019.12-x86_64-arm-none-eabi/bin/../lib/gcc/arm-none-eabi/9.2.1/../../../../arm-none-eabi/lib/thumb/v7ve+simd/hard/libstdc++.a(del_opv.o)

.ARM.extab.text.__cxa_type_match
                0x0000000000045a9c        0x0
 .ARM.extab.text.__cxa_type_match
                0x0000000000045a9c        0x0 /home/olf/projects/circle/gcc-arm-9.2-2019.12-x86_64-arm-none-eabi/bin/../lib/gcc/arm-none-eabi/9.2.1/../../../../arm-none-eabi/lib/thumb/v7ve+simd/hard/libstdc++.a(eh_arm.o)

.ARM.extab.text.__cxa_begin_cleanup
                0x0000000000045a9c        0x0
 .ARM.extab.text.__cxa_begin_cleanup
                0x0000000000045a9c        0x0 /home/olf/projects/circle/gcc-arm-9.2-2019.12-x86_64-arm-none-eabi/bin/../lib/gcc/arm-none-eabi/9.2.1/../../../../arm-none-eabi/lib/thumb/v7ve+simd/hard/libstdc++.a(eh_arm.o)

.ARM.extab.text.__gnu_end_cleanup
                0x0000000000045a9c        0x0
 .ARM.extab.text.__gnu_end_cleanup
                0x0000000000045a9c        0x0 /home/olf/projects/circle/gcc-arm-9.2-2019.12-x86_64-arm-none-eabi/bin/../lib/gcc/arm-none-eabi/9.2.1/../../../../arm-none-eabi/lib/thumb/v7ve+simd/hard/libstdc++.a(eh_arm.o)

.ARM.extab.text.unlikely.__cxa_bad_cast
                0x0000000000045a9c        0xc
 .ARM.extab.text.unlikely.__cxa_bad_cast
                0x0000000000045a9c        0xc /home/olf/projects/circle/gcc-arm-9.2-2019.12-x86_64-arm-none-eabi/bin/../lib/gcc/arm-none-eabi/9.2.1/../../../../arm-none-eabi/lib/thumb/v7ve+simd/hard/libstdc++.a(eh_aux_runtime.o)

.ARM.extab.text.unlikely.__cxa_bad_typeid
                0x0000000000045aa8        0xc
 .ARM.extab.text.unlikely.__cxa_bad_typeid
                0x0000000000045aa8        0xc /home/olf/projects/circle/gcc-arm-9.2-2019.12-x86_64-arm-none-eabi/bin/../lib/gcc/arm-none-eabi/9.2.1/../../../../arm-none-eabi/lib/thumb/v7ve+simd/hard/libstdc++.a(eh_aux_runtime.o)

.ARM.extab.text.unlikely.__cxa_throw_bad_array_new_length
                0x0000000000045ab4        0xc
 .ARM.extab.text.unlikely.__cxa_throw_bad_array_new_length
                0x0000000000045ab4        0xc /home/olf/projects/circle/gcc-arm-9.2-2019.12-x86_64-arm-none-eabi/bin/../lib/gcc/arm-none-eabi/9.2.1/../../../../arm-none-eabi/lib/thumb/v7ve+simd/hard/libstdc++.a(eh_aux_runtime.o)

.ARM.extab.text._ZNSt9exceptionD2Ev
                0x0000000000045ac0        0x0
 .ARM.extab.text._ZNSt9exceptionD2Ev
                0x0000000000045ac0        0x0 /home/olf/projects/circle/gcc-arm-9.2-2019.12-x86_64-arm-none-eabi/bin/../lib/gcc/arm-none-eabi/9.2.1/../../../../arm-none-eabi/lib/thumb/v7ve+simd/hard/libstdc++.a(eh_exception.o)

.ARM.extab.text._ZNSt13bad_exceptionD2Ev
                0x0000000000045ac0        0x0
 .ARM.extab.text._ZNSt13bad_exceptionD2Ev
                0x0000000000045ac0        0x0 /home/olf/projects/circle/gcc-arm-9.2-2019.12-x86_64-arm-none-eabi/bin/../lib/gcc/arm-none-eabi/9.2.1/../../../../arm-none-eabi/lib/thumb/v7ve+simd/hard/libstdc++.a(eh_exception.o)

.ARM.extab.text._ZNKSt9exception4whatEv
                0x0000000000045ac0        0x0
 .ARM.extab.text._ZNKSt9exception4whatEv
                0x0000000000045ac0        0x0 /home/olf/projects/circle/gcc-arm-9.2-2019.12-x86_64-arm-none-eabi/bin/../lib/gcc/arm-none-eabi/9.2.1/../../../../arm-none-eabi/lib/thumb/v7ve+simd/hard/libstdc++.a(eh_exception.o)

.ARM.extab.text._ZNKSt13bad_exception4whatEv
                0x0000000000045ac0        0x0
 .ARM.extab.text._ZNKSt13bad_exception4whatEv
                0x0000000000045ac0        0x0 /home/olf/projects/circle/gcc-arm-9.2-2019.12-x86_64-arm-none-eabi/bin/../lib/gcc/arm-none-eabi/9.2.1/../../../../arm-none-eabi/lib/thumb/v7ve+simd/hard/libstdc++.a(eh_exception.o)

.ARM.extab.text._ZNSt9exceptionD0Ev
                0x0000000000045ac0        0x0
 .ARM.extab.text._ZNSt9exceptionD0Ev
                0x0000000000045ac0        0x0 /home/olf/projects/circle/gcc-arm-9.2-2019.12-x86_64-arm-none-eabi/bin/../lib/gcc/arm-none-eabi/9.2.1/../../../../arm-none-eabi/lib/thumb/v7ve+simd/hard/libstdc++.a(eh_exception.o)

.ARM.extab.text._ZNSt13bad_exceptionD0Ev
                0x0000000000045ac0        0x0
 .ARM.extab.text._ZNSt13bad_exceptionD0Ev
                0x0000000000045ac0        0x0 /home/olf/projects/circle/gcc-arm-9.2-2019.12-x86_64-arm-none-eabi/bin/../lib/gcc/arm-none-eabi/9.2.1/../../../../arm-none-eabi/lib/thumb/v7ve+simd/hard/libstdc++.a(eh_exception.o)

.ARM.extab.text._ZN10__cxxabiv115__forced_unwindD2Ev
                0x0000000000045ac0        0x0
 .ARM.extab.text._ZN10__cxxabiv115__forced_unwindD2Ev
                0x0000000000045ac0        0x0 /home/olf/projects/circle/gcc-arm-9.2-2019.12-x86_64-arm-none-eabi/bin/../lib/gcc/arm-none-eabi/9.2.1/../../../../arm-none-eabi/lib/thumb/v7ve+simd/hard/libstdc++.a(eh_exception.o)

.ARM.extab.text._ZN10__cxxabiv115__forced_unwindD0Ev
                0x0000000000045ac0        0x0
 .ARM.extab.text._ZN10__cxxabiv115__forced_unwindD0Ev
                0x0000000000045ac0        0x0 /home/olf/projects/circle/gcc-arm-9.2-2019.12-x86_64-arm-none-eabi/bin/../lib/gcc/arm-none-eabi/9.2.1/../../../../arm-none-eabi/lib/thumb/v7ve+simd/hard/libstdc++.a(eh_exception.o)

.ARM.extab.text._ZN10__cxxabiv119__foreign_exceptionD2Ev
                0x0000000000045ac0        0x0
 .ARM.extab.text._ZN10__cxxabiv119__foreign_exceptionD2Ev
                0x0000000000045ac0        0x0 /home/olf/projects/circle/gcc-arm-9.2-2019.12-x86_64-arm-none-eabi/bin/../lib/gcc/arm-none-eabi/9.2.1/../../../../arm-none-eabi/lib/thumb/v7ve+simd/hard/libstdc++.a(eh_exception.o)

.ARM.extab.text._ZN10__cxxabiv119__foreign_exceptionD0Ev
                0x0000000000045ac0        0x0
 .ARM.extab.text._ZN10__cxxabiv119__foreign_exceptionD0Ev
                0x0000000000045ac0        0x0 /home/olf/projects/circle/gcc-arm-9.2-2019.12-x86_64-arm-none-eabi/bin/../lib/gcc/arm-none-eabi/9.2.1/../../../../arm-none-eabi/lib/thumb/v7ve+simd/hard/libstdc++.a(eh_exception.o)

.ARM.extab.text._ZGTtNKSt9exceptionD1Ev
                0x0000000000045ac0        0x0
 .ARM.extab.text._ZGTtNKSt9exceptionD1Ev
                0x0000000000045ac0        0x0 /home/olf/projects/circle/gcc-arm-9.2-2019.12-x86_64-arm-none-eabi/bin/../lib/gcc/arm-none-eabi/9.2.1/../../../../arm-none-eabi/lib/thumb/v7ve+simd/hard/libstdc++.a(eh_exception.o)

.ARM.extab.text._ZGTtNKSt13bad_exceptionD1Ev
                0x0000000000045ac0        0x0
 .ARM.extab.text._ZGTtNKSt13bad_exceptionD1Ev
                0x0000000000045ac0        0x0 /home/olf/projects/circle/gcc-arm-9.2-2019.12-x86_64-arm-none-eabi/bin/../lib/gcc/arm-none-eabi/9.2.1/../../../../arm-none-eabi/lib/thumb/v7ve+simd/hard/libstdc++.a(eh_exception.o)

.ARM.extab.text.__cxa_get_globals_fast
                0x0000000000045ac0        0x0
 .ARM.extab.text.__cxa_get_globals_fast
                0x0000000000045ac0        0x0 /home/olf/projects/circle/gcc-arm-9.2-2019.12-x86_64-arm-none-eabi/bin/../lib/gcc/arm-none-eabi/9.2.1/../../../../arm-none-eabi/lib/thumb/v7ve+simd/hard/libstdc++.a(eh_globals.o)

.ARM.extab.text.__cxa_get_globals
                0x0000000000045ac0        0x0
 .ARM.extab.text.__cxa_get_globals
                0x0000000000045ac0        0x0 /home/olf/projects/circle/gcc-arm-9.2-2019.12-x86_64-arm-none-eabi/bin/../lib/gcc/arm-none-eabi/9.2.1/../../../../arm-none-eabi/lib/thumb/v7ve+simd/hard/libstdc++.a(eh_globals.o)

.ARM.extab.text._ZL28read_encoded_value_with_basehjPKhPj
                0x0000000000045ac0        0x0
 .ARM.extab.text._ZL28read_encoded_value_with_basehjPKhPj
                0x0000000000045ac0        0x0 /home/olf/projects/circle/gcc-arm-9.2-2019.12-x86_64-arm-none-eabi/bin/../lib/gcc/arm-none-eabi/9.2.1/../../../../arm-none-eabi/lib/thumb/v7ve+simd/hard/libstdc++.a(eh_personality.o)

.ARM.extab.text._ZL21base_of_encoded_valuehP15_Unwind_Context
                0x0000000000045ac0        0xc
 .ARM.extab.text._ZL21base_of_encoded_valuehP15_Unwind_Context
                0x0000000000045ac0        0xc /home/olf/projects/circle/gcc-arm-9.2-2019.12-x86_64-arm-none-eabi/bin/../lib/gcc/arm-none-eabi/9.2.1/../../../../arm-none-eabi/lib/thumb/v7ve+simd/hard/libstdc++.a(eh_personality.o)

.ARM.extab.text._ZL17parse_lsda_headerP15_Unwind_ContextPKhP16lsda_header_info
                0x0000000000045acc        0x0
 .ARM.extab.text._ZL17parse_lsda_headerP15_Unwind_ContextPKhP16lsda_header_info
                0x0000000000045acc        0x0 /home/olf/projects/circle/gcc-arm-9.2-2019.12-x86_64-arm-none-eabi/bin/../lib/gcc/arm-none-eabi/9.2.1/../../../../arm-none-eabi/lib/thumb/v7ve+simd/hard/libstdc++.a(eh_personality.o)

.ARM.extab.text.__gxx_personality_v0
                0x0000000000045acc       0x24
 .ARM.extab.text.__gxx_personality_v0
                0x0000000000045acc       0x24 /home/olf/projects/circle/gcc-arm-9.2-2019.12-x86_64-arm-none-eabi/bin/../lib/gcc/arm-none-eabi/9.2.1/../../../../arm-none-eabi/lib/thumb/v7ve+simd/hard/libstdc++.a(eh_personality.o)

.ARM.extab.text._ZN10__cxxabiv111__terminateEPFvvE
                0x0000000000045af0       0x2c
 .ARM.extab.text._ZN10__cxxabiv111__terminateEPFvvE
                0x0000000000045af0       0x2c /home/olf/projects/circle/gcc-arm-9.2-2019.12-x86_64-arm-none-eabi/bin/../lib/gcc/arm-none-eabi/9.2.1/../../../../arm-none-eabi/lib/thumb/v7ve+simd/hard/libstdc++.a(eh_terminate.o)

.ARM.extab.text._ZSt9terminatev
                0x0000000000045b1c        0x0
 .ARM.extab.text._ZSt9terminatev
                0x0000000000045b1c        0x0 /home/olf/projects/circle/gcc-arm-9.2-2019.12-x86_64-arm-none-eabi/bin/../lib/gcc/arm-none-eabi/9.2.1/../../../../arm-none-eabi/lib/thumb/v7ve+simd/hard/libstdc++.a(eh_terminate.o)

.ARM.extab.text._ZN10__cxxabiv112__unexpectedEPFvvE
                0x0000000000045b1c        0xc
 .ARM.extab.text._ZN10__cxxabiv112__unexpectedEPFvvE
                0x0000000000045b1c        0xc /home/olf/projects/circle/gcc-arm-9.2-2019.12-x86_64-arm-none-eabi/bin/../lib/gcc/arm-none-eabi/9.2.1/../../../../arm-none-eabi/lib/thumb/v7ve+simd/hard/libstdc++.a(eh_terminate.o)

.ARM.extab.text._ZSt10unexpectedv
                0x0000000000045b28        0xc
 .ARM.extab.text._ZSt10unexpectedv
                0x0000000000045b28        0xc /home/olf/projects/circle/gcc-arm-9.2-2019.12-x86_64-arm-none-eabi/bin/../lib/gcc/arm-none-eabi/9.2.1/../../../../arm-none-eabi/lib/thumb/v7ve+simd/hard/libstdc++.a(eh_terminate.o)

.ARM.extab.text._ZSt13set_terminatePFvvE
                0x0000000000045b34        0x0
 .ARM.extab.text._ZSt13set_terminatePFvvE
                0x0000000000045b34        0x0 /home/olf/projects/circle/gcc-arm-9.2-2019.12-x86_64-arm-none-eabi/bin/../lib/gcc/arm-none-eabi/9.2.1/../../../../arm-none-eabi/lib/thumb/v7ve+simd/hard/libstdc++.a(eh_terminate.o)

.ARM.extab.text._ZSt13get_terminatev
                0x0000000000045b34        0x0
 .ARM.extab.text._ZSt13get_terminatev
                0x0000000000045b34        0x0 /home/olf/projects/circle/gcc-arm-9.2-2019.12-x86_64-arm-none-eabi/bin/../lib/gcc/arm-none-eabi/9.2.1/../../../../arm-none-eabi/lib/thumb/v7ve+simd/hard/libstdc++.a(eh_terminate.o)

.ARM.extab.text._ZSt14set_unexpectedPFvvE
                0x0000000000045b34        0x0
 .ARM.extab.text._ZSt14set_unexpectedPFvvE
                0x0000000000045b34        0x0 /home/olf/projects/circle/gcc-arm-9.2-2019.12-x86_64-arm-none-eabi/bin/../lib/gcc/arm-none-eabi/9.2.1/../../../../arm-none-eabi/lib/thumb/v7ve+simd/hard/libstdc++.a(eh_terminate.o)

.ARM.extab.text._ZSt14get_unexpectedv
                0x0000000000045b34        0x0
 .ARM.extab.text._ZSt14get_unexpectedv
                0x0000000000045b34        0x0 /home/olf/projects/circle/gcc-arm-9.2-2019.12-x86_64-arm-none-eabi/bin/../lib/gcc/arm-none-eabi/9.2.1/../../../../arm-none-eabi/lib/thumb/v7ve+simd/hard/libstdc++.a(eh_terminate.o)

.ARM.extab.text._ZL23__gxx_exception_cleanup19_Unwind_Reason_CodeP21_Unwind_Control_Block
                0x0000000000045b34        0x0
 .ARM.extab.text._ZL23__gxx_exception_cleanup19_Unwind_Reason_CodeP21_Unwind_Control_Block
                0x0000000000045b34        0x0 /home/olf/projects/circle/gcc-arm-9.2-2019.12-x86_64-arm-none-eabi/bin/../lib/gcc/arm-none-eabi/9.2.1/../../../../arm-none-eabi/lib/thumb/v7ve+simd/hard/libstdc++.a(eh_throw.o)

.ARM.extab.text.__cxa_init_primary_exception
                0x0000000000045b34        0x0
 .ARM.extab.text.__cxa_init_primary_exception
                0x0000000000045b34        0x0 /home/olf/projects/circle/gcc-arm-9.2-2019.12-x86_64-arm-none-eabi/bin/../lib/gcc/arm-none-eabi/9.2.1/../../../../arm-none-eabi/lib/thumb/v7ve+simd/hard/libstdc++.a(eh_throw.o)

.ARM.extab.text.__cxa_throw
                0x0000000000045b34        0x0
 .ARM.extab.text.__cxa_throw
                0x0000000000045b34        0x0 /home/olf/projects/circle/gcc-arm-9.2-2019.12-x86_64-arm-none-eabi/bin/../lib/gcc/arm-none-eabi/9.2.1/../../../../arm-none-eabi/lib/thumb/v7ve+simd/hard/libstdc++.a(eh_throw.o)

.ARM.extab.text.__cxa_rethrow
                0x0000000000045b34        0x0
 .ARM.extab.text.__cxa_rethrow
                0x0000000000045b34        0x0 /home/olf/projects/circle/gcc-arm-9.2-2019.12-x86_64-arm-none-eabi/bin/../lib/gcc/arm-none-eabi/9.2.1/../../../../arm-none-eabi/lib/thumb/v7ve+simd/hard/libstdc++.a(eh_throw.o)

.ARM.extab.text._Znwj
                0x0000000000045b34        0x0
 .ARM.extab.text._Znwj
                0x0000000000045b34        0x0 /home/olf/projects/circle/gcc-arm-9.2-2019.12-x86_64-arm-none-eabi/bin/../lib/gcc/arm-none-eabi/9.2.1/../../../../arm-none-eabi/lib/thumb/v7ve+simd/hard/libstdc++.a(new_op.o)

.ARM.extab.text._Znaj
                0x0000000000045b34        0x0
 .ARM.extab.text._Znaj
                0x0000000000045b34        0x0 /home/olf/projects/circle/gcc-arm-9.2-2019.12-x86_64-arm-none-eabi/bin/../lib/gcc/arm-none-eabi/9.2.1/../../../../arm-none-eabi/lib/thumb/v7ve+simd/hard/libstdc++.a(new_opv.o)

.ARM.extab.text.__cxa_pure_virtual
                0x0000000000045b34        0xc
 .ARM.extab.text.__cxa_pure_virtual
                0x0000000000045b34        0xc /home/olf/projects/circle/gcc-arm-9.2-2019.12-x86_64-arm-none-eabi/bin/../lib/gcc/arm-none-eabi/9.2.1/../../../../arm-none-eabi/lib/thumb/v7ve+simd/hard/libstdc++.a(pure.o)

.ARM.extab.text.__cxa_deleted_virtual
                0x0000000000045b40        0xc
 .ARM.extab.text.__cxa_deleted_virtual
                0x0000000000045b40        0xc /home/olf/projects/circle/gcc-arm-9.2-2019.12-x86_64-arm-none-eabi/bin/../lib/gcc/arm-none-eabi/9.2.1/../../../../arm-none-eabi/lib/thumb/v7ve+simd/hard/libstdc++.a(pure.o)

.ARM.extab.text._ZN10__cxxabiv120__si_class_type_infoD2Ev
                0x0000000000045b4c        0x0
 .ARM.extab.text._ZN10__cxxabiv120__si_class_type_infoD2Ev
                0x0000000000045b4c        0x0 /home/olf/projects/circle/gcc-arm-9.2-2019.12-x86_64-arm-none-eabi/bin/../lib/gcc/arm-none-eabi/9.2.1/../../../../arm-none-eabi/lib/thumb/v7ve+simd/hard/libstdc++.a(si_class_type_info.o)

.ARM.extab.text._ZN10__cxxabiv120__si_class_type_infoD0Ev
                0x0000000000045b4c        0x0
 .ARM.extab.text._ZN10__cxxabiv120__si_class_type_infoD0Ev
                0x0000000000045b4c        0x0 /home/olf/projects/circle/gcc-arm-9.2-2019.12-x86_64-arm-none-eabi/bin/../lib/gcc/arm-none-eabi/9.2.1/../../../../arm-none-eabi/lib/thumb/v7ve+simd/hard/libstdc++.a(si_class_type_info.o)

.ARM.extab.text._ZNK10__cxxabiv120__si_class_type_info20__do_find_public_srcEiPKvPKNS_17__class_type_infoES2_
                0x0000000000045b4c        0x0
 .ARM.extab.text._ZNK10__cxxabiv120__si_class_type_info20__do_find_public_srcEiPKvPKNS_17__class_type_infoES2_
                0x0000000000045b4c        0x0 /home/olf/projects/circle/gcc-arm-9.2-2019.12-x86_64-arm-none-eabi/bin/../lib/gcc/arm-none-eabi/9.2.1/../../../../arm-none-eabi/lib/thumb/v7ve+simd/hard/libstdc++.a(si_class_type_info.o)

.ARM.extab.text._ZNK10__cxxabiv120__si_class_type_info12__do_dyncastEiNS_17__class_type_info10__sub_kindEPKS1_PKvS4_S6_RNS1_16__dyncast_resultE
                0x0000000000045b4c        0x0
 .ARM.extab.text._ZNK10__cxxabiv120__si_class_type_info12__do_dyncastEiNS_17__class_type_info10__sub_kindEPKS1_PKvS4_S6_RNS1_16__dyncast_resultE
                0x0000000000045b4c        0x0 /home/olf/projects/circle/gcc-arm-9.2-2019.12-x86_64-arm-none-eabi/bin/../lib/gcc/arm-none-eabi/9.2.1/../../../../arm-none-eabi/lib/thumb/v7ve+simd/hard/libstdc++.a(si_class_type_info.o)

.ARM.extab.text._ZNK10__cxxabiv120__si_class_type_info11__do_upcastEPKNS_17__class_type_infoEPKvRNS1_15__upcast_resultE
                0x0000000000045b4c        0x0
 .ARM.extab.text._ZNK10__cxxabiv120__si_class_type_info11__do_upcastEPKNS_17__class_type_infoEPKvRNS1_15__upcast_resultE
                0x0000000000045b4c        0x0 /home/olf/projects/circle/gcc-arm-9.2-2019.12-x86_64-arm-none-eabi/bin/../lib/gcc/arm-none-eabi/9.2.1/../../../../arm-none-eabi/lib/thumb/v7ve+simd/hard/libstdc++.a(si_class_type_info.o)

.ARM.extab.text._ZNSt9type_infoD2Ev
                0x0000000000045b4c        0x0
 .ARM.extab.text._ZNSt9type_infoD2Ev
                0x0000000000045b4c        0x0 /home/olf/projects/circle/gcc-arm-9.2-2019.12-x86_64-arm-none-eabi/bin/../lib/gcc/arm-none-eabi/9.2.1/../../../../arm-none-eabi/lib/thumb/v7ve+simd/hard/libstdc++.a(tinfo.o)

.ARM.extab.text._ZNKSt9type_info14__is_pointer_pEv
                0x0000000000045b4c        0x0
 .ARM.extab.text._ZNKSt9type_info14__is_pointer_pEv
                0x0000000000045b4c        0x0 /home/olf/projects/circle/gcc-arm-9.2-2019.12-x86_64-arm-none-eabi/bin/../lib/gcc/arm-none-eabi/9.2.1/../../../../arm-none-eabi/lib/thumb/v7ve+simd/hard/libstdc++.a(tinfo.o)

.ARM.extab.text._ZNKSt9type_info11__do_upcastEPKN10__cxxabiv117__class_type_infoEPPv
                0x0000000000045b4c        0x0
 .ARM.extab.text._ZNKSt9type_info11__do_upcastEPKN10__cxxabiv117__class_type_infoEPPv
                0x0000000000045b4c        0x0 /home/olf/projects/circle/gcc-arm-9.2-2019.12-x86_64-arm-none-eabi/bin/../lib/gcc/arm-none-eabi/9.2.1/../../../../arm-none-eabi/lib/thumb/v7ve+simd/hard/libstdc++.a(tinfo.o)

.ARM.extab.text._ZNSt9type_infoD0Ev
                0x0000000000045b4c        0x0
 .ARM.extab.text._ZNSt9type_infoD0Ev
                0x0000000000045b4c        0x0 /home/olf/projects/circle/gcc-arm-9.2-2019.12-x86_64-arm-none-eabi/bin/../lib/gcc/arm-none-eabi/9.2.1/../../../../arm-none-eabi/lib/thumb/v7ve+simd/hard/libstdc++.a(tinfo.o)

.ARM.extab.text._ZNKSt9type_infoeqERKS_
                0x0000000000045b4c        0x0
 .ARM.extab.text._ZNKSt9type_infoeqERKS_
                0x0000000000045b4c        0x0 /home/olf/projects/circle/gcc-arm-9.2-2019.12-x86_64-arm-none-eabi/bin/../lib/gcc/arm-none-eabi/9.2.1/../../../../arm-none-eabi/lib/thumb/v7ve+simd/hard/libstdc++.a(tinfo.o)

.ARM.extab.text._ZNKSt9type_info10__do_catchEPKS_PPvj
                0x0000000000045b4c        0x0
 .ARM.extab.text._ZNKSt9type_info10__do_catchEPKS_PPvj
                0x0000000000045b4c        0x0 /home/olf/projects/circle/gcc-arm-9.2-2019.12-x86_64-arm-none-eabi/bin/../lib/gcc/arm-none-eabi/9.2.1/../../../../arm-none-eabi/lib/thumb/v7ve+simd/hard/libstdc++.a(tinfo.o)

.ARM.extab.text._ZN9__gnu_cxx27__verbose_terminate_handlerEv
                0x0000000000045b4c       0x34
 .ARM.extab.text._ZN9__gnu_cxx27__verbose_terminate_handlerEv
                0x0000000000045b4c       0x34 /home/olf/projects/circle/gcc-arm-9.2-2019.12-x86_64-arm-none-eabi/bin/../lib/gcc/arm-none-eabi/9.2.1/../../../../arm-none-eabi/lib/thumb/v7ve+simd/hard/libstdc++.a(vterminate.o)

.ARM.extab.text._ZNKSt9bad_alloc4whatEv
                0x0000000000045b80        0x0
 .ARM.extab.text._ZNKSt9bad_alloc4whatEv
                0x0000000000045b80        0x0 /home/olf/projects/circle/gcc-arm-9.2-2019.12-x86_64-arm-none-eabi/bin/../lib/gcc/arm-none-eabi/9.2.1/../../../../arm-none-eabi/lib/thumb/v7ve+simd/hard/libstdc++.a(bad_alloc.o)

.ARM.extab.text._ZNSt9bad_allocD2Ev
                0x0000000000045b80        0x0
 .ARM.extab.text._ZNSt9bad_allocD2Ev
                0x0000000000045b80        0x0 /home/olf/projects/circle/gcc-arm-9.2-2019.12-x86_64-arm-none-eabi/bin/../lib/gcc/arm-none-eabi/9.2.1/../../../../arm-none-eabi/lib/thumb/v7ve+simd/hard/libstdc++.a(bad_alloc.o)

.ARM.extab.text._ZNSt9bad_allocD0Ev
                0x0000000000045b80        0x0
 .ARM.extab.text._ZNSt9bad_allocD0Ev
                0x0000000000045b80        0x0 /home/olf/projects/circle/gcc-arm-9.2-2019.12-x86_64-arm-none-eabi/bin/../lib/gcc/arm-none-eabi/9.2.1/../../../../arm-none-eabi/lib/thumb/v7ve+simd/hard/libstdc++.a(bad_alloc.o)

.ARM.extab.text._ZNKSt20bad_array_new_length4whatEv
                0x0000000000045b80        0x0
 .ARM.extab.text._ZNKSt20bad_array_new_length4whatEv
                0x0000000000045b80        0x0 /home/olf/projects/circle/gcc-arm-9.2-2019.12-x86_64-arm-none-eabi/bin/../lib/gcc/arm-none-eabi/9.2.1/../../../../arm-none-eabi/lib/thumb/v7ve+simd/hard/libstdc++.a(bad_array_new.o)

.ARM.extab.text._ZNSt20bad_array_new_lengthD2Ev
                0x0000000000045b80        0x0
 .ARM.extab.text._ZNSt20bad_array_new_lengthD2Ev
                0x0000000000045b80        0x0 /home/olf/projects/circle/gcc-arm-9.2-2019.12-x86_64-arm-none-eabi/bin/../lib/gcc/arm-none-eabi/9.2.1/../../../../arm-none-eabi/lib/thumb/v7ve+simd/hard/libstdc++.a(bad_array_new.o)

.ARM.extab.text._ZNSt20bad_array_new_lengthD0Ev
                0x0000000000045b80        0x0
 .ARM.extab.text._ZNSt20bad_array_new_lengthD0Ev
                0x0000000000045b80        0x0 /home/olf/projects/circle/gcc-arm-9.2-2019.12-x86_64-arm-none-eabi/bin/../lib/gcc/arm-none-eabi/9.2.1/../../../../arm-none-eabi/lib/thumb/v7ve+simd/hard/libstdc++.a(bad_array_new.o)

.ARM.extab.text._ZNKSt8bad_cast4whatEv
                0x0000000000045b80        0x0
 .ARM.extab.text._ZNKSt8bad_cast4whatEv
                0x0000000000045b80        0x0 /home/olf/projects/circle/gcc-arm-9.2-2019.12-x86_64-arm-none-eabi/bin/../lib/gcc/arm-none-eabi/9.2.1/../../../../arm-none-eabi/lib/thumb/v7ve+simd/hard/libstdc++.a(bad_cast.o)

.ARM.extab.text._ZNSt8bad_castD2Ev
                0x0000000000045b80        0x0
 .ARM.extab.text._ZNSt8bad_castD2Ev
                0x0000000000045b80        0x0 /home/olf/projects/circle/gcc-arm-9.2-2019.12-x86_64-arm-none-eabi/bin/../lib/gcc/arm-none-eabi/9.2.1/../../../../arm-none-eabi/lib/thumb/v7ve+simd/hard/libstdc++.a(bad_cast.o)

.ARM.extab.text._ZNSt8bad_castD0Ev
                0x0000000000045b80        0x0
 .ARM.extab.text._ZNSt8bad_castD0Ev
                0x0000000000045b80        0x0 /home/olf/projects/circle/gcc-arm-9.2-2019.12-x86_64-arm-none-eabi/bin/../lib/gcc/arm-none-eabi/9.2.1/../../../../arm-none-eabi/lib/thumb/v7ve+simd/hard/libstdc++.a(bad_cast.o)

.ARM.extab.text._ZNKSt10bad_typeid4whatEv
                0x0000000000045b80        0x0
 .ARM.extab.text._ZNKSt10bad_typeid4whatEv
                0x0000000000045b80        0x0 /home/olf/projects/circle/gcc-arm-9.2-2019.12-x86_64-arm-none-eabi/bin/../lib/gcc/arm-none-eabi/9.2.1/../../../../arm-none-eabi/lib/thumb/v7ve+simd/hard/libstdc++.a(bad_typeid.o)

.ARM.extab.text._ZNSt10bad_typeidD2Ev
                0x0000000000045b80        0x0
 .ARM.extab.text._ZNSt10bad_typeidD2Ev
                0x0000000000045b80        0x0 /home/olf/projects/circle/gcc-arm-9.2-2019.12-x86_64-arm-none-eabi/bin/../lib/gcc/arm-none-eabi/9.2.1/../../../../arm-none-eabi/lib/thumb/v7ve+simd/hard/libstdc++.a(bad_typeid.o)

.ARM.extab.text._ZNSt10bad_typeidD0Ev
                0x0000000000045b80        0x0
 .ARM.extab.text._ZNSt10bad_typeidD0Ev
                0x0000000000045b80        0x0 /home/olf/projects/circle/gcc-arm-9.2-2019.12-x86_64-arm-none-eabi/bin/../lib/gcc/arm-none-eabi/9.2.1/../../../../arm-none-eabi/lib/thumb/v7ve+simd/hard/libstdc++.a(bad_typeid.o)

.ARM.extab.text._ZdlPv
                0x0000000000045b80        0x0
 .ARM.extab.text._ZdlPv
                0x0000000000045b80        0x0 /home/olf/projects/circle/gcc-arm-9.2-2019.12-x86_64-arm-none-eabi/bin/../lib/gcc/arm-none-eabi/9.2.1/../../../../arm-none-eabi/lib/thumb/v7ve+simd/hard/libstdc++.a(del_op.o)

.ARM.extab.text._ZN12_GLOBAL__N_14pool4freeEPv.constprop.0
                0x0000000000045b80        0x0
 .ARM.extab.text._ZN12_GLOBAL__N_14pool4freeEPv.constprop.0
                0x0000000000045b80        0x0 /home/olf/projects/circle/gcc-arm-9.2-2019.12-x86_64-arm-none-eabi/bin/../lib/gcc/arm-none-eabi/9.2.1/../../../../arm-none-eabi/lib/thumb/v7ve+simd/hard/libstdc++.a(eh_alloc.o)

.ARM.extab.text._ZN12_GLOBAL__N_14pool8allocateEj.constprop.0
                0x0000000000045b80        0x0
 .ARM.extab.text._ZN12_GLOBAL__N_14pool8allocateEj.constprop.0
                0x0000000000045b80        0x0 /home/olf/projects/circle/gcc-arm-9.2-2019.12-x86_64-arm-none-eabi/bin/../lib/gcc/arm-none-eabi/9.2.1/../../../../arm-none-eabi/lib/thumb/v7ve+simd/hard/libstdc++.a(eh_alloc.o)

.ARM.extab.text._ZN9__gnu_cxx9__freeresEv
                0x0000000000045b80        0x0
 .ARM.extab.text._ZN9__gnu_cxx9__freeresEv
                0x0000000000045b80        0x0 /home/olf/projects/circle/gcc-arm-9.2-2019.12-x86_64-arm-none-eabi/bin/../lib/gcc/arm-none-eabi/9.2.1/../../../../arm-none-eabi/lib/thumb/v7ve+simd/hard/libstdc++.a(eh_alloc.o)

.ARM.extab.text.__cxa_allocate_exception
                0x0000000000045b80        0x0
 .ARM.extab.text.__cxa_allocate_exception
                0x0000000000045b80        0x0 /home/olf/projects/circle/gcc-arm-9.2-2019.12-x86_64-arm-none-eabi/bin/../lib/gcc/arm-none-eabi/9.2.1/../../../../arm-none-eabi/lib/thumb/v7ve+simd/hard/libstdc++.a(eh_alloc.o)

.ARM.extab.text.__cxa_free_exception
                0x0000000000045b80        0x0
 .ARM.extab.text.__cxa_free_exception
                0x0000000000045b80        0x0 /home/olf/projects/circle/gcc-arm-9.2-2019.12-x86_64-arm-none-eabi/bin/../lib/gcc/arm-none-eabi/9.2.1/../../../../arm-none-eabi/lib/thumb/v7ve+simd/hard/libstdc++.a(eh_alloc.o)

.ARM.extab.text.__cxa_allocate_dependent_exception
                0x0000000000045b80        0x0
 .ARM.extab.text.__cxa_allocate_dependent_exception
                0x0000000000045b80        0x0 /home/olf/projects/circle/gcc-arm-9.2-2019.12-x86_64-arm-none-eabi/bin/../lib/gcc/arm-none-eabi/9.2.1/../../../../arm-none-eabi/lib/thumb/v7ve+simd/hard/libstdc++.a(eh_alloc.o)

.ARM.extab.text.__cxa_free_dependent_exception
                0x0000000000045b80        0x0
 .ARM.extab.text.__cxa_free_dependent_exception
                0x0000000000045b80        0x0 /home/olf/projects/circle/gcc-arm-9.2-2019.12-x86_64-arm-none-eabi/bin/../lib/gcc/arm-none-eabi/9.2.1/../../../../arm-none-eabi/lib/thumb/v7ve+simd/hard/libstdc++.a(eh_alloc.o)

.ARM.extab.text.startup._GLOBAL__sub_I__ZN9__gnu_cxx9__freeresEv
                0x0000000000045b80        0x0
 .ARM.extab.text.startup._GLOBAL__sub_I__ZN9__gnu_cxx9__freeresEv
                0x0000000000045b80        0x0 /home/olf/projects/circle/gcc-arm-9.2-2019.12-x86_64-arm-none-eabi/bin/../lib/gcc/arm-none-eabi/9.2.1/../../../../arm-none-eabi/lib/thumb/v7ve+simd/hard/libstdc++.a(eh_alloc.o)

.ARM.extab.text._ZN10__cxxabiv1L24__is_gxx_exception_classEPc
                0x0000000000045b80        0x0
 .ARM.extab.text._ZN10__cxxabiv1L24__is_gxx_exception_classEPc
                0x0000000000045b80        0x0 /home/olf/projects/circle/gcc-arm-9.2-2019.12-x86_64-arm-none-eabi/bin/../lib/gcc/arm-none-eabi/9.2.1/../../../../arm-none-eabi/lib/thumb/v7ve+simd/hard/libstdc++.a(eh_call.o)

.ARM.extab.text.__cxa_call_terminate
                0x0000000000045b80        0x0
 .ARM.extab.text.__cxa_call_terminate
                0x0000000000045b80        0x0 /home/olf/projects/circle/gcc-arm-9.2-2019.12-x86_64-arm-none-eabi/bin/../lib/gcc/arm-none-eabi/9.2.1/../../../../arm-none-eabi/lib/thumb/v7ve+simd/hard/libstdc++.a(eh_call.o)

.ARM.extab.text.unlikely.__cxa_call_unexpected
                0x0000000000045b80       0x24
 .ARM.extab.text.unlikely.__cxa_call_unexpected
                0x0000000000045b80       0x24 /home/olf/projects/circle/gcc-arm-9.2-2019.12-x86_64-arm-none-eabi/bin/../lib/gcc/arm-none-eabi/9.2.1/../../../../arm-none-eabi/lib/thumb/v7ve+simd/hard/libstdc++.a(eh_call.o)

.ARM.extab.text.__cxa_get_exception_ptr
                0x0000000000045ba4        0x0
 .ARM.extab.text.__cxa_get_exception_ptr
                0x0000000000045ba4        0x0 /home/olf/projects/circle/gcc-arm-9.2-2019.12-x86_64-arm-none-eabi/bin/../lib/gcc/arm-none-eabi/9.2.1/../../../../arm-none-eabi/lib/thumb/v7ve+simd/hard/libstdc++.a(eh_catch.o)

.ARM.extab.text.__cxa_begin_catch
                0x0000000000045ba4        0xc
 .ARM.extab.text.__cxa_begin_catch
                0x0000000000045ba4        0xc /home/olf/projects/circle/gcc-arm-9.2-2019.12-x86_64-arm-none-eabi/bin/../lib/gcc/arm-none-eabi/9.2.1/../../../../arm-none-eabi/lib/thumb/v7ve+simd/hard/libstdc++.a(eh_catch.o)

.ARM.extab.text.__cxa_end_catch
                0x0000000000045bb0        0x0
 .ARM.extab.text.__cxa_end_catch
                0x0000000000045bb0        0x0 /home/olf/projects/circle/gcc-arm-9.2-2019.12-x86_64-arm-none-eabi/bin/../lib/gcc/arm-none-eabi/9.2.1/../../../../arm-none-eabi/lib/thumb/v7ve+simd/hard/libstdc++.a(eh_catch.o)

.ARM.extab.text._ZSt18uncaught_exceptionv
                0x0000000000045bb0        0x0
 .ARM.extab.text._ZSt18uncaught_exceptionv
                0x0000000000045bb0        0x0 /home/olf/projects/circle/gcc-arm-9.2-2019.12-x86_64-arm-none-eabi/bin/../lib/gcc/arm-none-eabi/9.2.1/../../../../arm-none-eabi/lib/thumb/v7ve+simd/hard/libstdc++.a(eh_catch.o)

.ARM.extab.text._ZSt19uncaught_exceptionsv
                0x0000000000045bb0        0x0
 .ARM.extab.text._ZSt19uncaught_exceptionsv
                0x0000000000045bb0        0x0 /home/olf/projects/circle/gcc-arm-9.2-2019.12-x86_64-arm-none-eabi/bin/../lib/gcc/arm-none-eabi/9.2.1/../../../../arm-none-eabi/lib/thumb/v7ve+simd/hard/libstdc++.a(eh_catch.o)

.ARM.extab.text.__cxa_current_exception_type
                0x0000000000045bb0        0x0
 .ARM.extab.text.__cxa_current_exception_type
                0x0000000000045bb0        0x0 /home/olf/projects/circle/gcc-arm-9.2-2019.12-x86_64-arm-none-eabi/bin/../lib/gcc/arm-none-eabi/9.2.1/../../../../arm-none-eabi/lib/thumb/v7ve+simd/hard/libstdc++.a(eh_type.o)

.ARM.extab.text._ZSt15set_new_handlerPFvvE
                0x0000000000045bb0        0x0
 .ARM.extab.text._ZSt15set_new_handlerPFvvE
                0x0000000000045bb0        0x0 /home/olf/projects/circle/gcc-arm-9.2-2019.12-x86_64-arm-none-eabi/bin/../lib/gcc/arm-none-eabi/9.2.1/../../../../arm-none-eabi/lib/thumb/v7ve+simd/hard/libstdc++.a(new_handler.o)

.ARM.extab.text._ZSt15get_new_handlerv
                0x0000000000045bb0        0x0
 .ARM.extab.text._ZSt15get_new_handlerv
                0x0000000000045bb0        0x0 /home/olf/projects/circle/gcc-arm-9.2-2019.12-x86_64-arm-none-eabi/bin/../lib/gcc/arm-none-eabi/9.2.1/../../../../arm-none-eabi/lib/thumb/v7ve+simd/hard/libstdc++.a(new_handler.o)

.ARM.extab.text.__udivmoddi4
                0x0000000000045bb0        0x0
 .ARM.extab.text.__udivmoddi4
                0x0000000000045bb0        0x0 /home/olf/projects/circle/gcc-arm-9.2-2019.12-x86_64-arm-none-eabi/bin/../lib/gcc/arm-none-eabi/9.2.1/thumb/v7ve+simd/hard/libgcc.a(_udivmoddi4.o)

.ARM.extab.text.selfrel_offset31
                0x0000000000045bb0        0x0
 .ARM.extab.text.selfrel_offset31
                0x0000000000045bb0        0x0 /home/olf/projects/circle/gcc-arm-9.2-2019.12-x86_64-arm-none-eabi/bin/../lib/gcc/arm-none-eabi/9.2.1/thumb/v7ve+simd/hard/libgcc.a(unwind-arm.o)

.ARM.extab.text.search_EIT_table
                0x0000000000045bb0        0x0
 .ARM.extab.text.search_EIT_table
                0x0000000000045bb0        0x0 /home/olf/projects/circle/gcc-arm-9.2-2019.12-x86_64-arm-none-eabi/bin/../lib/gcc/arm-none-eabi/9.2.1/thumb/v7ve+simd/hard/libgcc.a(unwind-arm.o)

.ARM.extab.text.__gnu_unwind_get_pr_addr
                0x0000000000045bb0        0x0
 .ARM.extab.text.__gnu_unwind_get_pr_addr
                0x0000000000045bb0        0x0 /home/olf/projects/circle/gcc-arm-9.2-2019.12-x86_64-arm-none-eabi/bin/../lib/gcc/arm-none-eabi/9.2.1/thumb/v7ve+simd/hard/libgcc.a(unwind-arm.o)

.ARM.extab.text.get_eit_entry
                0x0000000000045bb0        0x0
 .ARM.extab.text.get_eit_entry
                0x0000000000045bb0        0x0 /home/olf/projects/circle/gcc-arm-9.2-2019.12-x86_64-arm-none-eabi/bin/../lib/gcc/arm-none-eabi/9.2.1/thumb/v7ve+simd/hard/libgcc.a(unwind-arm.o)

.ARM.extab.text.restore_non_core_regs
                0x0000000000045bb0        0x0
 .ARM.extab.text.restore_non_core_regs
                0x0000000000045bb0        0x0 /home/olf/projects/circle/gcc-arm-9.2-2019.12-x86_64-arm-none-eabi/bin/../lib/gcc/arm-none-eabi/9.2.1/thumb/v7ve+simd/hard/libgcc.a(unwind-arm.o)

.ARM.extab.text._Unwind_decode_typeinfo_ptr.isra.0
                0x0000000000045bb0        0x0
 .ARM.extab.text._Unwind_decode_typeinfo_ptr.isra.0
                0x0000000000045bb0        0x0 /home/olf/projects/circle/gcc-arm-9.2-2019.12-x86_64-arm-none-eabi/bin/../lib/gcc/arm-none-eabi/9.2.1/thumb/v7ve+simd/hard/libgcc.a(unwind-arm.o)

.ARM.extab.text.__gnu_unwind_24bit.isra.0
                0x0000000000045bb0        0x0
 .ARM.extab.text.__gnu_unwind_24bit.isra.0
                0x0000000000045bb0        0x0 /home/olf/projects/circle/gcc-arm-9.2-2019.12-x86_64-arm-none-eabi/bin/../lib/gcc/arm-none-eabi/9.2.1/thumb/v7ve+simd/hard/libgcc.a(unwind-arm.o)

.ARM.extab.text._Unwind_DebugHook
                0x0000000000045bb0        0x0
 .ARM.extab.text._Unwind_DebugHook
                0x0000000000045bb0        0x0 /home/olf/projects/circle/gcc-arm-9.2-2019.12-x86_64-arm-none-eabi/bin/../lib/gcc/arm-none-eabi/9.2.1/thumb/v7ve+simd/hard/libgcc.a(unwind-arm.o)

.ARM.extab.text.unwind_phase2
                0x0000000000045bb0        0x0
 .ARM.extab.text.unwind_phase2
                0x0000000000045bb0        0x0 /home/olf/projects/circle/gcc-arm-9.2-2019.12-x86_64-arm-none-eabi/bin/../lib/gcc/arm-none-eabi/9.2.1/thumb/v7ve+simd/hard/libgcc.a(unwind-arm.o)

.ARM.extab.text.unwind_phase2_forced
                0x0000000000045bb0        0x0
 .ARM.extab.text.unwind_phase2_forced
                0x0000000000045bb0        0x0 /home/olf/projects/circle/gcc-arm-9.2-2019.12-x86_64-arm-none-eabi/bin/../lib/gcc/arm-none-eabi/9.2.1/thumb/v7ve+simd/hard/libgcc.a(unwind-arm.o)

.ARM.extab.text._Unwind_GetCFA
                0x0000000000045bb0        0x0
 .ARM.extab.text._Unwind_GetCFA
                0x0000000000045bb0        0x0 /home/olf/projects/circle/gcc-arm-9.2-2019.12-x86_64-arm-none-eabi/bin/../lib/gcc/arm-none-eabi/9.2.1/thumb/v7ve+simd/hard/libgcc.a(unwind-arm.o)

.ARM.extab.text.__gnu_Unwind_RaiseException
                0x0000000000045bb0        0x0
 .ARM.extab.text.__gnu_Unwind_RaiseException
                0x0000000000045bb0        0x0 /home/olf/projects/circle/gcc-arm-9.2-2019.12-x86_64-arm-none-eabi/bin/../lib/gcc/arm-none-eabi/9.2.1/thumb/v7ve+simd/hard/libgcc.a(unwind-arm.o)

.ARM.extab.text.__gnu_Unwind_ForcedUnwind
                0x0000000000045bb0        0x0
 .ARM.extab.text.__gnu_Unwind_ForcedUnwind
                0x0000000000045bb0        0x0 /home/olf/projects/circle/gcc-arm-9.2-2019.12-x86_64-arm-none-eabi/bin/../lib/gcc/arm-none-eabi/9.2.1/thumb/v7ve+simd/hard/libgcc.a(unwind-arm.o)

.ARM.extab.text.__gnu_Unwind_Resume
                0x0000000000045bb0        0x0
 .ARM.extab.text.__gnu_Unwind_Resume
                0x0000000000045bb0        0x0 /home/olf/projects/circle/gcc-arm-9.2-2019.12-x86_64-arm-none-eabi/bin/../lib/gcc/arm-none-eabi/9.2.1/thumb/v7ve+simd/hard/libgcc.a(unwind-arm.o)

.ARM.extab.text.__gnu_Unwind_Resume_or_Rethrow
                0x0000000000045bb0        0x0
 .ARM.extab.text.__gnu_Unwind_Resume_or_Rethrow
                0x0000000000045bb0        0x0 /home/olf/projects/circle/gcc-arm-9.2-2019.12-x86_64-arm-none-eabi/bin/../lib/gcc/arm-none-eabi/9.2.1/thumb/v7ve+simd/hard/libgcc.a(unwind-arm.o)

.ARM.extab.text._Unwind_Complete
                0x0000000000045bb0        0x0
 .ARM.extab.text._Unwind_Complete
                0x0000000000045bb0        0x0 /home/olf/projects/circle/gcc-arm-9.2-2019.12-x86_64-arm-none-eabi/bin/../lib/gcc/arm-none-eabi/9.2.1/thumb/v7ve+simd/hard/libgcc.a(unwind-arm.o)

.ARM.extab.text._Unwind_DeleteException
                0x0000000000045bb0        0x0
 .ARM.extab.text._Unwind_DeleteException
                0x0000000000045bb0        0x0 /home/olf/projects/circle/gcc-arm-9.2-2019.12-x86_64-arm-none-eabi/bin/../lib/gcc/arm-none-eabi/9.2.1/thumb/v7ve+simd/hard/libgcc.a(unwind-arm.o)

.ARM.extab.text._Unwind_VRS_Get
                0x0000000000045bb0        0x0
 .ARM.extab.text._Unwind_VRS_Get
                0x0000000000045bb0        0x0 /home/olf/projects/circle/gcc-arm-9.2-2019.12-x86_64-arm-none-eabi/bin/../lib/gcc/arm-none-eabi/9.2.1/thumb/v7ve+simd/hard/libgcc.a(unwind-arm.o)

.ARM.extab.text._Unwind_GetGR
                0x0000000000045bb0        0x0
 .ARM.extab.text._Unwind_GetGR
                0x0000000000045bb0        0x0 /home/olf/projects/circle/gcc-arm-9.2-2019.12-x86_64-arm-none-eabi/bin/../lib/gcc/arm-none-eabi/9.2.1/thumb/v7ve+simd/hard/libgcc.a(unwind-arm.o)

.ARM.extab.text._Unwind_VRS_Set
                0x0000000000045bb0        0x0
 .ARM.extab.text._Unwind_VRS_Set
                0x0000000000045bb0        0x0 /home/olf/projects/circle/gcc-arm-9.2-2019.12-x86_64-arm-none-eabi/bin/../lib/gcc/arm-none-eabi/9.2.1/thumb/v7ve+simd/hard/libgcc.a(unwind-arm.o)

.ARM.extab.text._Unwind_SetGR
                0x0000000000045bb0        0x0
 .ARM.extab.text._Unwind_SetGR
                0x0000000000045bb0        0x0 /home/olf/projects/circle/gcc-arm-9.2-2019.12-x86_64-arm-none-eabi/bin/../lib/gcc/arm-none-eabi/9.2.1/thumb/v7ve+simd/hard/libgcc.a(unwind-arm.o)

.ARM.extab.text.__gnu_Unwind_Backtrace
                0x0000000000045bb0        0x0
 .ARM.extab.text.__gnu_Unwind_Backtrace
                0x0000000000045bb0        0x0 /home/olf/projects/circle/gcc-arm-9.2-2019.12-x86_64-arm-none-eabi/bin/../lib/gcc/arm-none-eabi/9.2.1/thumb/v7ve+simd/hard/libgcc.a(unwind-arm.o)

.ARM.extab.text.__gnu_unwind_pr_common
                0x0000000000045bb0        0x0
 .ARM.extab.text.__gnu_unwind_pr_common
                0x0000000000045bb0        0x0 /home/olf/projects/circle/gcc-arm-9.2-2019.12-x86_64-arm-none-eabi/bin/../lib/gcc/arm-none-eabi/9.2.1/thumb/v7ve+simd/hard/libgcc.a(unwind-arm.o)

.ARM.extab.text.__aeabi_unwind_cpp_pr0
                0x0000000000045bb0        0x0
 .ARM.extab.text.__aeabi_unwind_cpp_pr0
                0x0000000000045bb0        0x0 /home/olf/projects/circle/gcc-arm-9.2-2019.12-x86_64-arm-none-eabi/bin/../lib/gcc/arm-none-eabi/9.2.1/thumb/v7ve+simd/hard/libgcc.a(unwind-arm.o)

.ARM.extab.text.__aeabi_unwind_cpp_pr1
                0x0000000000045bb0        0x0
 .ARM.extab.text.__aeabi_unwind_cpp_pr1
                0x0000000000045bb0        0x0 /home/olf/projects/circle/gcc-arm-9.2-2019.12-x86_64-arm-none-eabi/bin/../lib/gcc/arm-none-eabi/9.2.1/thumb/v7ve+simd/hard/libgcc.a(unwind-arm.o)

.ARM.extab.text.__aeabi_unwind_cpp_pr2
                0x0000000000045bb0        0x0
 .ARM.extab.text.__aeabi_unwind_cpp_pr2
                0x0000000000045bb0        0x0 /home/olf/projects/circle/gcc-arm-9.2-2019.12-x86_64-arm-none-eabi/bin/../lib/gcc/arm-none-eabi/9.2.1/thumb/v7ve+simd/hard/libgcc.a(unwind-arm.o)

.ARM.extab.text._Unwind_VRS_Pop
                0x0000000000045bb0        0x0
 .ARM.extab.text._Unwind_VRS_Pop
                0x0000000000045bb0        0x0 /home/olf/projects/circle/gcc-arm-9.2-2019.12-x86_64-arm-none-eabi/bin/../lib/gcc/arm-none-eabi/9.2.1/thumb/v7ve+simd/hard/libgcc.a(unwind-arm.o)

.ARM.extab.text.next_unwind_byte
                0x0000000000045bb0        0x0
 .ARM.extab.text.next_unwind_byte
                0x0000000000045bb0        0x0 /home/olf/projects/circle/gcc-arm-9.2-2019.12-x86_64-arm-none-eabi/bin/../lib/gcc/arm-none-eabi/9.2.1/thumb/v7ve+simd/hard/libgcc.a(pr-support.o)

.ARM.extab.text._Unwind_GetGR.constprop.0
                0x0000000000045bb0        0x0
 .ARM.extab.text._Unwind_GetGR.constprop.0
                0x0000000000045bb0        0x0 /home/olf/projects/circle/gcc-arm-9.2-2019.12-x86_64-arm-none-eabi/bin/../lib/gcc/arm-none-eabi/9.2.1/thumb/v7ve+simd/hard/libgcc.a(pr-support.o)

.ARM.extab.text.unwind_UCB_from_context
                0x0000000000045bb0        0x0
 .ARM.extab.text.unwind_UCB_from_context
                0x0000000000045bb0        0x0 /home/olf/projects/circle/gcc-arm-9.2-2019.12-x86_64-arm-none-eabi/bin/../lib/gcc/arm-none-eabi/9.2.1/thumb/v7ve+simd/hard/libgcc.a(pr-support.o)

.ARM.extab.text.__gnu_unwind_execute
                0x0000000000045bb0        0x0
 .ARM.extab.text.__gnu_unwind_execute
                0x0000000000045bb0        0x0 /home/olf/projects/circle/gcc-arm-9.2-2019.12-x86_64-arm-none-eabi/bin/../lib/gcc/arm-none-eabi/9.2.1/thumb/v7ve+simd/hard/libgcc.a(pr-support.o)

.ARM.extab.text.__gnu_unwind_frame
                0x0000000000045bb0        0x0
 .ARM.extab.text.__gnu_unwind_frame
                0x0000000000045bb0        0x0 /home/olf/projects/circle/gcc-arm-9.2-2019.12-x86_64-arm-none-eabi/bin/../lib/gcc/arm-none-eabi/9.2.1/thumb/v7ve+simd/hard/libgcc.a(pr-support.o)

.ARM.extab.text._Unwind_GetRegionStart
                0x0000000000045bb0        0xc
 .ARM.extab.text._Unwind_GetRegionStart
                0x0000000000045bb0        0xc /home/olf/projects/circle/gcc-arm-9.2-2019.12-x86_64-arm-none-eabi/bin/../lib/gcc/arm-none-eabi/9.2.1/thumb/v7ve+simd/hard/libgcc.a(pr-support.o)

.ARM.extab.text._Unwind_GetLanguageSpecificData
                0x0000000000045bbc        0xc
 .ARM.extab.text._Unwind_GetLanguageSpecificData
                0x0000000000045bbc        0xc /home/olf/projects/circle/gcc-arm-9.2-2019.12-x86_64-arm-none-eabi/bin/../lib/gcc/arm-none-eabi/9.2.1/thumb/v7ve+simd/hard/libgcc.a(pr-support.o)

.ARM.extab.text.unlikely._Unwind_GetDataRelBase
                0x0000000000045bc8        0x0
 .ARM.extab.text.unlikely._Unwind_GetDataRelBase
                0x0000000000045bc8        0x0 /home/olf/projects/circle/gcc-arm-9.2-2019.12-x86_64-arm-none-eabi/bin/../lib/gcc/arm-none-eabi/9.2.1/thumb/v7ve+simd/hard/libgcc.a(pr-support.o)

.ARM.extab.text.unlikely._Unwind_GetTextRelBase
                0x0000000000045bc8        0x0
 .ARM.extab.text.unlikely._Unwind_GetTextRelBase
                0x0000000000045bc8        0x0 /home/olf/projects/circle/gcc-arm-9.2-2019.12-x86_64-arm-none-eabi/bin/../lib/gcc/arm-none-eabi/9.2.1/thumb/v7ve+simd/hard/libgcc.a(pr-support.o)

.ARM.extab.text._ZN18CUSBHostController24CancelDeviceTransactionsEP10CUSBDevice
                0x0000000000045bc8        0x0
 .ARM.extab.text._ZN18CUSBHostController24CancelDeviceTransactionsEP10CUSBDevice
                0x0000000000045bc8        0x0 ../../lib/usb/libusb.a(usbhostcontroller.o)

.ARM.extab.text._ZN17CUSBGamePadDevice10SetLEDModeEjhh
                0x0000000000045bc8        0x0
 .ARM.extab.text._ZN17CUSBGamePadDevice10SetLEDModeEjhh
                0x0000000000045bc8        0x0 ../../lib/usb/libusb.a(usbgamepadps3.o)

.ARM.extab.text._ZN20CUSBGamePadPS3Device13GetPropertiesEv
                0x0000000000045bc8        0x0
 .ARM.extab.text._ZN20CUSBGamePadPS3Device13GetPropertiesEv
                0x0000000000045bc8        0x0 ../../lib/usb/libusb.a(usbgamepadps3.o)

.ARM.extab.text._ZN20CUSBGamePadPS4Device13GetPropertiesEv
                0x0000000000045bc8        0x0
 .ARM.extab.text._ZN20CUSBGamePadPS4Device13GetPropertiesEv
                0x0000000000045bc8        0x0 ../../lib/usb/libusb.a(usbgamepadps4.o)

.ARM.extab.text._ZN17CUSBGamePadDevice13GetPropertiesEv
                0x0000000000045bc8        0x0
 .ARM.extab.text._ZN17CUSBGamePadDevice13GetPropertiesEv
                0x0000000000045bc8        0x0 ../../lib/usb/libusb.a(usbgamepadstandard.o)

.ARM.extab.text._ZN17CUSBGamePadDevice10SetLEDModeE15TGamePadLEDMode
                0x0000000000045bc8        0x0
 .ARM.extab.text._ZN17CUSBGamePadDevice10SetLEDModeE15TGamePadLEDMode
                0x0000000000045bc8        0x0 ../../lib/usb/libusb.a(usbgamepadstandard.o)

.ARM.extab.text._ZN17CUSBGamePadDevice13SetRumbleModeE18TGamePadRumbleMode
                0x0000000000045bc8        0x0
 .ARM.extab.text._ZN17CUSBGamePadDevice13SetRumbleModeE18TGamePadRumbleMode
                0x0000000000045bc8        0x0 ../../lib/usb/libusb.a(usbgamepadstandard.o)

.ARM.extab.text._ZN26CUSBGamePadSwitchProDevice13GetPropertiesEv
                0x0000000000045bc8        0x0
 .ARM.extab.text._ZN26CUSBGamePadSwitchProDevice13GetPropertiesEv
                0x0000000000045bc8        0x0 ../../lib/usb/libusb.a(usbgamepadswitchpro.o)

.ARM.extab.text._ZN24CUSBGamePadXbox360Device13GetPropertiesEv
                0x0000000000045bc8        0x0
 .ARM.extab.text._ZN24CUSBGamePadXbox360Device13GetPropertiesEv
                0x0000000000045bc8        0x0 ../../lib/usb/libusb.a(usbgamepadxbox360.o)

.ARM.extab.text._ZN24CUSBGamePadXboxOneDevice13GetPropertiesEv
                0x0000000000045bc8        0x0
 .ARM.extab.text._ZN24CUSBGamePadXboxOneDevice13GetPropertiesEv
                0x0000000000045bc8        0x0 ../../lib/usb/libusb.a(usbgamepadxboxone.o)

.ARM.extab.text._ZN10CNetDevice7GetTypeEv
                0x0000000000045bc8        0x0
 .ARM.extab.text._ZN10CNetDevice7GetTypeEv
                0x0000000000045bc8        0x0 ../../lib/usb/libusb.a(lan7800.o)

.ARM.extab.text._ZN10CNetDevice20IsSendFrameAdvisableEv
                0x0000000000045bc8        0x0
 .ARM.extab.text._ZN10CNetDevice20IsSendFrameAdvisableEv
                0x0000000000045bc8        0x0 ../../lib/usb/libusb.a(lan7800.o)

.ARM.extab.text._ZN10CNetDevice9UpdatePHYEv
                0x0000000000045bc8        0x0
 .ARM.extab.text._ZN10CNetDevice9UpdatePHYEv
                0x0000000000045bc8        0x0 ../../lib/usb/libusb.a(lan7800.o)

.ARM.extab.text._ZN10CNetDevice8IsLinkUpEv
                0x0000000000045bc8        0x0
 .ARM.extab.text._ZN10CNetDevice8IsLinkUpEv
                0x0000000000045bc8        0x0 ../../lib/usb/libusb.a(usbcdcethernet.o)

.ARM.extab.text._ZN10CNetDevice12GetLinkSpeedEv
                0x0000000000045bc8        0x0
 .ARM.extab.text._ZN10CNetDevice12GetLinkSpeedEv
                0x0000000000045bc8        0x0 ../../lib/usb/libusb.a(usbcdcethernet.o)

.ARM.extab.text._ZN10__cxxabiv121__vmi_class_type_infoD2Ev
                0x0000000000045bc8        0x0
 .ARM.extab.text._ZN10__cxxabiv121__vmi_class_type_infoD2Ev
                0x0000000000045bc8        0x0 /home/olf/projects/circle/gcc-arm-9.2-2019.12-x86_64-arm-none-eabi/bin/../lib/gcc/arm-none-eabi/9.2.1/../../../../arm-none-eabi/lib/thumb/v7ve+simd/hard/libstdc++.a(vmi_class_type_info.o)

.ARM.extab.text._ZN10__cxxabiv121__vmi_class_type_infoD0Ev
                0x0000000000045bc8        0x0
 .ARM.extab.text._ZN10__cxxabiv121__vmi_class_type_infoD0Ev
                0x0000000000045bc8        0x0 /home/olf/projects/circle/gcc-arm-9.2-2019.12-x86_64-arm-none-eabi/bin/../lib/gcc/arm-none-eabi/9.2.1/../../../../arm-none-eabi/lib/thumb/v7ve+simd/hard/libstdc++.a(vmi_class_type_info.o)

.ARM.extab.text._ZNK10__cxxabiv121__vmi_class_type_info20__do_find_public_srcEiPKvPKNS_17__class_type_infoES2_
                0x0000000000045bc8        0x0
 .ARM.extab.text._ZNK10__cxxabiv121__vmi_class_type_info20__do_find_public_srcEiPKvPKNS_17__class_type_infoES2_
                0x0000000000045bc8        0x0 /home/olf/projects/circle/gcc-arm-9.2-2019.12-x86_64-arm-none-eabi/bin/../lib/gcc/arm-none-eabi/9.2.1/../../../../arm-none-eabi/lib/thumb/v7ve+simd/hard/libstdc++.a(vmi_class_type_info.o)

.ARM.extab.text._ZNK10__cxxabiv121__vmi_class_type_info12__do_dyncastEiNS_17__class_type_info10__sub_kindEPKS1_PKvS4_S6_RNS1_16__dyncast_resultE
                0x0000000000045bc8        0x0
 .ARM.extab.text._ZNK10__cxxabiv121__vmi_class_type_info12__do_dyncastEiNS_17__class_type_info10__sub_kindEPKS1_PKvS4_S6_RNS1_16__dyncast_resultE
                0x0000000000045bc8        0x0 /home/olf/projects/circle/gcc-arm-9.2-2019.12-x86_64-arm-none-eabi/bin/../lib/gcc/arm-none-eabi/9.2.1/../../../../arm-none-eabi/lib/thumb/v7ve+simd/hard/libstdc++.a(vmi_class_type_info.o)

.ARM.extab.text._ZNK10__cxxabiv121__vmi_class_type_info11__do_upcastEPKNS_17__class_type_infoEPKvRNS1_15__upcast_resultE
                0x0000000000045bc8        0x0
 .ARM.extab.text._ZNK10__cxxabiv121__vmi_class_type_info11__do_upcastEPKNS_17__class_type_infoEPKvRNS1_15__upcast_resultE
                0x0000000000045bc8        0x0 /home/olf/projects/circle/gcc-arm-9.2-2019.12-x86_64-arm-none-eabi/bin/../lib/gcc/arm-none-eabi/9.2.1/../../../../arm-none-eabi/lib/thumb/v7ve+simd/hard/libstdc++.a(vmi_class_type_info.o)

.init_array     0x0000000000045bc8       0x38
                0x0000000000045bc8                __init_start = .
 *(.init_array*)
 .init_array    0x0000000000045bc8        0x4 ../../lib/libcircle.a(gpiopin.o)
 .init_array    0x0000000000045bcc        0x4 ../../lib/libcircle.a(virtualgpiopin.o)
 .init_array    0x0000000000045bd0        0x4 ../../lib/libcircle.a(bcmmailbox.o)
 .init_array    0x0000000000045bd4        0x4 /home/olf/projects/circle/gcc-arm-9.2-2019.12-x86_64-arm-none-eabi/bin/../lib/gcc/arm-none-eabi/9.2.1/../../../../arm-none-eabi/lib/thumb/v7ve+simd/hard/libstdc++.a(eh_alloc.o)
 .init_array    0x0000000000045bd8        0x4 ../../../../install/arm-none-circle/lib/libcirclenewlib.a(io.o)
 .init_array    0x0000000000045bdc        0x4 ../../lib/usb/libusb.a(usbstandardhub.o)
 .init_array    0x0000000000045be0        0x4 ../../lib/usb/libusb.a(usbdevice.o)
 .init_array    0x0000000000045be4        0x4 ../../lib/usb/libusb.a(usbkeyboard.o)
 .init_array    0x0000000000045be8        0x4 ../../lib/usb/libusb.a(usbmassdevice.o)
 .init_array    0x0000000000045bec        0x4 ../../lib/usb/libusb.a(usbmidi.o)
 .init_array    0x0000000000045bf0        0x4 ../../lib/usb/libusb.a(usbprinter.o)
 .init_array    0x0000000000045bf4        0x4 ../../lib/usb/libusb.a(usbbluetooth.o)
 .init_array    0x0000000000045bf8        0x4 ../../lib/usb/libusb.a(usbgamepad.o)
 .init_array    0x0000000000045bfc        0x4 ../../lib/input/libinput.a(mouse.o)
                0x0000000000045c00                __init_end = .

.ARM.exidx      0x0000000000045c00     0x1228
                0x0000000000045c00                __exidx_start = .
 *(.ARM.exidx*)
 .ARM.exidx.text.startup
                0x0000000000045c00        0x8 main.o
 .ARM.exidx     0x0000000000045c08       0x18 kernel.o
                                         0x20 (size before relaxing)
 .ARM.exidx     0x0000000000045c20       0x20 ../../lib/libcircle.a(actled.o)
                                         0x30 (size before relaxing)
 .ARM.exidx     0x0000000000045c40       0x48 ../../lib/libcircle.a(devicenameservice.o)
                                         0x50 (size before relaxing)
 .ARM.exidx     0x0000000000045c88       0x70 ../../lib/libcircle.a(gpiopin.o)
                                         0xb8 (size before relaxing)
 .ARM.exidx.text.startup
                0x0000000000045cf8        0x0 ../../lib/libcircle.a(gpiopin.o)
                                          0x8 (size before relaxing)
 .ARM.exidx     0x0000000000045cf8       0x10 ../../lib/libcircle.a(koptions.o)
                                         0x90 (size before relaxing)
 .ARM.exidx     0x0000000000045d08       0x40 ../../lib/libcircle.a(machineinfo.o)
                                         0x98 (size before relaxing)
 .ARM.exidx     0x0000000000045d48       0xd8 ../../lib/libcircle.a(screen.o)
                                        0x158 (size before relaxing)
 .ARM.exidx     0x0000000000045e20       0x70 ../../lib/libcircle.a(string.o)
                                         0xa8 (size before relaxing)
 .ARM.exidx     0x0000000000045e90       0x10 ../../lib/libcircle.a(sysinit.o)
                                         0x38 (size before relaxing)
 .ARM.exidx     0x0000000000045ea0       0xa0 ../../lib/libcircle.a(timer.o)
                                         0xd8 (size before relaxing)
 .ARM.exidx     0x0000000000045f40        0x8 ../../lib/libcircle.a(util.o)
                                         0x10 (size before relaxing)
 .ARM.exidx     0x0000000000045f48       0x20 ../../lib/libcircle.a(virtualgpiopin.o)
                                         0x30 (size before relaxing)
 .ARM.exidx.text.startup
                0x0000000000045f68        0x0 ../../lib/libcircle.a(virtualgpiopin.o)
                                          0x8 (size before relaxing)
 .ARM.exidx     0x0000000000045f68        0x0 ../../lib/libcircle.a(chainboot.o)
                                         0x20 (size before relaxing)
 .ARM.exidx     0x0000000000045f68       0x30 ../../lib/libcircle.a(memory.o)
                                         0x40 (size before relaxing)
 .ARM.exidx     0x0000000000045f98       0x10 ../../lib/libcircle.a(pagetable.o)
                                         0x18 (size before relaxing)
 .ARM.exidx     0x0000000000045fa8        0x8 ../../lib/libcircle.a(synchronize.o)
                                         0x20 (size before relaxing)
 .ARM.exidx     0x0000000000045fb0       0x40 ../../lib/libcircle.a(interrupt.o)
                                         0x78 (size before relaxing)
 .ARM.exidx     0x0000000000045ff0        0x8 ../../lib/libcircle.a(assert.o)
 .ARM.exidx     0x0000000000045ff8       0x38 ../../lib/libcircle.a(bcmframebuffer.o)
                                         0x88 (size before relaxing)
 .ARM.exidx     0x0000000000046030       0x20 ../../lib/libcircle.a(bcmpropertytags.o)
 .ARM.exidx     0x0000000000046050       0x10 ../../lib/libcircle.a(chargenerator.o)
                                         0x30 (size before relaxing)
 .ARM.exidx     0x0000000000046060       0x18 ../../lib/libcircle.a(debug.o)
                                         0x10 (size before relaxing)
 .ARM.exidx     0x0000000000046078       0x20 ../../lib/libcircle.a(device.o)
                                         0x38 (size before relaxing)
 .ARM.exidx     0x0000000000046098       0x38 ../../lib/libcircle.a(dmachannel.o)
                                         0x60 (size before relaxing)
 .ARM.exidx     0x00000000000460d0       0x28 ../../lib/libcircle.a(gpiomanager.o)
                                         0x38 (size before relaxing)
 .ARM.exidx     0x00000000000460f8       0x60 ../../lib/libcircle.a(logger.o)
                                         0x70 (size before relaxing)
 .ARM.exidx     0x0000000000046158       0x28 ../../lib/libcircle.a(ptrlist.o)
                                         0x48 (size before relaxing)
 .ARM.exidx     0x0000000000046180        0x8 ../../lib/libcircle.a(new.o)
                                         0x10 (size before relaxing)
 .ARM.exidx     0x0000000000046188       0x18 ../../lib/libcircle.a(heapallocator.o)
                                         0x38 (size before relaxing)
 .ARM.exidx     0x00000000000461a0       0x18 ../../lib/libcircle.a(pageallocator.o)
                                         0x30 (size before relaxing)
 .ARM.exidx     0x00000000000461b8       0x20 ../../lib/libcircle.a(bcmmailbox.o)
                                         0x30 (size before relaxing)
 .ARM.exidx.text.startup
                0x00000000000461d8        0x8 ../../lib/libcircle.a(bcmmailbox.o)
 .ARM.exidx     0x00000000000461e0       0x30 ../../lib/libcircle.a(exceptionhandler.o)
 .ARM.exidx.text._ZNK10__cxxabiv117__class_type_info11__do_upcastEPKS0_PPv
                0x0000000000046210        0x8 /home/olf/projects/circle/gcc-arm-9.2-2019.12-x86_64-arm-none-eabi/bin/../lib/gcc/arm-none-eabi/9.2.1/../../../../arm-none-eabi/lib/thumb/v7ve+simd/hard/libstdc++.a(class_type_info.o)
 .ARM.exidx.text._ZNK10__cxxabiv117__class_type_info20__do_find_public_srcEiPKvPKS0_S2_
                0x0000000000046218        0x8 /home/olf/projects/circle/gcc-arm-9.2-2019.12-x86_64-arm-none-eabi/bin/../lib/gcc/arm-none-eabi/9.2.1/../../../../arm-none-eabi/lib/thumb/v7ve+simd/hard/libstdc++.a(class_type_info.o)
 .ARM.exidx.text._ZN10__cxxabiv117__class_type_infoD2Ev
                0x0000000000046220        0x0 /home/olf/projects/circle/gcc-arm-9.2-2019.12-x86_64-arm-none-eabi/bin/../lib/gcc/arm-none-eabi/9.2.1/../../../../arm-none-eabi/lib/thumb/v7ve+simd/hard/libstdc++.a(class_type_info.o)
                                          0x8 (size before relaxing)
 .ARM.exidx.text._ZN10__cxxabiv117__class_type_infoD0Ev
                0x0000000000046220        0x0 /home/olf/projects/circle/gcc-arm-9.2-2019.12-x86_64-arm-none-eabi/bin/../lib/gcc/arm-none-eabi/9.2.1/../../../../arm-none-eabi/lib/thumb/v7ve+simd/hard/libstdc++.a(class_type_info.o)
                                          0x8 (size before relaxing)
 .ARM.exidx.text._ZNK10__cxxabiv117__class_type_info12__do_dyncastEiNS0_10__sub_kindEPKS0_PKvS3_S5_RNS0_16__dyncast_resultE
                0x0000000000046220        0x0 /home/olf/projects/circle/gcc-arm-9.2-2019.12-x86_64-arm-none-eabi/bin/../lib/gcc/arm-none-eabi/9.2.1/../../../../arm-none-eabi/lib/thumb/v7ve+simd/hard/libstdc++.a(class_type_info.o)
                                          0x8 (size before relaxing)
 .ARM.exidx.text._ZNK10__cxxabiv117__class_type_info11__do_upcastEPKS0_PKvRNS0_15__upcast_resultE
                0x0000000000046220        0x0 /home/olf/projects/circle/gcc-arm-9.2-2019.12-x86_64-arm-none-eabi/bin/../lib/gcc/arm-none-eabi/9.2.1/../../../../arm-none-eabi/lib/thumb/v7ve+simd/hard/libstdc++.a(class_type_info.o)
                                          0x8 (size before relaxing)
 .ARM.exidx.text._ZNK10__cxxabiv117__class_type_info10__do_catchEPKSt9type_infoPPvj
                0x0000000000046220        0x0 /home/olf/projects/circle/gcc-arm-9.2-2019.12-x86_64-arm-none-eabi/bin/../lib/gcc/arm-none-eabi/9.2.1/../../../../arm-none-eabi/lib/thumb/v7ve+simd/hard/libstdc++.a(class_type_info.o)
                                          0x8 (size before relaxing)
 .ARM.exidx.text._ZdlPvj
                0x0000000000046220        0x0 /home/olf/projects/circle/gcc-arm-9.2-2019.12-x86_64-arm-none-eabi/bin/../lib/gcc/arm-none-eabi/9.2.1/../../../../arm-none-eabi/lib/thumb/v7ve+simd/hard/libstdc++.a(del_ops.o)
                                          0x8 (size before relaxing)
 .ARM.exidx.text._ZdaPv
                0x0000000000046220        0x0 /home/olf/projects/circle/gcc-arm-9.2-2019.12-x86_64-arm-none-eabi/bin/../lib/gcc/arm-none-eabi/9.2.1/../../../../arm-none-eabi/lib/thumb/v7ve+simd/hard/libstdc++.a(del_opv.o)
                                          0x8 (size before relaxing)
 .ARM.exidx.text.__cxa_type_match
                0x0000000000046220        0x8 /home/olf/projects/circle/gcc-arm-9.2-2019.12-x86_64-arm-none-eabi/bin/../lib/gcc/arm-none-eabi/9.2.1/../../../../arm-none-eabi/lib/thumb/v7ve+simd/hard/libstdc++.a(eh_arm.o)
 .ARM.exidx.text.__cxa_begin_cleanup
                0x0000000000046228        0x8 /home/olf/projects/circle/gcc-arm-9.2-2019.12-x86_64-arm-none-eabi/bin/../lib/gcc/arm-none-eabi/9.2.1/../../../../arm-none-eabi/lib/thumb/v7ve+simd/hard/libstdc++.a(eh_arm.o)
 .ARM.exidx.text.__gnu_end_cleanup
                0x0000000000046230        0x0 /home/olf/projects/circle/gcc-arm-9.2-2019.12-x86_64-arm-none-eabi/bin/../lib/gcc/arm-none-eabi/9.2.1/../../../../arm-none-eabi/lib/thumb/v7ve+simd/hard/libstdc++.a(eh_arm.o)
                                          0x8 (size before relaxing)
 .ARM.exidx.text.unlikely.__cxa_bad_cast
                0x0000000000046230        0x8 /home/olf/projects/circle/gcc-arm-9.2-2019.12-x86_64-arm-none-eabi/bin/../lib/gcc/arm-none-eabi/9.2.1/../../../../arm-none-eabi/lib/thumb/v7ve+simd/hard/libstdc++.a(eh_aux_runtime.o)
 .ARM.exidx.text.unlikely.__cxa_bad_typeid
                0x0000000000046238        0x8 /home/olf/projects/circle/gcc-arm-9.2-2019.12-x86_64-arm-none-eabi/bin/../lib/gcc/arm-none-eabi/9.2.1/../../../../arm-none-eabi/lib/thumb/v7ve+simd/hard/libstdc++.a(eh_aux_runtime.o)
 .ARM.exidx.text.unlikely.__cxa_throw_bad_array_new_length
                0x0000000000046240        0x8 /home/olf/projects/circle/gcc-arm-9.2-2019.12-x86_64-arm-none-eabi/bin/../lib/gcc/arm-none-eabi/9.2.1/../../../../arm-none-eabi/lib/thumb/v7ve+simd/hard/libstdc++.a(eh_aux_runtime.o)
 .ARM.exidx.text._ZNSt9exceptionD2Ev
                0x0000000000046248        0x8 /home/olf/projects/circle/gcc-arm-9.2-2019.12-x86_64-arm-none-eabi/bin/../lib/gcc/arm-none-eabi/9.2.1/../../../../arm-none-eabi/lib/thumb/v7ve+simd/hard/libstdc++.a(eh_exception.o)
 .ARM.exidx.text._ZNSt13bad_exceptionD2Ev
                0x0000000000046250        0x0 /home/olf/projects/circle/gcc-arm-9.2-2019.12-x86_64-arm-none-eabi/bin/../lib/gcc/arm-none-eabi/9.2.1/../../../../arm-none-eabi/lib/thumb/v7ve+simd/hard/libstdc++.a(eh_exception.o)
                                          0x8 (size before relaxing)
 .ARM.exidx.text._ZNKSt9exception4whatEv
                0x0000000000046250        0x0 /home/olf/projects/circle/gcc-arm-9.2-2019.12-x86_64-arm-none-eabi/bin/../lib/gcc/arm-none-eabi/9.2.1/../../../../arm-none-eabi/lib/thumb/v7ve+simd/hard/libstdc++.a(eh_exception.o)
                                          0x8 (size before relaxing)
 .ARM.exidx.text._ZNKSt13bad_exception4whatEv
                0x0000000000046250        0x0 /home/olf/projects/circle/gcc-arm-9.2-2019.12-x86_64-arm-none-eabi/bin/../lib/gcc/arm-none-eabi/9.2.1/../../../../arm-none-eabi/lib/thumb/v7ve+simd/hard/libstdc++.a(eh_exception.o)
                                          0x8 (size before relaxing)
 .ARM.exidx.text._ZNSt9exceptionD0Ev
                0x0000000000046250        0x0 /home/olf/projects/circle/gcc-arm-9.2-2019.12-x86_64-arm-none-eabi/bin/../lib/gcc/arm-none-eabi/9.2.1/../../../../arm-none-eabi/lib/thumb/v7ve+simd/hard/libstdc++.a(eh_exception.o)
                                          0x8 (size before relaxing)
 .ARM.exidx.text._ZNSt13bad_exceptionD0Ev
                0x0000000000046250        0x0 /home/olf/projects/circle/gcc-arm-9.2-2019.12-x86_64-arm-none-eabi/bin/../lib/gcc/arm-none-eabi/9.2.1/../../../../arm-none-eabi/lib/thumb/v7ve+simd/hard/libstdc++.a(eh_exception.o)
                                          0x8 (size before relaxing)
 .ARM.exidx.text._ZN10__cxxabiv115__forced_unwindD2Ev
                0x0000000000046250        0x0 /home/olf/projects/circle/gcc-arm-9.2-2019.12-x86_64-arm-none-eabi/bin/../lib/gcc/arm-none-eabi/9.2.1/../../../../arm-none-eabi/lib/thumb/v7ve+simd/hard/libstdc++.a(eh_exception.o)
                                          0x8 (size before relaxing)
 .ARM.exidx.text._ZN10__cxxabiv115__forced_unwindD0Ev
                0x0000000000046250        0x0 /home/olf/projects/circle/gcc-arm-9.2-2019.12-x86_64-arm-none-eabi/bin/../lib/gcc/arm-none-eabi/9.2.1/../../../../arm-none-eabi/lib/thumb/v7ve+simd/hard/libstdc++.a(eh_exception.o)
                                          0x8 (size before relaxing)
 .ARM.exidx.text._ZN10__cxxabiv119__foreign_exceptionD2Ev
                0x0000000000046250        0x0 /home/olf/projects/circle/gcc-arm-9.2-2019.12-x86_64-arm-none-eabi/bin/../lib/gcc/arm-none-eabi/9.2.1/../../../../arm-none-eabi/lib/thumb/v7ve+simd/hard/libstdc++.a(eh_exception.o)
                                          0x8 (size before relaxing)
 .ARM.exidx.text._ZN10__cxxabiv119__foreign_exceptionD0Ev
                0x0000000000046250        0x0 /home/olf/projects/circle/gcc-arm-9.2-2019.12-x86_64-arm-none-eabi/bin/../lib/gcc/arm-none-eabi/9.2.1/../../../../arm-none-eabi/lib/thumb/v7ve+simd/hard/libstdc++.a(eh_exception.o)
                                          0x8 (size before relaxing)
 .ARM.exidx.text._ZGTtNKSt9exceptionD1Ev
                0x0000000000046250        0x0 /home/olf/projects/circle/gcc-arm-9.2-2019.12-x86_64-arm-none-eabi/bin/../lib/gcc/arm-none-eabi/9.2.1/../../../../arm-none-eabi/lib/thumb/v7ve+simd/hard/libstdc++.a(eh_exception.o)
                                          0x8 (size before relaxing)
 .ARM.exidx.text._ZGTtNKSt13bad_exceptionD1Ev
                0x0000000000046250        0x0 /home/olf/projects/circle/gcc-arm-9.2-2019.12-x86_64-arm-none-eabi/bin/../lib/gcc/arm-none-eabi/9.2.1/../../../../arm-none-eabi/lib/thumb/v7ve+simd/hard/libstdc++.a(eh_exception.o)
                                          0x8 (size before relaxing)
 .ARM.exidx.text.__cxa_get_globals_fast
                0x0000000000046250        0x0 /home/olf/projects/circle/gcc-arm-9.2-2019.12-x86_64-arm-none-eabi/bin/../lib/gcc/arm-none-eabi/9.2.1/../../../../arm-none-eabi/lib/thumb/v7ve+simd/hard/libstdc++.a(eh_globals.o)
                                          0x8 (size before relaxing)
 .ARM.exidx.text.__cxa_get_globals
                0x0000000000046250        0x0 /home/olf/projects/circle/gcc-arm-9.2-2019.12-x86_64-arm-none-eabi/bin/../lib/gcc/arm-none-eabi/9.2.1/../../../../arm-none-eabi/lib/thumb/v7ve+simd/hard/libstdc++.a(eh_globals.o)
                                          0x8 (size before relaxing)
 .ARM.exidx.text._ZL28read_encoded_value_with_basehjPKhPj
                0x0000000000046250        0x8 /home/olf/projects/circle/gcc-arm-9.2-2019.12-x86_64-arm-none-eabi/bin/../lib/gcc/arm-none-eabi/9.2.1/../../../../arm-none-eabi/lib/thumb/v7ve+simd/hard/libstdc++.a(eh_personality.o)
 .ARM.exidx.text._ZL21base_of_encoded_valuehP15_Unwind_Context
                0x0000000000046258        0x8 /home/olf/projects/circle/gcc-arm-9.2-2019.12-x86_64-arm-none-eabi/bin/../lib/gcc/arm-none-eabi/9.2.1/../../../../arm-none-eabi/lib/thumb/v7ve+simd/hard/libstdc++.a(eh_personality.o)
 .ARM.exidx.text._ZL17parse_lsda_headerP15_Unwind_ContextPKhP16lsda_header_info
                0x0000000000046260        0x8 /home/olf/projects/circle/gcc-arm-9.2-2019.12-x86_64-arm-none-eabi/bin/../lib/gcc/arm-none-eabi/9.2.1/../../../../arm-none-eabi/lib/thumb/v7ve+simd/hard/libstdc++.a(eh_personality.o)
 .ARM.exidx.text.__gxx_personality_v0
                0x0000000000046268        0x8 /home/olf/projects/circle/gcc-arm-9.2-2019.12-x86_64-arm-none-eabi/bin/../lib/gcc/arm-none-eabi/9.2.1/../../../../arm-none-eabi/lib/thumb/v7ve+simd/hard/libstdc++.a(eh_personality.o)
 .ARM.exidx.text._ZN10__cxxabiv111__terminateEPFvvE
                0x0000000000046270        0x8 /home/olf/projects/circle/gcc-arm-9.2-2019.12-x86_64-arm-none-eabi/bin/../lib/gcc/arm-none-eabi/9.2.1/../../../../arm-none-eabi/lib/thumb/v7ve+simd/hard/libstdc++.a(eh_terminate.o)
 .ARM.exidx.text._ZSt9terminatev
                0x0000000000046278        0x8 /home/olf/projects/circle/gcc-arm-9.2-2019.12-x86_64-arm-none-eabi/bin/../lib/gcc/arm-none-eabi/9.2.1/../../../../arm-none-eabi/lib/thumb/v7ve+simd/hard/libstdc++.a(eh_terminate.o)
 .ARM.exidx.text._ZN10__cxxabiv112__unexpectedEPFvvE
                0x0000000000046280        0x8 /home/olf/projects/circle/gcc-arm-9.2-2019.12-x86_64-arm-none-eabi/bin/../lib/gcc/arm-none-eabi/9.2.1/../../../../arm-none-eabi/lib/thumb/v7ve+simd/hard/libstdc++.a(eh_terminate.o)
 .ARM.exidx.text._ZSt10unexpectedv
                0x0000000000046288        0x8 /home/olf/projects/circle/gcc-arm-9.2-2019.12-x86_64-arm-none-eabi/bin/../lib/gcc/arm-none-eabi/9.2.1/../../../../arm-none-eabi/lib/thumb/v7ve+simd/hard/libstdc++.a(eh_terminate.o)
 .ARM.exidx.text._ZSt13set_terminatePFvvE
                0x0000000000046290        0x8 /home/olf/projects/circle/gcc-arm-9.2-2019.12-x86_64-arm-none-eabi/bin/../lib/gcc/arm-none-eabi/9.2.1/../../../../arm-none-eabi/lib/thumb/v7ve+simd/hard/libstdc++.a(eh_terminate.o)
 .ARM.exidx.text._ZSt13get_terminatev
                0x0000000000046298        0x0 /home/olf/projects/circle/gcc-arm-9.2-2019.12-x86_64-arm-none-eabi/bin/../lib/gcc/arm-none-eabi/9.2.1/../../../../arm-none-eabi/lib/thumb/v7ve+simd/hard/libstdc++.a(eh_terminate.o)
                                          0x8 (size before relaxing)
 .ARM.exidx.text._ZSt14set_unexpectedPFvvE
                0x0000000000046298        0x0 /home/olf/projects/circle/gcc-arm-9.2-2019.12-x86_64-arm-none-eabi/bin/../lib/gcc/arm-none-eabi/9.2.1/../../../../arm-none-eabi/lib/thumb/v7ve+simd/hard/libstdc++.a(eh_terminate.o)
                                          0x8 (size before relaxing)
 .ARM.exidx.text._ZSt14get_unexpectedv
                0x0000000000046298        0x0 /home/olf/projects/circle/gcc-arm-9.2-2019.12-x86_64-arm-none-eabi/bin/../lib/gcc/arm-none-eabi/9.2.1/../../../../arm-none-eabi/lib/thumb/v7ve+simd/hard/libstdc++.a(eh_terminate.o)
                                          0x8 (size before relaxing)
 .ARM.exidx.text._ZL23__gxx_exception_cleanup19_Unwind_Reason_CodeP21_Unwind_Control_Block
                0x0000000000046298        0x8 /home/olf/projects/circle/gcc-arm-9.2-2019.12-x86_64-arm-none-eabi/bin/../lib/gcc/arm-none-eabi/9.2.1/../../../../arm-none-eabi/lib/thumb/v7ve+simd/hard/libstdc++.a(eh_throw.o)
 .ARM.exidx.text.__cxa_init_primary_exception
                0x00000000000462a0        0x8 /home/olf/projects/circle/gcc-arm-9.2-2019.12-x86_64-arm-none-eabi/bin/../lib/gcc/arm-none-eabi/9.2.1/../../../../arm-none-eabi/lib/thumb/v7ve+simd/hard/libstdc++.a(eh_throw.o)
 .ARM.exidx.text.__cxa_throw
                0x00000000000462a8        0x8 /home/olf/projects/circle/gcc-arm-9.2-2019.12-x86_64-arm-none-eabi/bin/../lib/gcc/arm-none-eabi/9.2.1/../../../../arm-none-eabi/lib/thumb/v7ve+simd/hard/libstdc++.a(eh_throw.o)
 .ARM.exidx.text.__cxa_rethrow
                0x00000000000462b0        0x8 /home/olf/projects/circle/gcc-arm-9.2-2019.12-x86_64-arm-none-eabi/bin/../lib/gcc/arm-none-eabi/9.2.1/../../../../arm-none-eabi/lib/thumb/v7ve+simd/hard/libstdc++.a(eh_throw.o)
 .ARM.exidx.text._Znwj
                0x00000000000462b8        0x0 /home/olf/projects/circle/gcc-arm-9.2-2019.12-x86_64-arm-none-eabi/bin/../lib/gcc/arm-none-eabi/9.2.1/../../../../arm-none-eabi/lib/thumb/v7ve+simd/hard/libstdc++.a(new_op.o)
                                          0x8 (size before relaxing)
 .ARM.exidx.text._Znaj
                0x00000000000462b8        0x8 /home/olf/projects/circle/gcc-arm-9.2-2019.12-x86_64-arm-none-eabi/bin/../lib/gcc/arm-none-eabi/9.2.1/../../../../arm-none-eabi/lib/thumb/v7ve+simd/hard/libstdc++.a(new_opv.o)
 .ARM.exidx.text.__cxa_pure_virtual
                0x00000000000462c0        0x8 /home/olf/projects/circle/gcc-arm-9.2-2019.12-x86_64-arm-none-eabi/bin/../lib/gcc/arm-none-eabi/9.2.1/../../../../arm-none-eabi/lib/thumb/v7ve+simd/hard/libstdc++.a(pure.o)
 .ARM.exidx.text.__cxa_deleted_virtual
                0x00000000000462c8        0x8 /home/olf/projects/circle/gcc-arm-9.2-2019.12-x86_64-arm-none-eabi/bin/../lib/gcc/arm-none-eabi/9.2.1/../../../../arm-none-eabi/lib/thumb/v7ve+simd/hard/libstdc++.a(pure.o)
 .ARM.exidx.text._ZN10__cxxabiv120__si_class_type_infoD2Ev
                0x00000000000462d0        0x8 /home/olf/projects/circle/gcc-arm-9.2-2019.12-x86_64-arm-none-eabi/bin/../lib/gcc/arm-none-eabi/9.2.1/../../../../arm-none-eabi/lib/thumb/v7ve+simd/hard/libstdc++.a(si_class_type_info.o)
 .ARM.exidx.text._ZN10__cxxabiv120__si_class_type_infoD0Ev
                0x00000000000462d8        0x0 /home/olf/projects/circle/gcc-arm-9.2-2019.12-x86_64-arm-none-eabi/bin/../lib/gcc/arm-none-eabi/9.2.1/../../../../arm-none-eabi/lib/thumb/v7ve+simd/hard/libstdc++.a(si_class_type_info.o)
                                          0x8 (size before relaxing)
 .ARM.exidx.text._ZNK10__cxxabiv120__si_class_type_info20__do_find_public_srcEiPKvPKNS_17__class_type_infoES2_
                0x00000000000462d8        0x0 /home/olf/projects/circle/gcc-arm-9.2-2019.12-x86_64-arm-none-eabi/bin/../lib/gcc/arm-none-eabi/9.2.1/../../../../arm-none-eabi/lib/thumb/v7ve+simd/hard/libstdc++.a(si_class_type_info.o)
                                          0x8 (size before relaxing)
 .ARM.exidx.text._ZNK10__cxxabiv120__si_class_type_info12__do_dyncastEiNS_17__class_type_info10__sub_kindEPKS1_PKvS4_S6_RNS1_16__dyncast_resultE
                0x00000000000462d8        0x0 /home/olf/projects/circle/gcc-arm-9.2-2019.12-x86_64-arm-none-eabi/bin/../lib/gcc/arm-none-eabi/9.2.1/../../../../arm-none-eabi/lib/thumb/v7ve+simd/hard/libstdc++.a(si_class_type_info.o)
                                          0x8 (size before relaxing)
 .ARM.exidx.text._ZNK10__cxxabiv120__si_class_type_info11__do_upcastEPKNS_17__class_type_infoEPKvRNS1_15__upcast_resultE
                0x00000000000462d8        0x8 /home/olf/projects/circle/gcc-arm-9.2-2019.12-x86_64-arm-none-eabi/bin/../lib/gcc/arm-none-eabi/9.2.1/../../../../arm-none-eabi/lib/thumb/v7ve+simd/hard/libstdc++.a(si_class_type_info.o)
 .ARM.exidx.text._ZNSt9type_infoD2Ev
                0x00000000000462e0        0x8 /home/olf/projects/circle/gcc-arm-9.2-2019.12-x86_64-arm-none-eabi/bin/../lib/gcc/arm-none-eabi/9.2.1/../../../../arm-none-eabi/lib/thumb/v7ve+simd/hard/libstdc++.a(tinfo.o)
 .ARM.exidx.text._ZNKSt9type_info14__is_pointer_pEv
                0x00000000000462e8        0x0 /home/olf/projects/circle/gcc-arm-9.2-2019.12-x86_64-arm-none-eabi/bin/../lib/gcc/arm-none-eabi/9.2.1/../../../../arm-none-eabi/lib/thumb/v7ve+simd/hard/libstdc++.a(tinfo.o)
                                          0x8 (size before relaxing)
 .ARM.exidx.text._ZNKSt9type_info11__do_upcastEPKN10__cxxabiv117__class_type_infoEPPv
                0x00000000000462e8        0x0 /home/olf/projects/circle/gcc-arm-9.2-2019.12-x86_64-arm-none-eabi/bin/../lib/gcc/arm-none-eabi/9.2.1/../../../../arm-none-eabi/lib/thumb/v7ve+simd/hard/libstdc++.a(tinfo.o)
                                          0x8 (size before relaxing)
 .ARM.exidx.text._ZNSt9type_infoD0Ev
                0x00000000000462e8        0x0 /home/olf/projects/circle/gcc-arm-9.2-2019.12-x86_64-arm-none-eabi/bin/../lib/gcc/arm-none-eabi/9.2.1/../../../../arm-none-eabi/lib/thumb/v7ve+simd/hard/libstdc++.a(tinfo.o)
                                          0x8 (size before relaxing)
 .ARM.exidx.text._ZNKSt9type_infoeqERKS_
                0x00000000000462e8        0x0 /home/olf/projects/circle/gcc-arm-9.2-2019.12-x86_64-arm-none-eabi/bin/../lib/gcc/arm-none-eabi/9.2.1/../../../../arm-none-eabi/lib/thumb/v7ve+simd/hard/libstdc++.a(tinfo.o)
                                          0x8 (size before relaxing)
 .ARM.exidx.text._ZNKSt9type_info10__do_catchEPKS_PPvj
                0x00000000000462e8        0x0 /home/olf/projects/circle/gcc-arm-9.2-2019.12-x86_64-arm-none-eabi/bin/../lib/gcc/arm-none-eabi/9.2.1/../../../../arm-none-eabi/lib/thumb/v7ve+simd/hard/libstdc++.a(tinfo.o)
                                          0x8 (size before relaxing)
 .ARM.exidx.text._ZN9__gnu_cxx27__verbose_terminate_handlerEv
                0x00000000000462e8        0x8 /home/olf/projects/circle/gcc-arm-9.2-2019.12-x86_64-arm-none-eabi/bin/../lib/gcc/arm-none-eabi/9.2.1/../../../../arm-none-eabi/lib/thumb/v7ve+simd/hard/libstdc++.a(vterminate.o)
 .ARM.exidx.text._ZNKSt9bad_alloc4whatEv
                0x00000000000462f0        0x8 /home/olf/projects/circle/gcc-arm-9.2-2019.12-x86_64-arm-none-eabi/bin/../lib/gcc/arm-none-eabi/9.2.1/../../../../arm-none-eabi/lib/thumb/v7ve+simd/hard/libstdc++.a(bad_alloc.o)
 .ARM.exidx.text._ZNSt9bad_allocD2Ev
                0x00000000000462f8        0x0 /home/olf/projects/circle/gcc-arm-9.2-2019.12-x86_64-arm-none-eabi/bin/../lib/gcc/arm-none-eabi/9.2.1/../../../../arm-none-eabi/lib/thumb/v7ve+simd/hard/libstdc++.a(bad_alloc.o)
                                          0x8 (size before relaxing)
 .ARM.exidx.text._ZNSt9bad_allocD0Ev
                0x00000000000462f8        0x0 /home/olf/projects/circle/gcc-arm-9.2-2019.12-x86_64-arm-none-eabi/bin/../lib/gcc/arm-none-eabi/9.2.1/../../../../arm-none-eabi/lib/thumb/v7ve+simd/hard/libstdc++.a(bad_alloc.o)
                                          0x8 (size before relaxing)
 .ARM.exidx.text._ZNKSt20bad_array_new_length4whatEv
                0x00000000000462f8        0x0 /home/olf/projects/circle/gcc-arm-9.2-2019.12-x86_64-arm-none-eabi/bin/../lib/gcc/arm-none-eabi/9.2.1/../../../../arm-none-eabi/lib/thumb/v7ve+simd/hard/libstdc++.a(bad_array_new.o)
                                          0x8 (size before relaxing)
 .ARM.exidx.text._ZNSt20bad_array_new_lengthD2Ev
                0x00000000000462f8        0x0 /home/olf/projects/circle/gcc-arm-9.2-2019.12-x86_64-arm-none-eabi/bin/../lib/gcc/arm-none-eabi/9.2.1/../../../../arm-none-eabi/lib/thumb/v7ve+simd/hard/libstdc++.a(bad_array_new.o)
                                          0x8 (size before relaxing)
 .ARM.exidx.text._ZNSt20bad_array_new_lengthD0Ev
                0x00000000000462f8        0x0 /home/olf/projects/circle/gcc-arm-9.2-2019.12-x86_64-arm-none-eabi/bin/../lib/gcc/arm-none-eabi/9.2.1/../../../../arm-none-eabi/lib/thumb/v7ve+simd/hard/libstdc++.a(bad_array_new.o)
                                          0x8 (size before relaxing)
 .ARM.exidx.text._ZNKSt8bad_cast4whatEv
                0x00000000000462f8        0x0 /home/olf/projects/circle/gcc-arm-9.2-2019.12-x86_64-arm-none-eabi/bin/../lib/gcc/arm-none-eabi/9.2.1/../../../../arm-none-eabi/lib/thumb/v7ve+simd/hard/libstdc++.a(bad_cast.o)
                                          0x8 (size before relaxing)
 .ARM.exidx.text._ZNSt8bad_castD2Ev
                0x00000000000462f8        0x0 /home/olf/projects/circle/gcc-arm-9.2-2019.12-x86_64-arm-none-eabi/bin/../lib/gcc/arm-none-eabi/9.2.1/../../../../arm-none-eabi/lib/thumb/v7ve+simd/hard/libstdc++.a(bad_cast.o)
                                          0x8 (size before relaxing)
 .ARM.exidx.text._ZNSt8bad_castD0Ev
                0x00000000000462f8        0x0 /home/olf/projects/circle/gcc-arm-9.2-2019.12-x86_64-arm-none-eabi/bin/../lib/gcc/arm-none-eabi/9.2.1/../../../../arm-none-eabi/lib/thumb/v7ve+simd/hard/libstdc++.a(bad_cast.o)
                                          0x8 (size before relaxing)
 .ARM.exidx.text._ZNKSt10bad_typeid4whatEv
                0x00000000000462f8        0x0 /home/olf/projects/circle/gcc-arm-9.2-2019.12-x86_64-arm-none-eabi/bin/../lib/gcc/arm-none-eabi/9.2.1/../../../../arm-none-eabi/lib/thumb/v7ve+simd/hard/libstdc++.a(bad_typeid.o)
                                          0x8 (size before relaxing)
 .ARM.exidx.text._ZNSt10bad_typeidD2Ev
                0x00000000000462f8        0x0 /home/olf/projects/circle/gcc-arm-9.2-2019.12-x86_64-arm-none-eabi/bin/../lib/gcc/arm-none-eabi/9.2.1/../../../../arm-none-eabi/lib/thumb/v7ve+simd/hard/libstdc++.a(bad_typeid.o)
                                          0x8 (size before relaxing)
 .ARM.exidx.text._ZNSt10bad_typeidD0Ev
                0x00000000000462f8        0x0 /home/olf/projects/circle/gcc-arm-9.2-2019.12-x86_64-arm-none-eabi/bin/../lib/gcc/arm-none-eabi/9.2.1/../../../../arm-none-eabi/lib/thumb/v7ve+simd/hard/libstdc++.a(bad_typeid.o)
                                          0x8 (size before relaxing)
 .ARM.exidx.text._ZdlPv
                0x00000000000462f8        0x0 /home/olf/projects/circle/gcc-arm-9.2-2019.12-x86_64-arm-none-eabi/bin/../lib/gcc/arm-none-eabi/9.2.1/../../../../arm-none-eabi/lib/thumb/v7ve+simd/hard/libstdc++.a(del_op.o)
                                          0x8 (size before relaxing)
 .ARM.exidx.text._ZN12_GLOBAL__N_14pool4freeEPv.constprop.0
                0x00000000000462f8        0x0 /home/olf/projects/circle/gcc-arm-9.2-2019.12-x86_64-arm-none-eabi/bin/../lib/gcc/arm-none-eabi/9.2.1/../../../../arm-none-eabi/lib/thumb/v7ve+simd/hard/libstdc++.a(eh_alloc.o)
                                          0x8 (size before relaxing)
 .ARM.exidx.text._ZN12_GLOBAL__N_14pool8allocateEj.constprop.0
                0x00000000000462f8        0x0 /home/olf/projects/circle/gcc-arm-9.2-2019.12-x86_64-arm-none-eabi/bin/../lib/gcc/arm-none-eabi/9.2.1/../../../../arm-none-eabi/lib/thumb/v7ve+simd/hard/libstdc++.a(eh_alloc.o)
                                          0x8 (size before relaxing)
 .ARM.exidx.text._ZN9__gnu_cxx9__freeresEv
                0x00000000000462f8        0x0 /home/olf/projects/circle/gcc-arm-9.2-2019.12-x86_64-arm-none-eabi/bin/../lib/gcc/arm-none-eabi/9.2.1/../../../../arm-none-eabi/lib/thumb/v7ve+simd/hard/libstdc++.a(eh_alloc.o)
                                          0x8 (size before relaxing)
 .ARM.exidx.text.__cxa_allocate_exception
                0x00000000000462f8        0x0 /home/olf/projects/circle/gcc-arm-9.2-2019.12-x86_64-arm-none-eabi/bin/../lib/gcc/arm-none-eabi/9.2.1/../../../../arm-none-eabi/lib/thumb/v7ve+simd/hard/libstdc++.a(eh_alloc.o)
                                          0x8 (size before relaxing)
 .ARM.exidx.text.__cxa_free_exception
                0x00000000000462f8        0x0 /home/olf/projects/circle/gcc-arm-9.2-2019.12-x86_64-arm-none-eabi/bin/../lib/gcc/arm-none-eabi/9.2.1/../../../../arm-none-eabi/lib/thumb/v7ve+simd/hard/libstdc++.a(eh_alloc.o)
                                          0x8 (size before relaxing)
 .ARM.exidx.text.__cxa_allocate_dependent_exception
                0x00000000000462f8        0x0 /home/olf/projects/circle/gcc-arm-9.2-2019.12-x86_64-arm-none-eabi/bin/../lib/gcc/arm-none-eabi/9.2.1/../../../../arm-none-eabi/lib/thumb/v7ve+simd/hard/libstdc++.a(eh_alloc.o)
                                          0x8 (size before relaxing)
 .ARM.exidx.text.__cxa_free_dependent_exception
                0x00000000000462f8        0x0 /home/olf/projects/circle/gcc-arm-9.2-2019.12-x86_64-arm-none-eabi/bin/../lib/gcc/arm-none-eabi/9.2.1/../../../../arm-none-eabi/lib/thumb/v7ve+simd/hard/libstdc++.a(eh_alloc.o)
                                          0x8 (size before relaxing)
 .ARM.exidx.text.startup._GLOBAL__sub_I__ZN9__gnu_cxx9__freeresEv
                0x00000000000462f8        0x0 /home/olf/projects/circle/gcc-arm-9.2-2019.12-x86_64-arm-none-eabi/bin/../lib/gcc/arm-none-eabi/9.2.1/../../../../arm-none-eabi/lib/thumb/v7ve+simd/hard/libstdc++.a(eh_alloc.o)
                                          0x8 (size before relaxing)
 .ARM.exidx.text._ZN10__cxxabiv1L24__is_gxx_exception_classEPc
                0x00000000000462f8        0x0 /home/olf/projects/circle/gcc-arm-9.2-2019.12-x86_64-arm-none-eabi/bin/../lib/gcc/arm-none-eabi/9.2.1/../../../../arm-none-eabi/lib/thumb/v7ve+simd/hard/libstdc++.a(eh_call.o)
                                          0x8 (size before relaxing)
 .ARM.exidx.text.__cxa_call_terminate
                0x00000000000462f8        0x0 /home/olf/projects/circle/gcc-arm-9.2-2019.12-x86_64-arm-none-eabi/bin/../lib/gcc/arm-none-eabi/9.2.1/../../../../arm-none-eabi/lib/thumb/v7ve+simd/hard/libstdc++.a(eh_call.o)
                                          0x8 (size before relaxing)
 .ARM.exidx.text.unlikely.__cxa_call_unexpected
                0x00000000000462f8        0x8 /home/olf/projects/circle/gcc-arm-9.2-2019.12-x86_64-arm-none-eabi/bin/../lib/gcc/arm-none-eabi/9.2.1/../../../../arm-none-eabi/lib/thumb/v7ve+simd/hard/libstdc++.a(eh_call.o)
 .ARM.exidx.text.__cxa_get_exception_ptr
                0x0000000000046300        0x8 /home/olf/projects/circle/gcc-arm-9.2-2019.12-x86_64-arm-none-eabi/bin/../lib/gcc/arm-none-eabi/9.2.1/../../../../arm-none-eabi/lib/thumb/v7ve+simd/hard/libstdc++.a(eh_catch.o)
 .ARM.exidx.text.__cxa_begin_catch
                0x0000000000046308        0x8 /home/olf/projects/circle/gcc-arm-9.2-2019.12-x86_64-arm-none-eabi/bin/../lib/gcc/arm-none-eabi/9.2.1/../../../../arm-none-eabi/lib/thumb/v7ve+simd/hard/libstdc++.a(eh_catch.o)
 .ARM.exidx.text.__cxa_end_catch
                0x0000000000046310        0x8 /home/olf/projects/circle/gcc-arm-9.2-2019.12-x86_64-arm-none-eabi/bin/../lib/gcc/arm-none-eabi/9.2.1/../../../../arm-none-eabi/lib/thumb/v7ve+simd/hard/libstdc++.a(eh_catch.o)
 .ARM.exidx.text._ZSt18uncaught_exceptionv
                0x0000000000046318        0x0 /home/olf/projects/circle/gcc-arm-9.2-2019.12-x86_64-arm-none-eabi/bin/../lib/gcc/arm-none-eabi/9.2.1/../../../../arm-none-eabi/lib/thumb/v7ve+simd/hard/libstdc++.a(eh_catch.o)
                                          0x8 (size before relaxing)
 .ARM.exidx.text._ZSt19uncaught_exceptionsv
                0x0000000000046318        0x0 /home/olf/projects/circle/gcc-arm-9.2-2019.12-x86_64-arm-none-eabi/bin/../lib/gcc/arm-none-eabi/9.2.1/../../../../arm-none-eabi/lib/thumb/v7ve+simd/hard/libstdc++.a(eh_catch.o)
                                          0x8 (size before relaxing)
 .ARM.exidx.text.__cxa_current_exception_type
                0x0000000000046318        0x0 /home/olf/projects/circle/gcc-arm-9.2-2019.12-x86_64-arm-none-eabi/bin/../lib/gcc/arm-none-eabi/9.2.1/../../../../arm-none-eabi/lib/thumb/v7ve+simd/hard/libstdc++.a(eh_type.o)
                                          0x8 (size before relaxing)
 .ARM.exidx.text._ZSt15set_new_handlerPFvvE
                0x0000000000046318        0x0 /home/olf/projects/circle/gcc-arm-9.2-2019.12-x86_64-arm-none-eabi/bin/../lib/gcc/arm-none-eabi/9.2.1/../../../../arm-none-eabi/lib/thumb/v7ve+simd/hard/libstdc++.a(new_handler.o)
                                          0x8 (size before relaxing)
 .ARM.exidx.text._ZSt15get_new_handlerv
                0x0000000000046318        0x0 /home/olf/projects/circle/gcc-arm-9.2-2019.12-x86_64-arm-none-eabi/bin/../lib/gcc/arm-none-eabi/9.2.1/../../../../arm-none-eabi/lib/thumb/v7ve+simd/hard/libstdc++.a(new_handler.o)
                                          0x8 (size before relaxing)
 .ARM.exidx.text.__udivmoddi4
                0x0000000000046318        0x0 /home/olf/projects/circle/gcc-arm-9.2-2019.12-x86_64-arm-none-eabi/bin/../lib/gcc/arm-none-eabi/9.2.1/thumb/v7ve+simd/hard/libgcc.a(_udivmoddi4.o)
                                          0x8 (size before relaxing)
 .ARM.exidx.text.selfrel_offset31
                0x0000000000046318        0x0 /home/olf/projects/circle/gcc-arm-9.2-2019.12-x86_64-arm-none-eabi/bin/../lib/gcc/arm-none-eabi/9.2.1/thumb/v7ve+simd/hard/libgcc.a(unwind-arm.o)
                                          0x8 (size before relaxing)
 .ARM.exidx.text.search_EIT_table
                0x0000000000046318        0x0 /home/olf/projects/circle/gcc-arm-9.2-2019.12-x86_64-arm-none-eabi/bin/../lib/gcc/arm-none-eabi/9.2.1/thumb/v7ve+simd/hard/libgcc.a(unwind-arm.o)
                                          0x8 (size before relaxing)
 .ARM.exidx.text.__gnu_unwind_get_pr_addr
                0x0000000000046318        0x0 /home/olf/projects/circle/gcc-arm-9.2-2019.12-x86_64-arm-none-eabi/bin/../lib/gcc/arm-none-eabi/9.2.1/thumb/v7ve+simd/hard/libgcc.a(unwind-arm.o)
                                          0x8 (size before relaxing)
 .ARM.exidx.text.get_eit_entry
                0x0000000000046318        0x8 /home/olf/projects/circle/gcc-arm-9.2-2019.12-x86_64-arm-none-eabi/bin/../lib/gcc/arm-none-eabi/9.2.1/thumb/v7ve+simd/hard/libgcc.a(unwind-arm.o)
 .ARM.exidx.text.restore_non_core_regs
                0x0000000000046320        0x8 /home/olf/projects/circle/gcc-arm-9.2-2019.12-x86_64-arm-none-eabi/bin/../lib/gcc/arm-none-eabi/9.2.1/thumb/v7ve+simd/hard/libgcc.a(unwind-arm.o)
 .ARM.exidx.text._Unwind_decode_typeinfo_ptr.isra.0
                0x0000000000046328        0x8 /home/olf/projects/circle/gcc-arm-9.2-2019.12-x86_64-arm-none-eabi/bin/../lib/gcc/arm-none-eabi/9.2.1/thumb/v7ve+simd/hard/libgcc.a(unwind-arm.o)
 .ARM.exidx.text.__gnu_unwind_24bit.isra.0
                0x0000000000046330        0x0 /home/olf/projects/circle/gcc-arm-9.2-2019.12-x86_64-arm-none-eabi/bin/../lib/gcc/arm-none-eabi/9.2.1/thumb/v7ve+simd/hard/libgcc.a(unwind-arm.o)
                                          0x8 (size before relaxing)
 .ARM.exidx.text._Unwind_DebugHook
                0x0000000000046330        0x0 /home/olf/projects/circle/gcc-arm-9.2-2019.12-x86_64-arm-none-eabi/bin/../lib/gcc/arm-none-eabi/9.2.1/thumb/v7ve+simd/hard/libgcc.a(unwind-arm.o)
                                          0x8 (size before relaxing)
 .ARM.exidx.text.unwind_phase2
                0x0000000000046330        0x8 /home/olf/projects/circle/gcc-arm-9.2-2019.12-x86_64-arm-none-eabi/bin/../lib/gcc/arm-none-eabi/9.2.1/thumb/v7ve+simd/hard/libgcc.a(unwind-arm.o)
 .ARM.exidx.text.unwind_phase2_forced
                0x0000000000046338        0x8 /home/olf/projects/circle/gcc-arm-9.2-2019.12-x86_64-arm-none-eabi/bin/../lib/gcc/arm-none-eabi/9.2.1/thumb/v7ve+simd/hard/libgcc.a(unwind-arm.o)
 .ARM.exidx.text._Unwind_GetCFA
                0x0000000000046340        0x8 /home/olf/projects/circle/gcc-arm-9.2-2019.12-x86_64-arm-none-eabi/bin/../lib/gcc/arm-none-eabi/9.2.1/thumb/v7ve+simd/hard/libgcc.a(unwind-arm.o)
 .ARM.exidx.text.__gnu_Unwind_RaiseException
                0x0000000000046348        0x8 /home/olf/projects/circle/gcc-arm-9.2-2019.12-x86_64-arm-none-eabi/bin/../lib/gcc/arm-none-eabi/9.2.1/thumb/v7ve+simd/hard/libgcc.a(unwind-arm.o)
 .ARM.exidx.text.__gnu_Unwind_ForcedUnwind
                0x0000000000046350        0x8 /home/olf/projects/circle/gcc-arm-9.2-2019.12-x86_64-arm-none-eabi/bin/../lib/gcc/arm-none-eabi/9.2.1/thumb/v7ve+simd/hard/libgcc.a(unwind-arm.o)
 .ARM.exidx.text.__gnu_Unwind_Resume
                0x0000000000046358        0x8 /home/olf/projects/circle/gcc-arm-9.2-2019.12-x86_64-arm-none-eabi/bin/../lib/gcc/arm-none-eabi/9.2.1/thumb/v7ve+simd/hard/libgcc.a(unwind-arm.o)
 .ARM.exidx.text.__gnu_Unwind_Resume_or_Rethrow
                0x0000000000046360        0x8 /home/olf/projects/circle/gcc-arm-9.2-2019.12-x86_64-arm-none-eabi/bin/../lib/gcc/arm-none-eabi/9.2.1/thumb/v7ve+simd/hard/libgcc.a(unwind-arm.o)
 .ARM.exidx.text._Unwind_Complete
                0x0000000000046368        0x0 /home/olf/projects/circle/gcc-arm-9.2-2019.12-x86_64-arm-none-eabi/bin/../lib/gcc/arm-none-eabi/9.2.1/thumb/v7ve+simd/hard/libgcc.a(unwind-arm.o)
                                          0x8 (size before relaxing)
 .ARM.exidx.text._Unwind_DeleteException
                0x0000000000046368        0x0 /home/olf/projects/circle/gcc-arm-9.2-2019.12-x86_64-arm-none-eabi/bin/../lib/gcc/arm-none-eabi/9.2.1/thumb/v7ve+simd/hard/libgcc.a(unwind-arm.o)
                                          0x8 (size before relaxing)
 .ARM.exidx.text._Unwind_VRS_Get
                0x0000000000046368        0x0 /home/olf/projects/circle/gcc-arm-9.2-2019.12-x86_64-arm-none-eabi/bin/../lib/gcc/arm-none-eabi/9.2.1/thumb/v7ve+simd/hard/libgcc.a(unwind-arm.o)
                                          0x8 (size before relaxing)
 .ARM.exidx.text._Unwind_GetGR
                0x0000000000046368        0x0 /home/olf/projects/circle/gcc-arm-9.2-2019.12-x86_64-arm-none-eabi/bin/../lib/gcc/arm-none-eabi/9.2.1/thumb/v7ve+simd/hard/libgcc.a(unwind-arm.o)
                                          0x8 (size before relaxing)
 .ARM.exidx.text._Unwind_VRS_Set
                0x0000000000046368        0x0 /home/olf/projects/circle/gcc-arm-9.2-2019.12-x86_64-arm-none-eabi/bin/../lib/gcc/arm-none-eabi/9.2.1/thumb/v7ve+simd/hard/libgcc.a(unwind-arm.o)
                                          0x8 (size before relaxing)
 .ARM.exidx.text._Unwind_SetGR
                0x0000000000046368        0x0 /home/olf/projects/circle/gcc-arm-9.2-2019.12-x86_64-arm-none-eabi/bin/../lib/gcc/arm-none-eabi/9.2.1/thumb/v7ve+simd/hard/libgcc.a(unwind-arm.o)
                                          0x8 (size before relaxing)
 .ARM.exidx.text.__gnu_Unwind_Backtrace
                0x0000000000046368        0x8 /home/olf/projects/circle/gcc-arm-9.2-2019.12-x86_64-arm-none-eabi/bin/../lib/gcc/arm-none-eabi/9.2.1/thumb/v7ve+simd/hard/libgcc.a(unwind-arm.o)
 .ARM.exidx.text.__gnu_unwind_pr_common
                0x0000000000046370        0x8 /home/olf/projects/circle/gcc-arm-9.2-2019.12-x86_64-arm-none-eabi/bin/../lib/gcc/arm-none-eabi/9.2.1/thumb/v7ve+simd/hard/libgcc.a(unwind-arm.o)
 .ARM.exidx.text.__aeabi_unwind_cpp_pr0
                0x0000000000046378        0x8 /home/olf/projects/circle/gcc-arm-9.2-2019.12-x86_64-arm-none-eabi/bin/../lib/gcc/arm-none-eabi/9.2.1/thumb/v7ve+simd/hard/libgcc.a(unwind-arm.o)
 .ARM.exidx.text.__aeabi_unwind_cpp_pr1
                0x0000000000046380        0x0 /home/olf/projects/circle/gcc-arm-9.2-2019.12-x86_64-arm-none-eabi/bin/../lib/gcc/arm-none-eabi/9.2.1/thumb/v7ve+simd/hard/libgcc.a(unwind-arm.o)
                                          0x8 (size before relaxing)
 .ARM.exidx.text.__aeabi_unwind_cpp_pr2
                0x0000000000046380        0x0 /home/olf/projects/circle/gcc-arm-9.2-2019.12-x86_64-arm-none-eabi/bin/../lib/gcc/arm-none-eabi/9.2.1/thumb/v7ve+simd/hard/libgcc.a(unwind-arm.o)
                                          0x8 (size before relaxing)
 .ARM.exidx.text._Unwind_VRS_Pop
                0x0000000000046380       0x10 /home/olf/projects/circle/gcc-arm-9.2-2019.12-x86_64-arm-none-eabi/bin/../lib/gcc/arm-none-eabi/9.2.1/thumb/v7ve+simd/hard/libgcc.a(unwind-arm.o)
                                          0x8 (size before relaxing)
 .ARM.exidx.text.next_unwind_byte
                0x0000000000046390        0x0 /home/olf/projects/circle/gcc-arm-9.2-2019.12-x86_64-arm-none-eabi/bin/../lib/gcc/arm-none-eabi/9.2.1/thumb/v7ve+simd/hard/libgcc.a(pr-support.o)
                                          0x8 (size before relaxing)
 .ARM.exidx.text._Unwind_GetGR.constprop.0
                0x0000000000046390        0x8 /home/olf/projects/circle/gcc-arm-9.2-2019.12-x86_64-arm-none-eabi/bin/../lib/gcc/arm-none-eabi/9.2.1/thumb/v7ve+simd/hard/libgcc.a(pr-support.o)
 .ARM.exidx.text.unwind_UCB_from_context
                0x0000000000046398        0x8 /home/olf/projects/circle/gcc-arm-9.2-2019.12-x86_64-arm-none-eabi/bin/../lib/gcc/arm-none-eabi/9.2.1/thumb/v7ve+simd/hard/libgcc.a(pr-support.o)
 .ARM.exidx.text.__gnu_unwind_execute
                0x00000000000463a0        0x8 /home/olf/projects/circle/gcc-arm-9.2-2019.12-x86_64-arm-none-eabi/bin/../lib/gcc/arm-none-eabi/9.2.1/thumb/v7ve+simd/hard/libgcc.a(pr-support.o)
 .ARM.exidx.text.__gnu_unwind_frame
                0x00000000000463a8        0x8 /home/olf/projects/circle/gcc-arm-9.2-2019.12-x86_64-arm-none-eabi/bin/../lib/gcc/arm-none-eabi/9.2.1/thumb/v7ve+simd/hard/libgcc.a(pr-support.o)
 .ARM.exidx.text._Unwind_GetRegionStart
                0x00000000000463b0        0x8 /home/olf/projects/circle/gcc-arm-9.2-2019.12-x86_64-arm-none-eabi/bin/../lib/gcc/arm-none-eabi/9.2.1/thumb/v7ve+simd/hard/libgcc.a(pr-support.o)
 .ARM.exidx.text._Unwind_GetLanguageSpecificData
                0x00000000000463b8        0x8 /home/olf/projects/circle/gcc-arm-9.2-2019.12-x86_64-arm-none-eabi/bin/../lib/gcc/arm-none-eabi/9.2.1/thumb/v7ve+simd/hard/libgcc.a(pr-support.o)
 .ARM.exidx.text.unlikely._Unwind_GetDataRelBase
                0x00000000000463c0        0x8 /home/olf/projects/circle/gcc-arm-9.2-2019.12-x86_64-arm-none-eabi/bin/../lib/gcc/arm-none-eabi/9.2.1/thumb/v7ve+simd/hard/libgcc.a(pr-support.o)
 .ARM.exidx.text.unlikely._Unwind_GetTextRelBase
                0x00000000000463c8        0x0 /home/olf/projects/circle/gcc-arm-9.2-2019.12-x86_64-arm-none-eabi/bin/../lib/gcc/arm-none-eabi/9.2.1/thumb/v7ve+simd/hard/libgcc.a(pr-support.o)
                                          0x8 (size before relaxing)
 .ARM.exidx.text._ZN18CUSBHostController24CancelDeviceTransactionsEP10CUSBDevice
                0x0000000000046410        0x8 ../../lib/usb/libusb.a(usbhostcontroller.o)
 .ARM.exidx     0x00000000000463c8       0x48 ../../lib/usb/libusb.a(usbhostcontroller.o)
                                         0x68 (size before relaxing)
 .ARM.exidx     0x0000000000046418       0x58 ../../lib/usb/libusb.a(usbrequest.o)
                                         0xa0 (size before relaxing)
 .ARM.exidx     0x0000000000046470       0x68 ../../lib/usb/libusb.a(usbstandardhub.o)
 .ARM.exidx.text.startup
                0x00000000000464d8        0x8 ../../lib/usb/libusb.a(usbstandardhub.o)
 .ARM.exidx     0x00000000000464e0       0x70 ../../lib/usb/libusb.a(usbdevice.o)
                                         0xc0 (size before relaxing)
 .ARM.exidx.text.startup
                0x0000000000046550        0x8 ../../lib/usb/libusb.a(usbdevice.o)
 .ARM.exidx     0x0000000000046558        0x8 ../../lib/usb/libusb.a(usbdevicefactory.o)
 .ARM.exidx     0x0000000000046560       0x30 ../../lib/usb/libusb.a(usbendpoint.o)
                                         0x68 (size before relaxing)
 .ARM.exidx     0x0000000000046590       0x48 ../../lib/usb/libusb.a(usbfunction.o)
                                         0xa0 (size before relaxing)
 .ARM.exidx.text._ZN17CUSBGamePadDevice10SetLEDModeEjhh
                0x0000000000046610        0x8 ../../lib/usb/libusb.a(usbgamepadps3.o)
 .ARM.exidx.text._ZN20CUSBGamePadPS3Device13GetPropertiesEv
                0x0000000000046618        0x0 ../../lib/usb/libusb.a(usbgamepadps3.o)
                                          0x8 (size before relaxing)
 .ARM.exidx     0x00000000000465d8       0x38 ../../lib/usb/libusb.a(usbgamepadps3.o)
                                         0x40 (size before relaxing)
 .ARM.exidx.text._ZN20CUSBGamePadPS4Device13GetPropertiesEv
                0x0000000000046648        0x8 ../../lib/usb/libusb.a(usbgamepadps4.o)
 .ARM.exidx     0x0000000000046618       0x30 ../../lib/usb/libusb.a(usbgamepadps4.o)
                                         0x60 (size before relaxing)
 .ARM.exidx.text._ZN17CUSBGamePadDevice13GetPropertiesEv
                0x0000000000046670        0x8 ../../lib/usb/libusb.a(usbgamepadstandard.o)
 .ARM.exidx.text._ZN17CUSBGamePadDevice10SetLEDModeE15TGamePadLEDMode
                0x0000000000046678        0x0 ../../lib/usb/libusb.a(usbgamepadstandard.o)
                                          0x8 (size before relaxing)
 .ARM.exidx.text._ZN17CUSBGamePadDevice13SetRumbleModeE18TGamePadRumbleMode
                0x0000000000046678        0x0 ../../lib/usb/libusb.a(usbgamepadstandard.o)
                                          0x8 (size before relaxing)
 .ARM.exidx     0x0000000000046650       0x20 ../../lib/usb/libusb.a(usbgamepadstandard.o)
                                         0x38 (size before relaxing)
 .ARM.exidx.text._ZN26CUSBGamePadSwitchProDevice13GetPropertiesEv
                0x00000000000466a0        0x8 ../../lib/usb/libusb.a(usbgamepadswitchpro.o)
 .ARM.exidx     0x0000000000046678       0x28 ../../lib/usb/libusb.a(usbgamepadswitchpro.o)
                                         0x38 (size before relaxing)
 .ARM.exidx.text._ZN24CUSBGamePadXbox360Device13GetPropertiesEv
                0x00000000000466d0        0x8 ../../lib/usb/libusb.a(usbgamepadxbox360.o)
 .ARM.exidx     0x00000000000466a8       0x28 ../../lib/usb/libusb.a(usbgamepadxbox360.o)
                                         0x40 (size before relaxing)
 .ARM.exidx.text._ZN24CUSBGamePadXboxOneDevice13GetPropertiesEv
                0x00000000000466f0        0x8 ../../lib/usb/libusb.a(usbgamepadxboxone.o)
 .ARM.exidx     0x00000000000466d8       0x18 ../../lib/usb/libusb.a(usbgamepadxboxone.o)
                                         0x38 (size before relaxing)
 .ARM.exidx     0x00000000000466f8       0x50 ../../lib/usb/libusb.a(usbhiddevice.o)
                                         0x58 (size before relaxing)
 .ARM.exidx     0x0000000000046748       0x50 ../../lib/usb/libusb.a(usbkeyboard.o)
                                         0x68 (size before relaxing)
 .ARM.exidx.text.startup
                0x0000000000046798        0x0 ../../lib/usb/libusb.a(usbkeyboard.o)
                                          0x8 (size before relaxing)
 .ARM.exidx     0x0000000000046798       0x58 ../../lib/usb/libusb.a(usbmassdevice.o)
                                         0x70 (size before relaxing)
 .ARM.exidx.text.startup
                0x00000000000467f0        0x0 ../../lib/usb/libusb.a(usbmassdevice.o)
                                          0x8 (size before relaxing)
 .ARM.exidx     0x00000000000467f0       0x40 ../../lib/usb/libusb.a(usbmidi.o)
                                         0x50 (size before relaxing)
 .ARM.exidx.text.startup
                0x0000000000046830        0x8 ../../lib/usb/libusb.a(usbmidi.o)
 .ARM.exidx     0x0000000000046838       0x18 ../../lib/usb/libusb.a(usbmouse.o)
                                         0x28 (size before relaxing)
 .ARM.exidx     0x0000000000046850       0x28 ../../lib/usb/libusb.a(usbprinter.o)
 .ARM.exidx.text.startup
                0x0000000000046878        0x8 ../../lib/usb/libusb.a(usbprinter.o)
 .ARM.exidx.text._ZN10CNetDevice7GetTypeEv
                0x0000000000046918        0x8 ../../lib/usb/libusb.a(lan7800.o)
 .ARM.exidx.text._ZN10CNetDevice20IsSendFrameAdvisableEv
                0x0000000000046920        0x0 ../../lib/usb/libusb.a(lan7800.o)
                                          0x8 (size before relaxing)
 .ARM.exidx.text._ZN10CNetDevice9UpdatePHYEv
                0x0000000000046920        0x0 ../../lib/usb/libusb.a(lan7800.o)
                                          0x8 (size before relaxing)
 .ARM.exidx     0x0000000000046880       0x98 ../../lib/usb/libusb.a(lan7800.o)
                                         0xc0 (size before relaxing)
 .ARM.exidx     0x0000000000046920       0x90 ../../lib/usb/libusb.a(smsc951x.o)
                                         0xb8 (size before relaxing)
 .ARM.exidx     0x00000000000469b0       0x48 ../../lib/usb/libusb.a(usbbluetooth.o)
 .ARM.exidx.text.startup
                0x00000000000469f8        0x8 ../../lib/usb/libusb.a(usbbluetooth.o)
 .ARM.exidx.text._ZN10CNetDevice8IsLinkUpEv
                0x0000000000046a40        0x8 ../../lib/usb/libusb.a(usbcdcethernet.o)
 .ARM.exidx.text._ZN10CNetDevice12GetLinkSpeedEv
                0x0000000000046a48        0x0 ../../lib/usb/libusb.a(usbcdcethernet.o)
                                          0x8 (size before relaxing)
 .ARM.exidx     0x0000000000046a00       0x40 ../../lib/usb/libusb.a(usbcdcethernet.o)
                                         0x68 (size before relaxing)
 .ARM.exidx     0x0000000000046a48       0x28 ../../lib/usb/libusb.a(usbconfigparser.o)
                                         0x38 (size before relaxing)
 .ARM.exidx     0x0000000000046a70       0x38 ../../lib/usb/libusb.a(usbgamepad.o)
 .ARM.exidx.text.startup
                0x0000000000046aa8        0x0 ../../lib/usb/libusb.a(usbgamepad.o)
                                          0x8 (size before relaxing)
 .ARM.exidx     0x0000000000046aa8       0x30 ../../lib/usb/libusb.a(usbstring.o)
 .ARM.exidx     0x0000000000046ad8       0x48 ../../lib/input/libinput.a(keyboardbehaviour.o)
                                         0x58 (size before relaxing)
 .ARM.exidx     0x0000000000046b20       0x18 ../../lib/input/libinput.a(keymap.o)
                                         0x40 (size before relaxing)
 .ARM.exidx     0x0000000000046b38       0x30 ../../lib/input/libinput.a(mouse.o)
                                         0x50 (size before relaxing)
 .ARM.exidx.text.startup
                0x0000000000046b68        0x8 ../../lib/input/libinput.a(mouse.o)
 .ARM.exidx     0x0000000000046b70       0x40 ../../lib/input/libinput.a(console.o)
                                         0x60 (size before relaxing)
 .ARM.exidx     0x0000000000046bb0       0x30 ../../lib/input/libinput.a(keyboardbuffer.o)
                                         0x48 (size before relaxing)
 .ARM.exidx     0x0000000000046be0       0x28 ../../lib/input/libinput.a(linediscipline.o)
                                         0x40 (size before relaxing)
 .ARM.exidx     0x0000000000046c08       0x40 ../../lib/input/libinput.a(mousebehaviour.o)
                                         0x48 (size before relaxing)
 .ARM.exidx     0x0000000000046c48       0x20 ../../addon/fatfs/libfatfs.a(diskio.o)
                                         0x28 (size before relaxing)
 .ARM.exidx     0x0000000000046c68       0x30 ../../addon/fatfs/libfatfs.a(ffsystem.o)
                                         0x38 (size before relaxing)
 .ARM.exidx     0x0000000000046c98       0x18 ../../lib/fs/libfs.a(partitionmanager.o)
 .ARM.exidx     0x0000000000046cb0       0x20 ../../lib/fs/libfs.a(partition.o)
                                         0x30 (size before relaxing)
 .ARM.exidx     0x0000000000046cd0       0x50 ../../lib/sched/libsched.a(scheduler.o)
                                         0x78 (size before relaxing)
 .ARM.exidx     0x0000000000046d20       0x38 ../../lib/sched/libsched.a(task.o)
                                         0x50 (size before relaxing)
 .ARM.exidx     0x0000000000046d58       0x20 ../../lib/sched/libsched.a(synchronizationevent.o)
                                         0x30 (size before relaxing)
 .ARM.exidx     0x0000000000046d78        0x8 ../../lib/libcircle.a(alloc.o)
                                         0x30 (size before relaxing)
 .ARM.exidx     0x0000000000046d80       0x20 ../../lib/libcircle.a(classallocator.o)
                                         0x30 (size before relaxing)
 .ARM.exidx     0x0000000000046da0       0x30 ../../lib/libcircle.a(macaddress.o)
                                         0x60 (size before relaxing)
 .ARM.exidx     0x0000000000046dd0       0x10 ../../lib/libcircle.a(netdevice.o)
                                         0x20 (size before relaxing)
 .ARM.exidx     0x0000000000046de0       0x20 ../../lib/libcircle.a(numberpool.o)
 .ARM.exidx.text._ZN10__cxxabiv121__vmi_class_type_infoD2Ev
                0x0000000000046e00        0x8 /home/olf/projects/circle/gcc-arm-9.2-2019.12-x86_64-arm-none-eabi/bin/../lib/gcc/arm-none-eabi/9.2.1/../../../../arm-none-eabi/lib/thumb/v7ve+simd/hard/libstdc++.a(vmi_class_type_info.o)
 .ARM.exidx.text._ZN10__cxxabiv121__vmi_class_type_infoD0Ev
                0x0000000000046e08        0x0 /home/olf/projects/circle/gcc-arm-9.2-2019.12-x86_64-arm-none-eabi/bin/../lib/gcc/arm-none-eabi/9.2.1/../../../../arm-none-eabi/lib/thumb/v7ve+simd/hard/libstdc++.a(vmi_class_type_info.o)
                                          0x8 (size before relaxing)
 .ARM.exidx.text._ZNK10__cxxabiv121__vmi_class_type_info20__do_find_public_srcEiPKvPKNS_17__class_type_infoES2_
                0x0000000000046e08        0x8 /home/olf/projects/circle/gcc-arm-9.2-2019.12-x86_64-arm-none-eabi/bin/../lib/gcc/arm-none-eabi/9.2.1/../../../../arm-none-eabi/lib/thumb/v7ve+simd/hard/libstdc++.a(vmi_class_type_info.o)
 .ARM.exidx.text._ZNK10__cxxabiv121__vmi_class_type_info12__do_dyncastEiNS_17__class_type_info10__sub_kindEPKS1_PKvS4_S6_RNS1_16__dyncast_resultE
                0x0000000000046e10        0x8 /home/olf/projects/circle/gcc-arm-9.2-2019.12-x86_64-arm-none-eabi/bin/../lib/gcc/arm-none-eabi/9.2.1/../../../../arm-none-eabi/lib/thumb/v7ve+simd/hard/libstdc++.a(vmi_class_type_info.o)
 .ARM.exidx.text._ZNK10__cxxabiv121__vmi_class_type_info11__do_upcastEPKNS_17__class_type_infoEPKvRNS1_15__upcast_resultE
                0x0000000000046e18       0x10 /home/olf/projects/circle/gcc-arm-9.2-2019.12-x86_64-arm-none-eabi/bin/../lib/gcc/arm-none-eabi/9.2.1/../../../../arm-none-eabi/lib/thumb/v7ve+simd/hard/libstdc++.a(vmi_class_type_info.o)
                                          0x8 (size before relaxing)
                0x0000000000046e28                __exidx_end = .

.rel.dyn        0x0000000000046e28        0x0
 .rel.iplt      0x0000000000046e28        0x0 main.o

.eh_frame
 *(.eh_frame*)

.data           0x0000000000046e28      0x9dc
 *(.data*)
 .data          0x0000000000046e28        0x0 main.o
 .data          0x0000000000046e28        0x0 kernel.o
 .data          0x0000000000046e28        0x0 ../../lib/libcircle.a(actled.o)
 .data          0x0000000000046e28        0x0 ../../lib/libcircle.a(devicenameservice.o)
 .data          0x0000000000046e28        0x0 ../../lib/libcircle.a(gpiopin.o)
 .data          0x0000000000046e28        0x0 ../../lib/libcircle.a(koptions.o)
 .data          0x0000000000046e28      0x254 ../../lib/libcircle.a(machineinfo.o)
 .data          0x000000000004707c        0x0 ../../lib/libcircle.a(screen.o)
 .data          0x000000000004707c        0x0 ../../lib/libcircle.a(string.o)
 .data          0x000000000004707c        0x0 ../../lib/libcircle.a(sysinit.o)
 .data          0x000000000004707c       0x30 ../../lib/libcircle.a(timer.o)
                0x000000000004707c                CTimer::s_pMonthName
 .data          0x00000000000470ac        0x0 ../../lib/libcircle.a(util.o)
 .data          0x00000000000470ac        0x0 ../../lib/libcircle.a(util_fast.o)
 .data          0x00000000000470ac        0x0 ../../lib/libcircle.a(virtualgpiopin.o)
 .data          0x00000000000470ac        0x0 ../../lib/libcircle.a(chainboot.o)
 .data          0x00000000000470ac        0x0 ../../lib/libcircle.a(cache-v7.o)
 .data          0x00000000000470ac        0x0 ../../lib/libcircle.a(memory.o)
 .data          0x00000000000470ac        0x0 ../../lib/libcircle.a(pagetable.o)
 .data          0x00000000000470ac        0x0 ../../lib/libcircle.a(startup.o)
 .data          0x00000000000470ac        0x0 ../../lib/libcircle.a(synchronize.o)
 .data          0x00000000000470ac        0x0 ../../lib/libcircle.a(interrupt.o)
 .data          0x00000000000470ac        0x0 ../../lib/libcircle.a(assert.o)
 .data          0x00000000000470ac       0x70 ../../lib/libcircle.a(bcmframebuffer.o)
                0x00000000000470ac                CBcmFrameBuffer::s_InitTags
 .data          0x000000000004711c        0x0 ../../lib/libcircle.a(bcmpropertytags.o)
 .data          0x000000000004711c        0x0 ../../lib/libcircle.a(chargenerator.o)
 .data          0x000000000004711c        0x0 ../../lib/libcircle.a(debug.o)
 .data          0x000000000004711c        0x0 ../../lib/libcircle.a(delayloop.o)
 .data          0x000000000004711c        0x0 ../../lib/libcircle.a(device.o)
 .data          0x000000000004711c        0x0 ../../lib/libcircle.a(dmachannel.o)
 .data          0x000000000004711c        0x0 ../../lib/libcircle.a(gpiomanager.o)
 .data          0x000000000004711c        0x0 ../../lib/libcircle.a(logger.o)
 .data          0x000000000004711c        0x0 ../../lib/libcircle.a(ptrlist.o)
 .data          0x000000000004711c        0x0 ../../lib/libcircle.a(new.o)
 .data          0x000000000004711c       0x1c ../../lib/libcircle.a(heapallocator.o)
                0x000000000004711c                CHeapAllocator::s_nBucketSize
 .data          0x0000000000047138        0x0 ../../lib/libcircle.a(pageallocator.o)
 .data          0x0000000000047138       0x10 ../../lib/libcircle.a(exceptionstub.o)
                0x0000000000047138                FIQData
                0x0000000000047144                IRQReturnAddress
 .data          0x0000000000047148        0x0 ../../lib/libcircle.a(bcmmailbox.o)
 .data          0x0000000000047148       0x14 ../../lib/libcircle.a(exceptionhandler.o)
                0x0000000000047148                CExceptionHandler::s_pExceptionName
 .data          0x000000000004715c        0x0 /home/olf/projects/circle/gcc-arm-9.2-2019.12-x86_64-arm-none-eabi/bin/../lib/gcc/arm-none-eabi/9.2.1/../../../../arm-none-eabi/lib/thumb/v7ve+simd/hard/libstdc++.a(class_type_info.o)
 .data          0x000000000004715c        0x0 /home/olf/projects/circle/gcc-arm-9.2-2019.12-x86_64-arm-none-eabi/bin/../lib/gcc/arm-none-eabi/9.2.1/../../../../arm-none-eabi/lib/thumb/v7ve+simd/hard/libstdc++.a(del_ops.o)
 .data          0x000000000004715c        0x0 /home/olf/projects/circle/gcc-arm-9.2-2019.12-x86_64-arm-none-eabi/bin/../lib/gcc/arm-none-eabi/9.2.1/../../../../arm-none-eabi/lib/thumb/v7ve+simd/hard/libstdc++.a(del_opv.o)
 .data          0x000000000004715c        0x0 /home/olf/projects/circle/gcc-arm-9.2-2019.12-x86_64-arm-none-eabi/bin/../lib/gcc/arm-none-eabi/9.2.1/../../../../arm-none-eabi/lib/thumb/v7ve+simd/hard/libstdc++.a(eh_arm.o)
 .data          0x000000000004715c        0x0 /home/olf/projects/circle/gcc-arm-9.2-2019.12-x86_64-arm-none-eabi/bin/../lib/gcc/arm-none-eabi/9.2.1/../../../../arm-none-eabi/lib/thumb/v7ve+simd/hard/libstdc++.a(eh_aux_runtime.o)
 .data          0x000000000004715c        0x0 /home/olf/projects/circle/gcc-arm-9.2-2019.12-x86_64-arm-none-eabi/bin/../lib/gcc/arm-none-eabi/9.2.1/../../../../arm-none-eabi/lib/thumb/v7ve+simd/hard/libstdc++.a(eh_exception.o)
 .data          0x000000000004715c        0x0 /home/olf/projects/circle/gcc-arm-9.2-2019.12-x86_64-arm-none-eabi/bin/../lib/gcc/arm-none-eabi/9.2.1/../../../../arm-none-eabi/lib/thumb/v7ve+simd/hard/libstdc++.a(eh_globals.o)
 .data          0x000000000004715c        0x0 /home/olf/projects/circle/gcc-arm-9.2-2019.12-x86_64-arm-none-eabi/bin/../lib/gcc/arm-none-eabi/9.2.1/../../../../arm-none-eabi/lib/thumb/v7ve+simd/hard/libstdc++.a(eh_personality.o)
 .data          0x000000000004715c        0x0 /home/olf/projects/circle/gcc-arm-9.2-2019.12-x86_64-arm-none-eabi/bin/../lib/gcc/arm-none-eabi/9.2.1/../../../../arm-none-eabi/lib/thumb/v7ve+simd/hard/libstdc++.a(eh_terminate.o)
 .data          0x000000000004715c        0x0 /home/olf/projects/circle/gcc-arm-9.2-2019.12-x86_64-arm-none-eabi/bin/../lib/gcc/arm-none-eabi/9.2.1/../../../../arm-none-eabi/lib/thumb/v7ve+simd/hard/libstdc++.a(eh_throw.o)
 .data          0x000000000004715c        0x0 /home/olf/projects/circle/gcc-arm-9.2-2019.12-x86_64-arm-none-eabi/bin/../lib/gcc/arm-none-eabi/9.2.1/../../../../arm-none-eabi/lib/thumb/v7ve+simd/hard/libstdc++.a(eh_unex_handler.o)
 .data._ZN10__cxxabiv120__unexpected_handlerE
                0x000000000004715c        0x4 /home/olf/projects/circle/gcc-arm-9.2-2019.12-x86_64-arm-none-eabi/bin/../lib/gcc/arm-none-eabi/9.2.1/../../../../arm-none-eabi/lib/thumb/v7ve+simd/hard/libstdc++.a(eh_unex_handler.o)
                0x000000000004715c                __cxxabiv1::__unexpected_handler
 .data          0x0000000000047160        0x0 /home/olf/projects/circle/gcc-arm-9.2-2019.12-x86_64-arm-none-eabi/bin/../lib/gcc/arm-none-eabi/9.2.1/../../../../arm-none-eabi/lib/thumb/v7ve+simd/hard/libstdc++.a(new_op.o)
 .data          0x0000000000047160        0x0 /home/olf/projects/circle/gcc-arm-9.2-2019.12-x86_64-arm-none-eabi/bin/../lib/gcc/arm-none-eabi/9.2.1/../../../../arm-none-eabi/lib/thumb/v7ve+simd/hard/libstdc++.a(new_opv.o)
 .data          0x0000000000047160        0x0 /home/olf/projects/circle/gcc-arm-9.2-2019.12-x86_64-arm-none-eabi/bin/../lib/gcc/arm-none-eabi/9.2.1/../../../../arm-none-eabi/lib/thumb/v7ve+simd/hard/libstdc++.a(pure.o)
 .data          0x0000000000047160        0x0 /home/olf/projects/circle/gcc-arm-9.2-2019.12-x86_64-arm-none-eabi/bin/../lib/gcc/arm-none-eabi/9.2.1/../../../../arm-none-eabi/lib/thumb/v7ve+simd/hard/libstdc++.a(si_class_type_info.o)
 .data          0x0000000000047160        0x0 /home/olf/projects/circle/gcc-arm-9.2-2019.12-x86_64-arm-none-eabi/bin/../lib/gcc/arm-none-eabi/9.2.1/../../../../arm-none-eabi/lib/thumb/v7ve+simd/hard/libstdc++.a(tinfo.o)
 .data          0x0000000000047160        0x0 /home/olf/projects/circle/gcc-arm-9.2-2019.12-x86_64-arm-none-eabi/bin/../lib/gcc/arm-none-eabi/9.2.1/../../../../arm-none-eabi/lib/thumb/v7ve+simd/hard/libstdc++.a(vterminate.o)
 .data          0x0000000000047160        0x0 /home/olf/projects/circle/gcc-arm-9.2-2019.12-x86_64-arm-none-eabi/bin/../lib/gcc/arm-none-eabi/9.2.1/../../../../arm-none-eabi/lib/thumb/v7ve+simd/hard/libstdc++.a(bad_alloc.o)
 .data          0x0000000000047160        0x0 /home/olf/projects/circle/gcc-arm-9.2-2019.12-x86_64-arm-none-eabi/bin/../lib/gcc/arm-none-eabi/9.2.1/../../../../arm-none-eabi/lib/thumb/v7ve+simd/hard/libstdc++.a(bad_array_new.o)
 .data          0x0000000000047160        0x0 /home/olf/projects/circle/gcc-arm-9.2-2019.12-x86_64-arm-none-eabi/bin/../lib/gcc/arm-none-eabi/9.2.1/../../../../arm-none-eabi/lib/thumb/v7ve+simd/hard/libstdc++.a(bad_cast.o)
 .data          0x0000000000047160        0x0 /home/olf/projects/circle/gcc-arm-9.2-2019.12-x86_64-arm-none-eabi/bin/../lib/gcc/arm-none-eabi/9.2.1/../../../../arm-none-eabi/lib/thumb/v7ve+simd/hard/libstdc++.a(bad_typeid.o)
 .data          0x0000000000047160        0x0 /home/olf/projects/circle/gcc-arm-9.2-2019.12-x86_64-arm-none-eabi/bin/../lib/gcc/arm-none-eabi/9.2.1/../../../../arm-none-eabi/lib/thumb/v7ve+simd/hard/libstdc++.a(cp-demangle.o)
 .data          0x0000000000047160        0x0 /home/olf/projects/circle/gcc-arm-9.2-2019.12-x86_64-arm-none-eabi/bin/../lib/gcc/arm-none-eabi/9.2.1/../../../../arm-none-eabi/lib/thumb/v7ve+simd/hard/libstdc++.a(del_op.o)
 .data          0x0000000000047160        0x0 /home/olf/projects/circle/gcc-arm-9.2-2019.12-x86_64-arm-none-eabi/bin/../lib/gcc/arm-none-eabi/9.2.1/../../../../arm-none-eabi/lib/thumb/v7ve+simd/hard/libstdc++.a(eh_alloc.o)
 .data          0x0000000000047160        0x0 /home/olf/projects/circle/gcc-arm-9.2-2019.12-x86_64-arm-none-eabi/bin/../lib/gcc/arm-none-eabi/9.2.1/../../../../arm-none-eabi/lib/thumb/v7ve+simd/hard/libstdc++.a(eh_call.o)
 .data          0x0000000000047160        0x0 /home/olf/projects/circle/gcc-arm-9.2-2019.12-x86_64-arm-none-eabi/bin/../lib/gcc/arm-none-eabi/9.2.1/../../../../arm-none-eabi/lib/thumb/v7ve+simd/hard/libstdc++.a(eh_catch.o)
 .data          0x0000000000047160        0x0 /home/olf/projects/circle/gcc-arm-9.2-2019.12-x86_64-arm-none-eabi/bin/../lib/gcc/arm-none-eabi/9.2.1/../../../../arm-none-eabi/lib/thumb/v7ve+simd/hard/libstdc++.a(eh_term_handler.o)
 .data._ZN10__cxxabiv119__terminate_handlerE
                0x0000000000047160        0x4 /home/olf/projects/circle/gcc-arm-9.2-2019.12-x86_64-arm-none-eabi/bin/../lib/gcc/arm-none-eabi/9.2.1/../../../../arm-none-eabi/lib/thumb/v7ve+simd/hard/libstdc++.a(eh_term_handler.o)
                0x0000000000047160                __cxxabiv1::__terminate_handler
 .data          0x0000000000047164        0x0 /home/olf/projects/circle/gcc-arm-9.2-2019.12-x86_64-arm-none-eabi/bin/../lib/gcc/arm-none-eabi/9.2.1/../../../../arm-none-eabi/lib/thumb/v7ve+simd/hard/libstdc++.a(eh_type.o)
 .data          0x0000000000047164        0x0 /home/olf/projects/circle/gcc-arm-9.2-2019.12-x86_64-arm-none-eabi/bin/../lib/gcc/arm-none-eabi/9.2.1/../../../../arm-none-eabi/lib/thumb/v7ve+simd/hard/libstdc++.a(new_handler.o)
 .data          0x0000000000047164        0x0 /home/olf/projects/circle/gcc-arm-9.2-2019.12-x86_64-arm-none-eabi/bin/../lib/gcc/arm-none-eabi/9.2.1/thumb/v7ve+simd/hard/libgcc.a(_aeabi_ldivmod.o)
 .data          0x0000000000047164        0x0 /home/olf/projects/circle/gcc-arm-9.2-2019.12-x86_64-arm-none-eabi/bin/../lib/gcc/arm-none-eabi/9.2.1/thumb/v7ve+simd/hard/libgcc.a(_aeabi_uldivmod.o)
 .data          0x0000000000047164        0x0 /home/olf/projects/circle/gcc-arm-9.2-2019.12-x86_64-arm-none-eabi/bin/../lib/gcc/arm-none-eabi/9.2.1/thumb/v7ve+simd/hard/libgcc.a(_udivmoddi4.o)
 .data          0x0000000000047164        0x0 /home/olf/projects/circle/gcc-arm-9.2-2019.12-x86_64-arm-none-eabi/bin/../lib/gcc/arm-none-eabi/9.2.1/thumb/v7ve+simd/hard/libgcc.a(unwind-arm.o)
 .data          0x0000000000047164        0x0 /home/olf/projects/circle/gcc-arm-9.2-2019.12-x86_64-arm-none-eabi/bin/../lib/gcc/arm-none-eabi/9.2.1/thumb/v7ve+simd/hard/libgcc.a(libunwind.o)
 .data          0x0000000000047164        0x0 /home/olf/projects/circle/gcc-arm-9.2-2019.12-x86_64-arm-none-eabi/bin/../lib/gcc/arm-none-eabi/9.2.1/thumb/v7ve+simd/hard/libgcc.a(pr-support.o)
 .data          0x0000000000047164        0x0 /home/olf/projects/circle/gcc-arm-9.2-2019.12-x86_64-arm-none-eabi/bin/../lib/gcc/arm-none-eabi/9.2.1/thumb/v7ve+simd/hard/libgcc.a(_dvmd_tls.o)
 .data          0x0000000000047164        0x0 ../../../../install/arm-none-circle/lib/libc.a(lib_a-abort.o)
 .data          0x0000000000047164        0x0 ../../../../install/arm-none-circle/lib/libc.a(lib_a-fputc.o)
 .data          0x0000000000047164        0x0 ../../../../install/arm-none-circle/lib/libc.a(lib_a-fputs.o)
 .data          0x0000000000047164        0x0 ../../../../install/arm-none-circle/lib/libc.a(lib_a-fvwrite.o)
 .data          0x0000000000047164        0x0 ../../../../install/arm-none-circle/lib/libc.a(lib_a-fwrite.o)
 *fill*         0x0000000000047164        0x4 
 .data          0x0000000000047168      0x42c ../../../../install/arm-none-circle/lib/libc.a(lib_a-impure.o)
                0x0000000000047590                _impure_ptr
 .data          0x0000000000047594        0x0 ../../../../install/arm-none-circle/lib/libc.a(lib_a-memchr.o)
 .data          0x0000000000047594        0x0 ../../../../install/arm-none-circle/lib/libc.a(lib_a-memcmp.o)
 .data          0x0000000000047594        0x0 ../../../../install/arm-none-circle/lib/libc.a(lib_a-memmove.o)
 .data          0x0000000000047594        0x0 ../../../../install/arm-none-circle/lib/libc.a(lib_a-putc.o)
 .data          0x0000000000047594        0x0 ../../../../install/arm-none-circle/lib/libc.a(lib_a-signal.o)
 .data          0x0000000000047594        0x0 ../../../../install/arm-none-circle/lib/libc.a(lib_a-signalr.o)
 .data          0x0000000000047594        0x0 ../../../../install/arm-none-circle/lib/libc.a(lib_a-sprintf.o)
 .data          0x0000000000047594        0x0 ../../../../install/arm-none-circle/lib/libc.a(lib_a-strcat.o)
 .data          0x0000000000047594        0x0 ../../../../install/arm-none-circle/lib/libc.a(lib_a-strchr.o)
 .data          0x0000000000047594        0x0 ../../../../install/arm-none-circle/lib/libc.a(lib_a-strcmp.o)
 .data          0x0000000000047594        0x0 ../../../../install/arm-none-circle/lib/libc.a(lib_a-strcpy.o)
 .data          0x0000000000047594        0x0 ../../../../install/arm-none-circle/lib/libc.a(lib_a-strlen.o)
 .data          0x0000000000047594        0x0 ../../../../install/arm-none-circle/lib/libc.a(lib_a-strncmp.o)
 .data          0x0000000000047594        0x0 ../../../../install/arm-none-circle/lib/libc.a(lib_a-strncpy.o)
 .data          0x0000000000047594        0x0 ../../../../install/arm-none-circle/lib/libc.a(lib_a-svfprintf.o)
 .data          0x0000000000047594        0x0 ../../../../install/arm-none-circle/lib/libc.a(lib_a-syswrite.o)
 .data          0x0000000000047594        0x0 ../../../../install/arm-none-circle/lib/libc.a(lib_a-wbuf.o)
 .data          0x0000000000047594        0x0 ../../../../install/arm-none-circle/lib/libc.a(lib_a-writer.o)
 .data          0x0000000000047594        0x0 ../../../../install/arm-none-circle/lib/libc.a(lib_a-wsetup.o)
 .data          0x0000000000047594        0x0 ../../../../install/arm-none-circle/lib/libc.a(lib_a-dtoa.o)
 .data          0x0000000000047594        0x0 ../../../../install/arm-none-circle/lib/libc.a(lib_a-fflush.o)
 .data          0x0000000000047594        0x0 ../../../../install/arm-none-circle/lib/libc.a(lib_a-findfp.o)
 .data          0x0000000000047594        0x0 ../../../../install/arm-none-circle/lib/libc.a(lib_a-fwalk.o)
 .data          0x0000000000047594        0x0 ../../../../install/arm-none-circle/lib/libc.a(lib_a-localeconv.o)
 .data          0x0000000000047594      0x16c ../../../../install/arm-none-circle/lib/libc.a(lib_a-locale.o)
                0x0000000000047594                __global_locale
 .data          0x0000000000047700        0x0 ../../../../install/arm-none-circle/lib/libc.a(lib_a-makebuf.o)
 .data          0x0000000000047700        0x0 ../../../../install/arm-none-circle/lib/libc.a(lib_a-mbtowc_r.o)
 .data          0x0000000000047700        0x0 ../../../../install/arm-none-circle/lib/libc.a(lib_a-mprec.o)
 .data          0x0000000000047700        0x0 ../../../../install/arm-none-circle/lib/libc.a(lib_a-reent.o)
 .data          0x0000000000047700        0x0 ../../../../install/arm-none-circle/lib/libc.a(lib_a-stdio.o)
 .data          0x0000000000047700        0x0 ../../../../install/arm-none-circle/lib/libc.a(lib_a-svfiprintf.o)
 .data          0x0000000000047700        0x0 ../../../../install/arm-none-circle/lib/libc.a(lib_a-wctomb_r.o)
 .data          0x0000000000047700        0x0 ../../../../install/arm-none-circle/lib/libc.a(lib_a-closer.o)
 .data          0x0000000000047700        0x0 ../../../../install/arm-none-circle/lib/libc.a(lib_a-ctype_.o)
 .data          0x0000000000047700        0x0 ../../../../install/arm-none-circle/lib/libc.a(lib_a-fclose.o)
 .data          0x0000000000047700        0x0 ../../../../install/arm-none-circle/lib/libc.a(lib_a-fstatr.o)
 .data          0x0000000000047700        0x0 ../../../../install/arm-none-circle/lib/libc.a(lib_a-isattyr.o)
 .data          0x0000000000047700        0x0 ../../../../install/arm-none-circle/lib/libc.a(lib_a-lseekr.o)
 .data          0x0000000000047700        0x0 ../../../../install/arm-none-circle/lib/libc.a(lib_a-readr.o)
 .data          0x0000000000047700        0x0 ../../../../install/arm-none-circle/lib/libcirclenewlib.a(fstat.o)
 .data          0x0000000000047700        0x0 ../../../../install/arm-none-circle/lib/libcirclenewlib.a(getpid.o)
 .data          0x0000000000047700        0x0 ../../../../install/arm-none-circle/lib/libcirclenewlib.a(io.o)
 .data          0x0000000000047700        0x0 ../../../../install/arm-none-circle/lib/libcirclenewlib.a(isatty.o)
 .data          0x0000000000047700        0x0 ../../../../install/arm-none-circle/lib/libcirclenewlib.a(kill.o)
 .data          0x0000000000047700        0x0 ../../../../install/arm-none-circle/lib/libcirclenewlib.a(_exit.o)
 .data          0x0000000000047700        0x0 ../../../../install/arm-none-circle/lib/libcirclenewlib.a(mem.o)
 .data          0x0000000000047700        0x0 ../../lib/usb/libusb.a(usbhostcontroller.o)
 .data          0x0000000000047700        0x0 ../../lib/usb/libusb.a(usbrequest.o)
 .data          0x0000000000047700        0x0 ../../lib/usb/libusb.a(usbstandardhub.o)
 .data          0x0000000000047700        0x0 ../../lib/usb/libusb.a(usbdevice.o)
 .data          0x0000000000047700        0x0 ../../lib/usb/libusb.a(usbdevicefactory.o)
 .data          0x0000000000047700        0x0 ../../lib/usb/libusb.a(usbendpoint.o)
 .data          0x0000000000047700        0x0 ../../lib/usb/libusb.a(usbfunction.o)
 .data          0x0000000000047700        0x0 ../../lib/usb/libusb.a(usbgamepadps3.o)
 .data          0x0000000000047700        0x1 ../../lib/usb/libusb.a(usbgamepadps4.o)
                0x0000000000047700                CUSBGamePadPS4Device::s_bTouchpadEnabled
 .data          0x0000000000047701        0x0 ../../lib/usb/libusb.a(usbgamepadstandard.o)
 .data          0x0000000000047701        0x0 ../../lib/usb/libusb.a(usbgamepadswitchpro.o)
 .data          0x0000000000047701        0x0 ../../lib/usb/libusb.a(usbgamepadxbox360.o)
 .data          0x0000000000047701        0x0 ../../lib/usb/libusb.a(usbgamepadxboxone.o)
 .data          0x0000000000047701        0x0 ../../lib/usb/libusb.a(usbhiddevice.o)
 .data          0x0000000000047701        0x0 ../../lib/usb/libusb.a(usbkeyboard.o)
 .data          0x0000000000047701        0x0 ../../lib/usb/libusb.a(usbmassdevice.o)
 .data          0x0000000000047701        0x0 ../../lib/usb/libusb.a(usbmidi.o)
 .data          0x0000000000047701        0x0 ../../lib/usb/libusb.a(usbmouse.o)
 .data          0x0000000000047701        0x0 ../../lib/usb/libusb.a(usbprinter.o)
 .data          0x0000000000047701        0x0 ../../lib/usb/libusb.a(lan7800.o)
 .data          0x0000000000047701        0x0 ../../lib/usb/libusb.a(smsc951x.o)
 .data          0x0000000000047701        0x0 ../../lib/usb/libusb.a(usbbluetooth.o)
 .data          0x0000000000047701        0x0 ../../lib/usb/libusb.a(usbcdcethernet.o)
 .data          0x0000000000047701        0x0 ../../lib/usb/libusb.a(usbconfigparser.o)
 .data          0x0000000000047701        0x0 ../../lib/usb/libusb.a(usbgamepad.o)
 .data          0x0000000000047701        0x0 ../../lib/usb/libusb.a(usbstring.o)
 .data          0x0000000000047701        0x0 ../../lib/input/libinput.a(keyboardbehaviour.o)
 *fill*         0x0000000000047701        0x3 
 .data          0x0000000000047704       0xe8 ../../lib/input/libinput.a(keymap.o)
                0x0000000000047704                CKeyMap::s_KeyStrings
                0x00000000000477d0                CKeyMap::s_MapDirectory
 .data          0x00000000000477ec        0x0 ../../lib/input/libinput.a(mouse.o)
 .data          0x00000000000477ec        0x0 ../../lib/input/libinput.a(console.o)
 .data          0x00000000000477ec        0x0 ../../lib/input/libinput.a(keyboardbuffer.o)
 .data          0x00000000000477ec        0x0 ../../lib/input/libinput.a(linediscipline.o)
 .data          0x00000000000477ec        0x0 ../../lib/input/libinput.a(mousebehaviour.o)
 .data          0x00000000000477ec        0x0 ../../addon/fatfs/libfatfs.a(ff.o)
 .data          0x00000000000477ec        0x0 ../../addon/fatfs/libfatfs.a(diskio.o)
 .data          0x00000000000477ec        0x0 ../../addon/fatfs/libfatfs.a(ffsystem.o)
 .data          0x00000000000477ec        0x0 ../../addon/fatfs/libfatfs.a(ffunicode.o)
 .data          0x00000000000477ec        0x0 ../../lib/fs/libfs.a(partitionmanager.o)
 .data          0x00000000000477ec        0x0 ../../lib/fs/libfs.a(partition.o)
 .data          0x00000000000477ec        0x0 ../../lib/sched/libsched.a(scheduler.o)
 .data          0x00000000000477ec        0x0 ../../lib/sched/libsched.a(taskswitch.o)
 .data          0x00000000000477ec        0x0 ../../lib/sched/libsched.a(task.o)
 .data          0x00000000000477ec        0x0 ../../lib/sched/libsched.a(synchronizationevent.o)
 .data          0x00000000000477ec        0x0 ../../lib/libcircle.a(alloc.o)
 .data          0x00000000000477ec        0x0 ../../lib/libcircle.a(classallocator.o)
 .data          0x00000000000477ec        0x0 ../../lib/libcircle.a(macaddress.o)
 .data          0x00000000000477ec       0x18 ../../lib/libcircle.a(netdevice.o)
                0x00000000000477ec                CNetDevice::s_SpeedString
 .data          0x0000000000047804        0x0 ../../lib/libcircle.a(numberpool.o)
 .data          0x0000000000047804        0x0 /home/olf/projects/circle/gcc-arm-9.2-2019.12-x86_64-arm-none-eabi/bin/../lib/gcc/arm-none-eabi/9.2.1/../../../../arm-none-eabi/lib/thumb/v7ve+simd/hard/libstdc++.a(vmi_class_type_info.o)

.igot.plt       0x0000000000047804        0x0
 .igot.plt      0x0000000000047804        0x0 main.o

.bss            0x0000000000047808     0x1a70
                0x0000000000047808                __bss_start = .
 *(.bss*)
 .bss           0x0000000000047808        0x0 main.o
 .bss           0x0000000000047808        0x0 kernel.o
 .bss           0x0000000000047808        0x4 ../../lib/libcircle.a(actled.o)
                0x0000000000047808                CActLED::s_pThis
 .bss           0x000000000004780c        0x4 ../../lib/libcircle.a(devicenameservice.o)
                0x000000000004780c                CDeviceNameService::s_This
 .bss           0x0000000000047810        0x4 ../../lib/libcircle.a(gpiopin.o)
                0x0000000000047810                CGPIOPin::s_SpinLock
 .bss           0x0000000000047814        0x4 ../../lib/libcircle.a(koptions.o)
                0x0000000000047814                CKernelOptions::s_pThis
 .bss           0x0000000000047818        0x4 ../../lib/libcircle.a(machineinfo.o)
                0x0000000000047818                CMachineInfo::s_pThis
 .bss           0x000000000004781c        0x0 ../../lib/libcircle.a(screen.o)
 .bss           0x000000000004781c        0x0 ../../lib/libcircle.a(string.o)
 .bss           0x000000000004781c        0x8 ../../lib/libcircle.a(sysinit.o)
                0x000000000004781c                __dso_handle
 .bss           0x0000000000047824        0x4 ../../lib/libcircle.a(timer.o)
                0x0000000000047824                CTimer::s_pThis
 .bss           0x0000000000047828        0x0 ../../lib/libcircle.a(util.o)
 .bss           0x0000000000047828        0x0 ../../lib/libcircle.a(util_fast.o)
 .bss           0x0000000000047828        0x8 ../../lib/libcircle.a(virtualgpiopin.o)
                0x0000000000047828                CVirtualGPIOPin::s_nGPIOBaseAddress
                0x000000000004782c                CVirtualGPIOPin::s_SpinLock
 .bss           0x0000000000047830        0x8 ../../lib/libcircle.a(chainboot.o)
 .bss           0x0000000000047838        0x0 ../../lib/libcircle.a(cache-v7.o)
 .bss           0x0000000000047838        0x4 ../../lib/libcircle.a(memory.o)
                0x0000000000047838                CMemorySystem::s_pThis
 .bss           0x000000000004783c        0x0 ../../lib/libcircle.a(pagetable.o)
 .bss           0x000000000004783c        0x0 ../../lib/libcircle.a(startup.o)
 .bss           0x000000000004783c       0x54 ../../lib/libcircle.a(synchronize.o)
 .bss           0x0000000000047890        0x4 ../../lib/libcircle.a(interrupt.o)
                0x0000000000047890                CInterruptSystem::s_pThis
 .bss           0x0000000000047894        0x0 ../../lib/libcircle.a(assert.o)
 .bss           0x0000000000047894        0x0 ../../lib/libcircle.a(bcmframebuffer.o)
 .bss           0x0000000000047894        0x0 ../../lib/libcircle.a(bcmpropertytags.o)
 .bss           0x0000000000047894        0x0 ../../lib/libcircle.a(chargenerator.o)
 .bss           0x0000000000047894        0x0 ../../lib/libcircle.a(debug.o)
 .bss           0x0000000000047894        0x0 ../../lib/libcircle.a(delayloop.o)
 .bss           0x0000000000047894        0x0 ../../lib/libcircle.a(device.o)
 .bss           0x0000000000047894        0x0 ../../lib/libcircle.a(dmachannel.o)
 .bss           0x0000000000047894        0x0 ../../lib/libcircle.a(gpiomanager.o)
 .bss           0x0000000000047894        0x4 ../../lib/libcircle.a(logger.o)
                0x0000000000047894                CLogger::s_pThis
 .bss           0x0000000000047898        0x0 ../../lib/libcircle.a(ptrlist.o)
 .bss           0x0000000000047898        0x0 ../../lib/libcircle.a(new.o)
 .bss           0x0000000000047898        0x0 ../../lib/libcircle.a(heapallocator.o)
 .bss           0x0000000000047898        0x0 ../../lib/libcircle.a(pageallocator.o)
 .bss           0x0000000000047898        0x0 ../../lib/libcircle.a(exceptionstub.o)
 .bss           0x0000000000047898        0x4 ../../lib/libcircle.a(bcmmailbox.o)
                0x0000000000047898                CBcmMailBox::s_SpinLock
 .bss           0x000000000004789c        0x4 ../../lib/libcircle.a(exceptionhandler.o)
                0x000000000004789c                CExceptionHandler::s_pThis
 .bss           0x00000000000478a0        0x0 /home/olf/projects/circle/gcc-arm-9.2-2019.12-x86_64-arm-none-eabi/bin/../lib/gcc/arm-none-eabi/9.2.1/../../../../arm-none-eabi/lib/thumb/v7ve+simd/hard/libstdc++.a(class_type_info.o)
 .bss           0x00000000000478a0        0x0 /home/olf/projects/circle/gcc-arm-9.2-2019.12-x86_64-arm-none-eabi/bin/../lib/gcc/arm-none-eabi/9.2.1/../../../../arm-none-eabi/lib/thumb/v7ve+simd/hard/libstdc++.a(del_ops.o)
 .bss           0x00000000000478a0        0x0 /home/olf/projects/circle/gcc-arm-9.2-2019.12-x86_64-arm-none-eabi/bin/../lib/gcc/arm-none-eabi/9.2.1/../../../../arm-none-eabi/lib/thumb/v7ve+simd/hard/libstdc++.a(del_opv.o)
 .bss           0x00000000000478a0        0x0 /home/olf/projects/circle/gcc-arm-9.2-2019.12-x86_64-arm-none-eabi/bin/../lib/gcc/arm-none-eabi/9.2.1/../../../../arm-none-eabi/lib/thumb/v7ve+simd/hard/libstdc++.a(eh_arm.o)
 .bss           0x00000000000478a0        0x0 /home/olf/projects/circle/gcc-arm-9.2-2019.12-x86_64-arm-none-eabi/bin/../lib/gcc/arm-none-eabi/9.2.1/../../../../arm-none-eabi/lib/thumb/v7ve+simd/hard/libstdc++.a(eh_aux_runtime.o)
 .bss           0x00000000000478a0        0x0 /home/olf/projects/circle/gcc-arm-9.2-2019.12-x86_64-arm-none-eabi/bin/../lib/gcc/arm-none-eabi/9.2.1/../../../../arm-none-eabi/lib/thumb/v7ve+simd/hard/libstdc++.a(eh_exception.o)
 .bss           0x00000000000478a0        0x0 /home/olf/projects/circle/gcc-arm-9.2-2019.12-x86_64-arm-none-eabi/bin/../lib/gcc/arm-none-eabi/9.2.1/../../../../arm-none-eabi/lib/thumb/v7ve+simd/hard/libstdc++.a(eh_globals.o)
 .bss._ZL10eh_globals
                0x00000000000478a0        0xc /home/olf/projects/circle/gcc-arm-9.2-2019.12-x86_64-arm-none-eabi/bin/../lib/gcc/arm-none-eabi/9.2.1/../../../../arm-none-eabi/lib/thumb/v7ve+simd/hard/libstdc++.a(eh_globals.o)
 .bss           0x00000000000478ac        0x0 /home/olf/projects/circle/gcc-arm-9.2-2019.12-x86_64-arm-none-eabi/bin/../lib/gcc/arm-none-eabi/9.2.1/../../../../arm-none-eabi/lib/thumb/v7ve+simd/hard/libstdc++.a(eh_personality.o)
 .bss           0x00000000000478ac        0x0 /home/olf/projects/circle/gcc-arm-9.2-2019.12-x86_64-arm-none-eabi/bin/../lib/gcc/arm-none-eabi/9.2.1/../../../../arm-none-eabi/lib/thumb/v7ve+simd/hard/libstdc++.a(eh_terminate.o)
 .bss           0x00000000000478ac        0x0 /home/olf/projects/circle/gcc-arm-9.2-2019.12-x86_64-arm-none-eabi/bin/../lib/gcc/arm-none-eabi/9.2.1/../../../../arm-none-eabi/lib/thumb/v7ve+simd/hard/libstdc++.a(eh_throw.o)
 .bss           0x00000000000478ac        0x0 /home/olf/projects/circle/gcc-arm-9.2-2019.12-x86_64-arm-none-eabi/bin/../lib/gcc/arm-none-eabi/9.2.1/../../../../arm-none-eabi/lib/thumb/v7ve+simd/hard/libstdc++.a(eh_unex_handler.o)
 .bss           0x00000000000478ac        0x0 /home/olf/projects/circle/gcc-arm-9.2-2019.12-x86_64-arm-none-eabi/bin/../lib/gcc/arm-none-eabi/9.2.1/../../../../arm-none-eabi/lib/thumb/v7ve+simd/hard/libstdc++.a(new_op.o)
 .bss           0x00000000000478ac        0x0 /home/olf/projects/circle/gcc-arm-9.2-2019.12-x86_64-arm-none-eabi/bin/../lib/gcc/arm-none-eabi/9.2.1/../../../../arm-none-eabi/lib/thumb/v7ve+simd/hard/libstdc++.a(new_opv.o)
 .bss           0x00000000000478ac        0x0 /home/olf/projects/circle/gcc-arm-9.2-2019.12-x86_64-arm-none-eabi/bin/../lib/gcc/arm-none-eabi/9.2.1/../../../../arm-none-eabi/lib/thumb/v7ve+simd/hard/libstdc++.a(pure.o)
 .bss           0x00000000000478ac        0x0 /home/olf/projects/circle/gcc-arm-9.2-2019.12-x86_64-arm-none-eabi/bin/../lib/gcc/arm-none-eabi/9.2.1/../../../../arm-none-eabi/lib/thumb/v7ve+simd/hard/libstdc++.a(si_class_type_info.o)
 .bss           0x00000000000478ac        0x0 /home/olf/projects/circle/gcc-arm-9.2-2019.12-x86_64-arm-none-eabi/bin/../lib/gcc/arm-none-eabi/9.2.1/../../../../arm-none-eabi/lib/thumb/v7ve+simd/hard/libstdc++.a(tinfo.o)
 .bss           0x00000000000478ac        0x0 /home/olf/projects/circle/gcc-arm-9.2-2019.12-x86_64-arm-none-eabi/bin/../lib/gcc/arm-none-eabi/9.2.1/../../../../arm-none-eabi/lib/thumb/v7ve+simd/hard/libstdc++.a(vterminate.o)
 .bss._ZZN9__gnu_cxx27__verbose_terminate_handlerEvE11terminating
                0x00000000000478ac        0x1 /home/olf/projects/circle/gcc-arm-9.2-2019.12-x86_64-arm-none-eabi/bin/../lib/gcc/arm-none-eabi/9.2.1/../../../../arm-none-eabi/lib/thumb/v7ve+simd/hard/libstdc++.a(vterminate.o)
 .bss           0x00000000000478ad        0x0 /home/olf/projects/circle/gcc-arm-9.2-2019.12-x86_64-arm-none-eabi/bin/../lib/gcc/arm-none-eabi/9.2.1/../../../../arm-none-eabi/lib/thumb/v7ve+simd/hard/libstdc++.a(bad_alloc.o)
 .bss           0x00000000000478ad        0x0 /home/olf/projects/circle/gcc-arm-9.2-2019.12-x86_64-arm-none-eabi/bin/../lib/gcc/arm-none-eabi/9.2.1/../../../../arm-none-eabi/lib/thumb/v7ve+simd/hard/libstdc++.a(bad_array_new.o)
 .bss           0x00000000000478ad        0x0 /home/olf/projects/circle/gcc-arm-9.2-2019.12-x86_64-arm-none-eabi/bin/../lib/gcc/arm-none-eabi/9.2.1/../../../../arm-none-eabi/lib/thumb/v7ve+simd/hard/libstdc++.a(bad_cast.o)
 .bss           0x00000000000478ad        0x0 /home/olf/projects/circle/gcc-arm-9.2-2019.12-x86_64-arm-none-eabi/bin/../lib/gcc/arm-none-eabi/9.2.1/../../../../arm-none-eabi/lib/thumb/v7ve+simd/hard/libstdc++.a(bad_typeid.o)
 .bss           0x00000000000478ad        0x0 /home/olf/projects/circle/gcc-arm-9.2-2019.12-x86_64-arm-none-eabi/bin/../lib/gcc/arm-none-eabi/9.2.1/../../../../arm-none-eabi/lib/thumb/v7ve+simd/hard/libstdc++.a(cp-demangle.o)
 .bss           0x00000000000478ad        0x0 /home/olf/projects/circle/gcc-arm-9.2-2019.12-x86_64-arm-none-eabi/bin/../lib/gcc/arm-none-eabi/9.2.1/../../../../arm-none-eabi/lib/thumb/v7ve+simd/hard/libstdc++.a(del_op.o)
 .bss           0x00000000000478ad        0x0 /home/olf/projects/circle/gcc-arm-9.2-2019.12-x86_64-arm-none-eabi/bin/../lib/gcc/arm-none-eabi/9.2.1/../../../../arm-none-eabi/lib/thumb/v7ve+simd/hard/libstdc++.a(eh_alloc.o)
 *fill*         0x00000000000478ad        0x3 
 .bss._ZN12_GLOBAL__N_114emergency_poolE
                0x00000000000478b0       0x10 /home/olf/projects/circle/gcc-arm-9.2-2019.12-x86_64-arm-none-eabi/bin/../lib/gcc/arm-none-eabi/9.2.1/../../../../arm-none-eabi/lib/thumb/v7ve+simd/hard/libstdc++.a(eh_alloc.o)
 .bss           0x00000000000478c0        0x0 /home/olf/projects/circle/gcc-arm-9.2-2019.12-x86_64-arm-none-eabi/bin/../lib/gcc/arm-none-eabi/9.2.1/../../../../arm-none-eabi/lib/thumb/v7ve+simd/hard/libstdc++.a(eh_call.o)
 .bss           0x00000000000478c0        0x0 /home/olf/projects/circle/gcc-arm-9.2-2019.12-x86_64-arm-none-eabi/bin/../lib/gcc/arm-none-eabi/9.2.1/../../../../arm-none-eabi/lib/thumb/v7ve+simd/hard/libstdc++.a(eh_catch.o)
 .bss           0x00000000000478c0        0x0 /home/olf/projects/circle/gcc-arm-9.2-2019.12-x86_64-arm-none-eabi/bin/../lib/gcc/arm-none-eabi/9.2.1/../../../../arm-none-eabi/lib/thumb/v7ve+simd/hard/libstdc++.a(eh_term_handler.o)
 .bss           0x00000000000478c0        0x0 /home/olf/projects/circle/gcc-arm-9.2-2019.12-x86_64-arm-none-eabi/bin/../lib/gcc/arm-none-eabi/9.2.1/../../../../arm-none-eabi/lib/thumb/v7ve+simd/hard/libstdc++.a(eh_type.o)
 .bss           0x00000000000478c0        0x0 /home/olf/projects/circle/gcc-arm-9.2-2019.12-x86_64-arm-none-eabi/bin/../lib/gcc/arm-none-eabi/9.2.1/../../../../arm-none-eabi/lib/thumb/v7ve+simd/hard/libstdc++.a(new_handler.o)
 .bss._ZN12_GLOBAL__N_113__new_handlerE
                0x00000000000478c0        0x4 /home/olf/projects/circle/gcc-arm-9.2-2019.12-x86_64-arm-none-eabi/bin/../lib/gcc/arm-none-eabi/9.2.1/../../../../arm-none-eabi/lib/thumb/v7ve+simd/hard/libstdc++.a(new_handler.o)
 .bss           0x00000000000478c4        0x0 /home/olf/projects/circle/gcc-arm-9.2-2019.12-x86_64-arm-none-eabi/bin/../lib/gcc/arm-none-eabi/9.2.1/thumb/v7ve+simd/hard/libgcc.a(_aeabi_ldivmod.o)
 .bss           0x00000000000478c4        0x0 /home/olf/projects/circle/gcc-arm-9.2-2019.12-x86_64-arm-none-eabi/bin/../lib/gcc/arm-none-eabi/9.2.1/thumb/v7ve+simd/hard/libgcc.a(_aeabi_uldivmod.o)
 .bss           0x00000000000478c4        0x0 /home/olf/projects/circle/gcc-arm-9.2-2019.12-x86_64-arm-none-eabi/bin/../lib/gcc/arm-none-eabi/9.2.1/thumb/v7ve+simd/hard/libgcc.a(_udivmoddi4.o)
 .bss           0x00000000000478c4        0x0 /home/olf/projects/circle/gcc-arm-9.2-2019.12-x86_64-arm-none-eabi/bin/../lib/gcc/arm-none-eabi/9.2.1/thumb/v7ve+simd/hard/libgcc.a(unwind-arm.o)
 .bss           0x00000000000478c4        0x0 /home/olf/projects/circle/gcc-arm-9.2-2019.12-x86_64-arm-none-eabi/bin/../lib/gcc/arm-none-eabi/9.2.1/thumb/v7ve+simd/hard/libgcc.a(libunwind.o)
 .bss           0x00000000000478c4        0x0 /home/olf/projects/circle/gcc-arm-9.2-2019.12-x86_64-arm-none-eabi/bin/../lib/gcc/arm-none-eabi/9.2.1/thumb/v7ve+simd/hard/libgcc.a(pr-support.o)
 .bss           0x00000000000478c4        0x0 /home/olf/projects/circle/gcc-arm-9.2-2019.12-x86_64-arm-none-eabi/bin/../lib/gcc/arm-none-eabi/9.2.1/thumb/v7ve+simd/hard/libgcc.a(_dvmd_tls.o)
 .bss           0x00000000000478c4        0x0 ../../../../install/arm-none-circle/lib/libc.a(lib_a-abort.o)
 .bss           0x00000000000478c4        0x0 ../../../../install/arm-none-circle/lib/libc.a(lib_a-fputc.o)
 .bss           0x00000000000478c4        0x0 ../../../../install/arm-none-circle/lib/libc.a(lib_a-fputs.o)
 .bss           0x00000000000478c4        0x0 ../../../../install/arm-none-circle/lib/libc.a(lib_a-fvwrite.o)
 .bss           0x00000000000478c4        0x0 ../../../../install/arm-none-circle/lib/libc.a(lib_a-fwrite.o)
 .bss           0x00000000000478c4        0x0 ../../../../install/arm-none-circle/lib/libc.a(lib_a-impure.o)
 .bss           0x00000000000478c4        0x0 ../../../../install/arm-none-circle/lib/libc.a(lib_a-memchr.o)
 .bss           0x00000000000478c4        0x0 ../../../../install/arm-none-circle/lib/libc.a(lib_a-memcmp.o)
 .bss           0x00000000000478c4        0x0 ../../../../install/arm-none-circle/lib/libc.a(lib_a-memmove.o)
 .bss           0x00000000000478c4        0x0 ../../../../install/arm-none-circle/lib/libc.a(lib_a-putc.o)
 .bss           0x00000000000478c4        0x0 ../../../../install/arm-none-circle/lib/libc.a(lib_a-signal.o)
 .bss           0x00000000000478c4        0x0 ../../../../install/arm-none-circle/lib/libc.a(lib_a-signalr.o)
 .bss           0x00000000000478c4        0x0 ../../../../install/arm-none-circle/lib/libc.a(lib_a-sprintf.o)
 .bss           0x00000000000478c4        0x0 ../../../../install/arm-none-circle/lib/libc.a(lib_a-strcat.o)
 .bss           0x00000000000478c4        0x0 ../../../../install/arm-none-circle/lib/libc.a(lib_a-strchr.o)
 .bss           0x00000000000478c4        0x0 ../../../../install/arm-none-circle/lib/libc.a(lib_a-strcmp.o)
 .bss           0x00000000000478c4        0x0 ../../../../install/arm-none-circle/lib/libc.a(lib_a-strcpy.o)
 .bss           0x00000000000478c4        0x0 ../../../../install/arm-none-circle/lib/libc.a(lib_a-strlen.o)
 .bss           0x00000000000478c4        0x0 ../../../../install/arm-none-circle/lib/libc.a(lib_a-strncmp.o)
 .bss           0x00000000000478c4        0x0 ../../../../install/arm-none-circle/lib/libc.a(lib_a-strncpy.o)
 .bss           0x00000000000478c4        0x0 ../../../../install/arm-none-circle/lib/libc.a(lib_a-svfprintf.o)
 .bss           0x00000000000478c4        0x0 ../../../../install/arm-none-circle/lib/libc.a(lib_a-syswrite.o)
 .bss           0x00000000000478c4        0x0 ../../../../install/arm-none-circle/lib/libc.a(lib_a-wbuf.o)
 .bss           0x00000000000478c4        0x0 ../../../../install/arm-none-circle/lib/libc.a(lib_a-writer.o)
 .bss           0x00000000000478c4        0x0 ../../../../install/arm-none-circle/lib/libc.a(lib_a-wsetup.o)
 .bss           0x00000000000478c4        0x0 ../../../../install/arm-none-circle/lib/libc.a(lib_a-dtoa.o)
 .bss           0x00000000000478c4        0x0 ../../../../install/arm-none-circle/lib/libc.a(lib_a-fflush.o)
 .bss           0x00000000000478c4        0x8 ../../../../install/arm-none-circle/lib/libc.a(lib_a-findfp.o)
 .bss           0x00000000000478cc        0x0 ../../../../install/arm-none-circle/lib/libc.a(lib_a-fwalk.o)
 .bss           0x00000000000478cc        0x0 ../../../../install/arm-none-circle/lib/libc.a(lib_a-localeconv.o)
 .bss           0x00000000000478cc        0x4 ../../../../install/arm-none-circle/lib/libc.a(lib_a-locale.o)
                0x00000000000478cc                _PathLocale
 .bss           0x00000000000478d0        0x0 ../../../../install/arm-none-circle/lib/libc.a(lib_a-makebuf.o)
 .bss           0x00000000000478d0        0x0 ../../../../install/arm-none-circle/lib/libc.a(lib_a-mbtowc_r.o)
 .bss           0x00000000000478d0        0x0 ../../../../install/arm-none-circle/lib/libc.a(lib_a-mprec.o)
 .bss           0x00000000000478d0        0x0 ../../../../install/arm-none-circle/lib/libc.a(lib_a-reent.o)
 .bss           0x00000000000478d0        0x0 ../../../../install/arm-none-circle/lib/libc.a(lib_a-stdio.o)
 .bss           0x00000000000478d0        0x0 ../../../../install/arm-none-circle/lib/libc.a(lib_a-svfiprintf.o)
 .bss           0x00000000000478d0        0x0 ../../../../install/arm-none-circle/lib/libc.a(lib_a-wctomb_r.o)
 .bss           0x00000000000478d0        0x0 ../../../../install/arm-none-circle/lib/libc.a(lib_a-closer.o)
 .bss           0x00000000000478d0        0x0 ../../../../install/arm-none-circle/lib/libc.a(lib_a-ctype_.o)
 .bss           0x00000000000478d0        0x0 ../../../../install/arm-none-circle/lib/libc.a(lib_a-fclose.o)
 .bss           0x00000000000478d0        0x0 ../../../../install/arm-none-circle/lib/libc.a(lib_a-fstatr.o)
 .bss           0x00000000000478d0        0x0 ../../../../install/arm-none-circle/lib/libc.a(lib_a-isattyr.o)
 .bss           0x00000000000478d0        0x0 ../../../../install/arm-none-circle/lib/libc.a(lib_a-lseekr.o)
 .bss           0x00000000000478d0        0x0 ../../../../install/arm-none-circle/lib/libc.a(lib_a-readr.o)
 .bss           0x00000000000478d0        0x0 ../../../../install/arm-none-circle/lib/libcirclenewlib.a(fstat.o)
 .bss           0x00000000000478d0        0x0 ../../../../install/arm-none-circle/lib/libcirclenewlib.a(getpid.o)
 .bss           0x00000000000478d0     0x18bc ../../../../install/arm-none-circle/lib/libcirclenewlib.a(io.o)
 .bss           0x000000000004918c        0x0 ../../../../install/arm-none-circle/lib/libcirclenewlib.a(isatty.o)
 .bss           0x000000000004918c        0x0 ../../../../install/arm-none-circle/lib/libcirclenewlib.a(kill.o)
 .bss           0x000000000004918c        0x0 ../../../../install/arm-none-circle/lib/libcirclenewlib.a(_exit.o)
 .bss           0x000000000004918c        0x0 ../../../../install/arm-none-circle/lib/libcirclenewlib.a(mem.o)
 .bss           0x000000000004918c        0x5 ../../lib/usb/libusb.a(usbhostcontroller.o)
                0x000000000004918c                CUSBHostController::s_pThis
                0x0000000000049190                CUSBHostController::s_bPlugAndPlay
 *fill*         0x0000000000049191        0x3 
 .bss           0x0000000000049194        0x4 ../../lib/usb/libusb.a(usbrequest.o)
                0x0000000000049194                CUSBRequest::s_pAllocator
 .bss           0x0000000000049198       0x10 ../../lib/usb/libusb.a(usbstandardhub.o)
                0x0000000000049198                CUSBStandardHub::s_DeviceNumberPool
 .bss           0x00000000000491a8       0x10 ../../lib/usb/libusb.a(usbdevice.o)
                0x00000000000491a8                CUSBDevice::s_DeviceAddressPool
 .bss           0x00000000000491b8        0x0 ../../lib/usb/libusb.a(usbdevicefactory.o)
 .bss           0x00000000000491b8        0x0 ../../lib/usb/libusb.a(usbendpoint.o)
 .bss           0x00000000000491b8        0x0 ../../lib/usb/libusb.a(usbfunction.o)
 .bss           0x00000000000491b8        0x0 ../../lib/usb/libusb.a(usbgamepadps3.o)
 .bss           0x00000000000491b8        0x0 ../../lib/usb/libusb.a(usbgamepadps4.o)
 .bss           0x00000000000491b8        0x0 ../../lib/usb/libusb.a(usbgamepadstandard.o)
 .bss           0x00000000000491b8        0x0 ../../lib/usb/libusb.a(usbgamepadswitchpro.o)
 .bss           0x00000000000491b8        0x0 ../../lib/usb/libusb.a(usbgamepadxbox360.o)
 .bss           0x00000000000491b8        0x0 ../../lib/usb/libusb.a(usbgamepadxboxone.o)
 .bss           0x00000000000491b8        0x0 ../../lib/usb/libusb.a(usbhiddevice.o)
 .bss           0x00000000000491b8       0x10 ../../lib/usb/libusb.a(usbkeyboard.o)
                0x00000000000491b8                CUSBKeyboardDevice::s_DeviceNumberPool
 .bss           0x00000000000491c8       0x10 ../../lib/usb/libusb.a(usbmassdevice.o)
                0x00000000000491c8                CUSBBulkOnlyMassStorageDevice::s_DeviceNumberPool
 .bss           0x00000000000491d8       0x10 ../../lib/usb/libusb.a(usbmidi.o)
                0x00000000000491d8                CUSBMIDIDevice::s_DeviceNumberPool
 .bss           0x00000000000491e8        0x0 ../../lib/usb/libusb.a(usbmouse.o)
 .bss           0x00000000000491e8       0x10 ../../lib/usb/libusb.a(usbprinter.o)
                0x00000000000491e8                CUSBPrinterDevice::s_DeviceNumberPool
 .bss           0x00000000000491f8        0x0 ../../lib/usb/libusb.a(lan7800.o)
 .bss           0x00000000000491f8        0x0 ../../lib/usb/libusb.a(smsc951x.o)
 .bss           0x00000000000491f8       0x10 ../../lib/usb/libusb.a(usbbluetooth.o)
                0x00000000000491f8                CUSBBluetoothDevice::s_DeviceNumberPool
 .bss           0x0000000000049208        0x0 ../../lib/usb/libusb.a(usbcdcethernet.o)
 .bss           0x0000000000049208        0x0 ../../lib/usb/libusb.a(usbconfigparser.o)
 .bss           0x0000000000049208       0x10 ../../lib/usb/libusb.a(usbgamepad.o)
                0x0000000000049208                CUSBGamePadDevice::s_DeviceNumberPool
 .bss           0x0000000000049218        0x0 ../../lib/usb/libusb.a(usbstring.o)
 .bss           0x0000000000049218        0x0 ../../lib/input/libinput.a(keyboardbehaviour.o)
 .bss           0x0000000000049218        0x0 ../../lib/input/libinput.a(keymap.o)
 .bss           0x0000000000049218       0x10 ../../lib/input/libinput.a(mouse.o)
                0x0000000000049218                CMouseDevice::s_DeviceNumberPool
 .bss           0x0000000000049228        0x0 ../../lib/input/libinput.a(console.o)
 .bss           0x0000000000049228        0x4 ../../lib/input/libinput.a(keyboardbuffer.o)
                0x0000000000049228                CKeyboardBuffer::s_pThis
 .bss           0x000000000004922c        0x0 ../../lib/input/libinput.a(linediscipline.o)
 .bss           0x000000000004922c        0x0 ../../lib/input/libinput.a(mousebehaviour.o)
 .bss           0x000000000004922c       0x12 ../../addon/fatfs/libfatfs.a(ff.o)
 *fill*         0x000000000004923e        0x2 
 .bss           0x0000000000049240       0x18 ../../addon/fatfs/libfatfs.a(diskio.o)
 .bss           0x0000000000049258        0x0 ../../addon/fatfs/libfatfs.a(ffsystem.o)
 .bss           0x0000000000049258        0x0 ../../addon/fatfs/libfatfs.a(ffunicode.o)
 .bss           0x0000000000049258        0x0 ../../lib/fs/libfs.a(partitionmanager.o)
 .bss           0x0000000000049258        0x0 ../../lib/fs/libfs.a(partition.o)
 .bss           0x0000000000049258        0x4 ../../lib/sched/libsched.a(scheduler.o)
                0x0000000000049258                CScheduler::s_pThis
 .bss           0x000000000004925c        0x0 ../../lib/sched/libsched.a(taskswitch.o)
 .bss           0x000000000004925c        0x0 ../../lib/sched/libsched.a(task.o)
 .bss           0x000000000004925c        0x0 ../../lib/sched/libsched.a(synchronizationevent.o)
 .bss           0x000000000004925c        0x0 ../../lib/libcircle.a(alloc.o)
 .bss           0x000000000004925c        0x0 ../../lib/libcircle.a(classallocator.o)
 .bss           0x000000000004925c        0x0 ../../lib/libcircle.a(macaddress.o)
 .bss           0x000000000004925c       0x18 ../../lib/libcircle.a(netdevice.o)
                0x000000000004925c                CNetDevice::s_nDeviceNumber
                0x0000000000049260                CNetDevice::s_pDevice
 .bss           0x0000000000049274        0x0 ../../lib/libcircle.a(numberpool.o)
 .bss           0x0000000000049274        0x0 /home/olf/projects/circle/gcc-arm-9.2-2019.12-x86_64-arm-none-eabi/bin/../lib/gcc/arm-none-eabi/9.2.1/../../../../arm-none-eabi/lib/thumb/v7ve+simd/hard/libstdc++.a(vmi_class_type_info.o)
 *(COMMON)
 COMMON         0x0000000000049274        0x4 ../../../../install/arm-none-circle/lib/libc.a(lib_a-reent.o)
                0x0000000000049274                errno
                0x0000000000049278                _end = .
LOAD main.o
LOAD kernel.o
START GROUP
LOAD ../../../../install/arm-none-circle/lib/libm.a
LOAD ../../../../install/arm-none-circle/lib/libc.a
LOAD ../../../../install/arm-none-circle/lib/libcirclenewlib.a
LOAD ../../addon/SDCard/libsdcard.a
LOAD ../../lib/usb/libusb.a
LOAD ../../lib/input/libinput.a
LOAD ../../addon/fatfs/libfatfs.a
LOAD ../../lib/fs/libfs.a
LOAD ../../lib/net/libnet.a
LOAD ../../lib/sched/libsched.a
LOAD ../../lib/libcircle.a
LOAD /home/olf/projects/circle/gcc-arm-9.2-2019.12-x86_64-arm-none-eabi/bin/../lib/gcc/arm-none-eabi/9.2.1/../../../../arm-none-eabi/lib/thumb/v7ve+simd/hard/libstdc++.a
LOAD /home/olf/projects/circle/gcc-arm-9.2-2019.12-x86_64-arm-none-eabi/bin/../lib/gcc/arm-none-eabi/9.2.1/thumb/v7ve+simd/hard/libgcc.a
END GROUP
OUTPUT(kernel7.elf elf32-littlearm)

.debug_info     0x0000000000000000    0x9cbd2
 .debug_info    0x0000000000000000     0x1048 main.o
 .debug_info    0x0000000000001048     0x13db kernel.o
 .debug_info    0x0000000000002423     0x12ad ../../lib/libcircle.a(actled.o)
 .debug_info    0x00000000000036d0      0xeeb ../../lib/libcircle.a(devicenameservice.o)
 .debug_info    0x00000000000045bb     0x2cd0 ../../lib/libcircle.a(gpiopin.o)
 .debug_info    0x000000000000728b     0x117b ../../lib/libcircle.a(koptions.o)
 .debug_info    0x0000000000008406     0x1079 ../../lib/libcircle.a(machineinfo.o)
 .debug_info    0x000000000000947f     0x3384 ../../lib/libcircle.a(screen.o)
 .debug_info    0x000000000000c803     0x242b ../../lib/libcircle.a(string.o)
 .debug_info    0x000000000000ec2e      0xe82 ../../lib/libcircle.a(sysinit.o)
 .debug_info    0x000000000000fab0     0x263e ../../lib/libcircle.a(timer.o)
 .debug_info    0x00000000000120ee      0x18b ../../lib/libcircle.a(util.o)
 .debug_info    0x0000000000012279     0x11bf ../../lib/libcircle.a(virtualgpiopin.o)
 .debug_info    0x0000000000013438      0x254 ../../lib/libcircle.a(chainboot.o)
 .debug_info    0x000000000001368c      0xf17 ../../lib/libcircle.a(memory.o)
 .debug_info    0x00000000000145a3      0x2be ../../lib/libcircle.a(pagetable.o)
 .debug_info    0x0000000000014861      0x231 ../../lib/libcircle.a(synchronize.o)
 .debug_info    0x0000000000014a92     0x104a ../../lib/libcircle.a(interrupt.o)
 .debug_info    0x0000000000015adc      0xf01 ../../lib/libcircle.a(assert.o)
 .debug_info    0x00000000000169dd      0xfe5 ../../lib/libcircle.a(bcmframebuffer.o)
 .debug_info    0x00000000000179c2      0xd02 ../../lib/libcircle.a(bcmpropertytags.o)
 .debug_info    0x00000000000186c4      0x3cf ../../lib/libcircle.a(chargenerator.o)
 .debug_info    0x0000000000018a93      0xf4f ../../lib/libcircle.a(debug.o)
 .debug_info    0x00000000000199e2      0x49f ../../lib/libcircle.a(device.o)
 .debug_info    0x0000000000019e81     0x2318 ../../lib/libcircle.a(dmachannel.o)
 .debug_info    0x000000000001c199      0xa9c ../../lib/libcircle.a(gpiomanager.o)
 .debug_info    0x000000000001cc35     0x201c ../../lib/libcircle.a(logger.o)
 .debug_info    0x000000000001ec51      0x7db ../../lib/libcircle.a(ptrlist.o)
 .debug_info    0x000000000001f42c      0x829 ../../lib/libcircle.a(new.o)
 .debug_info    0x000000000001fc55     0x1679 ../../lib/libcircle.a(heapallocator.o)
 .debug_info    0x00000000000212ce      0x66e ../../lib/libcircle.a(pageallocator.o)
 .debug_info    0x000000000002193c     0x11ab ../../lib/libcircle.a(bcmmailbox.o)
 .debug_info    0x0000000000022ae7     0x1423 ../../lib/libcircle.a(exceptionhandler.o)
 .debug_info    0x0000000000023f0a      0xa9a /home/olf/projects/circle/gcc-arm-9.2-2019.12-x86_64-arm-none-eabi/bin/../lib/gcc/arm-none-eabi/9.2.1/../../../../arm-none-eabi/lib/thumb/v7ve+simd/hard/libstdc++.a(class_type_info.o)
 .debug_info    0x00000000000249a4      0x3e4 /home/olf/projects/circle/gcc-arm-9.2-2019.12-x86_64-arm-none-eabi/bin/../lib/gcc/arm-none-eabi/9.2.1/../../../../arm-none-eabi/lib/thumb/v7ve+simd/hard/libstdc++.a(del_ops.o)
 .debug_info    0x0000000000024d88      0x3d1 /home/olf/projects/circle/gcc-arm-9.2-2019.12-x86_64-arm-none-eabi/bin/../lib/gcc/arm-none-eabi/9.2.1/../../../../arm-none-eabi/lib/thumb/v7ve+simd/hard/libstdc++.a(del_opv.o)
 .debug_info    0x0000000000025159      0xbc9 /home/olf/projects/circle/gcc-arm-9.2-2019.12-x86_64-arm-none-eabi/bin/../lib/gcc/arm-none-eabi/9.2.1/../../../../arm-none-eabi/lib/thumb/v7ve+simd/hard/libstdc++.a(eh_arm.o)
 .debug_info    0x0000000000025d22     0x153b /home/olf/projects/circle/gcc-arm-9.2-2019.12-x86_64-arm-none-eabi/bin/../lib/gcc/arm-none-eabi/9.2.1/../../../../arm-none-eabi/lib/thumb/v7ve+simd/hard/libstdc++.a(eh_aux_runtime.o)
 .debug_info    0x000000000002725d      0xa75 /home/olf/projects/circle/gcc-arm-9.2-2019.12-x86_64-arm-none-eabi/bin/../lib/gcc/arm-none-eabi/9.2.1/../../../../arm-none-eabi/lib/thumb/v7ve+simd/hard/libstdc++.a(eh_exception.o)
 .debug_info    0x0000000000027cd2     0x14b0 /home/olf/projects/circle/gcc-arm-9.2-2019.12-x86_64-arm-none-eabi/bin/../lib/gcc/arm-none-eabi/9.2.1/../../../../arm-none-eabi/lib/thumb/v7ve+simd/hard/libstdc++.a(eh_globals.o)
 .debug_info    0x0000000000029182     0x2bd9 /home/olf/projects/circle/gcc-arm-9.2-2019.12-x86_64-arm-none-eabi/bin/../lib/gcc/arm-none-eabi/9.2.1/../../../../arm-none-eabi/lib/thumb/v7ve+simd/hard/libstdc++.a(eh_personality.o)
 .debug_info    0x000000000002bd5b     0x1499 /home/olf/projects/circle/gcc-arm-9.2-2019.12-x86_64-arm-none-eabi/bin/../lib/gcc/arm-none-eabi/9.2.1/../../../../arm-none-eabi/lib/thumb/v7ve+simd/hard/libstdc++.a(eh_terminate.o)
 .debug_info    0x000000000002d1f4      0xbe1 /home/olf/projects/circle/gcc-arm-9.2-2019.12-x86_64-arm-none-eabi/bin/../lib/gcc/arm-none-eabi/9.2.1/../../../../arm-none-eabi/lib/thumb/v7ve+simd/hard/libstdc++.a(eh_throw.o)
 .debug_info    0x000000000002ddd5      0x427 /home/olf/projects/circle/gcc-arm-9.2-2019.12-x86_64-arm-none-eabi/bin/../lib/gcc/arm-none-eabi/9.2.1/../../../../arm-none-eabi/lib/thumb/v7ve+simd/hard/libstdc++.a(eh_unex_handler.o)
 .debug_info    0x000000000002e1fc     0x130d /home/olf/projects/circle/gcc-arm-9.2-2019.12-x86_64-arm-none-eabi/bin/../lib/gcc/arm-none-eabi/9.2.1/../../../../arm-none-eabi/lib/thumb/v7ve+simd/hard/libstdc++.a(new_op.o)
 .debug_info    0x000000000002f509      0x3e0 /home/olf/projects/circle/gcc-arm-9.2-2019.12-x86_64-arm-none-eabi/bin/../lib/gcc/arm-none-eabi/9.2.1/../../../../arm-none-eabi/lib/thumb/v7ve+simd/hard/libstdc++.a(new_opv.o)
 .debug_info    0x000000000002f8e9      0x519 /home/olf/projects/circle/gcc-arm-9.2-2019.12-x86_64-arm-none-eabi/bin/../lib/gcc/arm-none-eabi/9.2.1/../../../../arm-none-eabi/lib/thumb/v7ve+simd/hard/libstdc++.a(pure.o)
 .debug_info    0x000000000002fe02      0x978 /home/olf/projects/circle/gcc-arm-9.2-2019.12-x86_64-arm-none-eabi/bin/../lib/gcc/arm-none-eabi/9.2.1/../../../../arm-none-eabi/lib/thumb/v7ve+simd/hard/libstdc++.a(si_class_type_info.o)
 .debug_info    0x000000000003077a      0x609 /home/olf/projects/circle/gcc-arm-9.2-2019.12-x86_64-arm-none-eabi/bin/../lib/gcc/arm-none-eabi/9.2.1/../../../../arm-none-eabi/lib/thumb/v7ve+simd/hard/libstdc++.a(tinfo.o)
 .debug_info    0x0000000000030d83     0x17e2 /home/olf/projects/circle/gcc-arm-9.2-2019.12-x86_64-arm-none-eabi/bin/../lib/gcc/arm-none-eabi/9.2.1/../../../../arm-none-eabi/lib/thumb/v7ve+simd/hard/libstdc++.a(vterminate.o)
 .debug_info    0x0000000000032565      0x587 /home/olf/projects/circle/gcc-arm-9.2-2019.12-x86_64-arm-none-eabi/bin/../lib/gcc/arm-none-eabi/9.2.1/../../../../arm-none-eabi/lib/thumb/v7ve+simd/hard/libstdc++.a(bad_alloc.o)
 .debug_info    0x0000000000032aec      0x536 /home/olf/projects/circle/gcc-arm-9.2-2019.12-x86_64-arm-none-eabi/bin/../lib/gcc/arm-none-eabi/9.2.1/../../../../arm-none-eabi/lib/thumb/v7ve+simd/hard/libstdc++.a(bad_array_new.o)
 .debug_info    0x0000000000033022      0x21d /home/olf/projects/circle/gcc-arm-9.2-2019.12-x86_64-arm-none-eabi/bin/../lib/gcc/arm-none-eabi/9.2.1/../../../../arm-none-eabi/lib/thumb/v7ve+simd/hard/libstdc++.a(bad_cast.o)
 .debug_info    0x000000000003323f      0x21d /home/olf/projects/circle/gcc-arm-9.2-2019.12-x86_64-arm-none-eabi/bin/../lib/gcc/arm-none-eabi/9.2.1/../../../../arm-none-eabi/lib/thumb/v7ve+simd/hard/libstdc++.a(bad_typeid.o)
 .debug_info    0x000000000003345c     0xf044 /home/olf/projects/circle/gcc-arm-9.2-2019.12-x86_64-arm-none-eabi/bin/../lib/gcc/arm-none-eabi/9.2.1/../../../../arm-none-eabi/lib/thumb/v7ve+simd/hard/libstdc++.a(cp-demangle.o)
 .debug_info    0x00000000000424a0     0x116c /home/olf/projects/circle/gcc-arm-9.2-2019.12-x86_64-arm-none-eabi/bin/../lib/gcc/arm-none-eabi/9.2.1/../../../../arm-none-eabi/lib/thumb/v7ve+simd/hard/libstdc++.a(del_op.o)
 .debug_info    0x000000000004360c     0x216a /home/olf/projects/circle/gcc-arm-9.2-2019.12-x86_64-arm-none-eabi/bin/../lib/gcc/arm-none-eabi/9.2.1/../../../../arm-none-eabi/lib/thumb/v7ve+simd/hard/libstdc++.a(eh_alloc.o)
 .debug_info    0x0000000000045776     0x1cd9 /home/olf/projects/circle/gcc-arm-9.2-2019.12-x86_64-arm-none-eabi/bin/../lib/gcc/arm-none-eabi/9.2.1/../../../../arm-none-eabi/lib/thumb/v7ve+simd/hard/libstdc++.a(eh_call.o)
 .debug_info    0x000000000004744f     0x180f /home/olf/projects/circle/gcc-arm-9.2-2019.12-x86_64-arm-none-eabi/bin/../lib/gcc/arm-none-eabi/9.2.1/../../../../arm-none-eabi/lib/thumb/v7ve+simd/hard/libstdc++.a(eh_catch.o)
 .debug_info    0x0000000000048c5e      0x427 /home/olf/projects/circle/gcc-arm-9.2-2019.12-x86_64-arm-none-eabi/bin/../lib/gcc/arm-none-eabi/9.2.1/../../../../arm-none-eabi/lib/thumb/v7ve+simd/hard/libstdc++.a(eh_term_handler.o)
 .debug_info    0x0000000000049085      0x8c3 /home/olf/projects/circle/gcc-arm-9.2-2019.12-x86_64-arm-none-eabi/bin/../lib/gcc/arm-none-eabi/9.2.1/../../../../arm-none-eabi/lib/thumb/v7ve+simd/hard/libstdc++.a(eh_type.o)
 .debug_info    0x0000000000049948      0x455 /home/olf/projects/circle/gcc-arm-9.2-2019.12-x86_64-arm-none-eabi/bin/../lib/gcc/arm-none-eabi/9.2.1/../../../../arm-none-eabi/lib/thumb/v7ve+simd/hard/libstdc++.a(new_handler.o)
 .debug_info    0x0000000000049d9d       0x26 /home/olf/projects/circle/gcc-arm-9.2-2019.12-x86_64-arm-none-eabi/bin/../lib/gcc/arm-none-eabi/9.2.1/thumb/v7ve+simd/hard/libgcc.a(_aeabi_ldivmod.o)
 .debug_info    0x0000000000049dc3       0x26 /home/olf/projects/circle/gcc-arm-9.2-2019.12-x86_64-arm-none-eabi/bin/../lib/gcc/arm-none-eabi/9.2.1/thumb/v7ve+simd/hard/libgcc.a(_aeabi_uldivmod.o)
 .debug_info    0x0000000000049de9      0xd7c /home/olf/projects/circle/gcc-arm-9.2-2019.12-x86_64-arm-none-eabi/bin/../lib/gcc/arm-none-eabi/9.2.1/thumb/v7ve+simd/hard/libgcc.a(_udivmoddi4.o)
 .debug_info    0x000000000004ab65     0x1eb0 /home/olf/projects/circle/gcc-arm-9.2-2019.12-x86_64-arm-none-eabi/bin/../lib/gcc/arm-none-eabi/9.2.1/thumb/v7ve+simd/hard/libgcc.a(unwind-arm.o)
 .debug_info    0x000000000004ca15       0x26 /home/olf/projects/circle/gcc-arm-9.2-2019.12-x86_64-arm-none-eabi/bin/../lib/gcc/arm-none-eabi/9.2.1/thumb/v7ve+simd/hard/libgcc.a(libunwind.o)
 .debug_info    0x000000000004ca3b      0xa2b /home/olf/projects/circle/gcc-arm-9.2-2019.12-x86_64-arm-none-eabi/bin/../lib/gcc/arm-none-eabi/9.2.1/thumb/v7ve+simd/hard/libgcc.a(pr-support.o)
 .debug_info    0x000000000004d466       0x26 /home/olf/projects/circle/gcc-arm-9.2-2019.12-x86_64-arm-none-eabi/bin/../lib/gcc/arm-none-eabi/9.2.1/thumb/v7ve+simd/hard/libgcc.a(_dvmd_tls.o)
 .debug_info    0x000000000004d48c     0x237d ../../lib/usb/libusb.a(usbhostcontroller.o)
 .debug_info    0x000000000004f809     0x1249 ../../lib/usb/libusb.a(usbrequest.o)
 .debug_info    0x0000000000050a52     0x3927 ../../lib/usb/libusb.a(usbstandardhub.o)
 .debug_info    0x0000000000054379     0x3799 ../../lib/usb/libusb.a(usbdevice.o)
 .debug_info    0x0000000000057b12      0xa47 ../../lib/usb/libusb.a(usbdevicefactory.o)
 .debug_info    0x0000000000058559      0xa12 ../../lib/usb/libusb.a(usbendpoint.o)
 .debug_info    0x0000000000058f6b     0x23da ../../lib/usb/libusb.a(usbfunction.o)
 .debug_info    0x000000000005b345     0x1a47 ../../lib/usb/libusb.a(usbgamepadps3.o)
 .debug_info    0x000000000005cd8c     0x1e9b ../../lib/usb/libusb.a(usbgamepadps4.o)
 .debug_info    0x000000000005ec27     0x19ab ../../lib/usb/libusb.a(usbgamepadstandard.o)
 .debug_info    0x00000000000605d2     0x1c03 ../../lib/usb/libusb.a(usbgamepadswitchpro.o)
 .debug_info    0x00000000000621d5     0x19c1 ../../lib/usb/libusb.a(usbgamepadxbox360.o)
 .debug_info    0x0000000000063b96     0x1941 ../../lib/usb/libusb.a(usbgamepadxboxone.o)
 .debug_info    0x00000000000654d7     0x2718 ../../lib/usb/libusb.a(usbhiddevice.o)
 .debug_info    0x0000000000067bef     0x2176 ../../lib/usb/libusb.a(usbkeyboard.o)
 .debug_info    0x0000000000069d65     0x31d6 ../../lib/usb/libusb.a(usbmassdevice.o)
 .debug_info    0x000000000006cf3b     0x2ae0 ../../lib/usb/libusb.a(usbmidi.o)
 .debug_info    0x000000000006fa1b     0x13f1 ../../lib/usb/libusb.a(usbmouse.o)
 .debug_info    0x0000000000070e0c     0x1bb7 ../../lib/usb/libusb.a(usbprinter.o)
 .debug_info    0x00000000000729c3     0x3b2f ../../lib/usb/libusb.a(lan7800.o)
 .debug_info    0x00000000000764f2     0x3660 ../../lib/usb/libusb.a(smsc951x.o)
 .debug_info    0x0000000000079b52     0x262a ../../lib/usb/libusb.a(usbbluetooth.o)
 .debug_info    0x000000000007c17c     0x2ab7 ../../lib/usb/libusb.a(usbcdcethernet.o)
 .debug_info    0x000000000007ec33     0x1717 ../../lib/usb/libusb.a(usbconfigparser.o)
 .debug_info    0x000000000008034a     0x1b40 ../../lib/usb/libusb.a(usbgamepad.o)
 .debug_info    0x0000000000081e8a      0xa46 ../../lib/usb/libusb.a(usbstring.o)
 .debug_info    0x00000000000828d0     0x14f4 ../../lib/input/libinput.a(keyboardbehaviour.o)
 .debug_info    0x0000000000083dc4      0xdb8 ../../lib/input/libinput.a(keymap.o)
 .debug_info    0x0000000000084b7c      0xde2 ../../lib/input/libinput.a(mouse.o)
 .debug_info    0x000000000008595e     0x1c0f ../../lib/input/libinput.a(console.o)
 .debug_info    0x000000000008756d      0xa60 ../../lib/input/libinput.a(keyboardbuffer.o)
 .debug_info    0x0000000000087fcd      0x8d3 ../../lib/input/libinput.a(linediscipline.o)
 .debug_info    0x00000000000888a0      0xc97 ../../lib/input/libinput.a(mousebehaviour.o)
 .debug_info    0x0000000000089537     0x779a ../../addon/fatfs/libfatfs.a(ff.o)
 .debug_info    0x0000000000090cd1      0x808 ../../addon/fatfs/libfatfs.a(diskio.o)
 .debug_info    0x00000000000914d9      0xf26 ../../addon/fatfs/libfatfs.a(ffsystem.o)
 .debug_info    0x00000000000923ff      0x2a2 ../../addon/fatfs/libfatfs.a(ffunicode.o)
 .debug_info    0x00000000000926a1     0x1618 ../../lib/fs/libfs.a(partitionmanager.o)
 .debug_info    0x0000000000093cb9      0x6bd ../../lib/fs/libfs.a(partition.o)
 .debug_info    0x0000000000094376     0x1e89 ../../lib/sched/libsched.a(scheduler.o)
 .debug_info    0x00000000000961ff      0xd19 ../../lib/sched/libsched.a(task.o)
 .debug_info    0x0000000000096f18      0x61f ../../lib/sched/libsched.a(synchronizationevent.o)
 .debug_info    0x0000000000097537      0xaab ../../lib/libcircle.a(alloc.o)
 .debug_info    0x0000000000097fe2     0x15dd ../../lib/libcircle.a(classallocator.o)
 .debug_info    0x00000000000995bf      0x8dc ../../lib/libcircle.a(macaddress.o)
 .debug_info    0x0000000000099e9b      0x6c7 ../../lib/libcircle.a(netdevice.o)
 .debug_info    0x000000000009a562     0x1112 ../../lib/libcircle.a(numberpool.o)
 .debug_info    0x000000000009b674     0x155e /home/olf/projects/circle/gcc-arm-9.2-2019.12-x86_64-arm-none-eabi/bin/../lib/gcc/arm-none-eabi/9.2.1/../../../../arm-none-eabi/lib/thumb/v7ve+simd/hard/libstdc++.a(vmi_class_type_info.o)

.debug_abbrev   0x0000000000000000    0x1c0d2
 .debug_abbrev  0x0000000000000000      0x326 main.o
 .debug_abbrev  0x0000000000000326      0x3bc kernel.o
 .debug_abbrev  0x00000000000006e2      0x3f6 ../../lib/libcircle.a(actled.o)
 .debug_abbrev  0x0000000000000ad8      0x36b ../../lib/libcircle.a(devicenameservice.o)
 .debug_abbrev  0x0000000000000e43      0x611 ../../lib/libcircle.a(gpiopin.o)
 .debug_abbrev  0x0000000000001454      0x432 ../../lib/libcircle.a(koptions.o)
 .debug_abbrev  0x0000000000001886      0x407 ../../lib/libcircle.a(machineinfo.o)
 .debug_abbrev  0x0000000000001c8d      0x615 ../../lib/libcircle.a(screen.o)
 .debug_abbrev  0x00000000000022a2      0x491 ../../lib/libcircle.a(string.o)
 .debug_abbrev  0x0000000000002733      0x3a8 ../../lib/libcircle.a(sysinit.o)
 .debug_abbrev  0x0000000000002adb      0x5ea ../../lib/libcircle.a(timer.o)
 .debug_abbrev  0x00000000000030c5      0x12e ../../lib/libcircle.a(util.o)
 .debug_abbrev  0x00000000000031f3      0x480 ../../lib/libcircle.a(virtualgpiopin.o)
 .debug_abbrev  0x0000000000003673      0x16b ../../lib/libcircle.a(chainboot.o)
 .debug_abbrev  0x00000000000037de      0x3dd ../../lib/libcircle.a(memory.o)
 .debug_abbrev  0x0000000000003bbb      0x1b6 ../../lib/libcircle.a(pagetable.o)
 .debug_abbrev  0x0000000000003d71      0x116 ../../lib/libcircle.a(synchronize.o)
 .debug_abbrev  0x0000000000003e87      0x449 ../../lib/libcircle.a(interrupt.o)
 .debug_abbrev  0x00000000000042d0      0x2fc ../../lib/libcircle.a(assert.o)
 .debug_abbrev  0x00000000000045cc      0x37a ../../lib/libcircle.a(bcmframebuffer.o)
 .debug_abbrev  0x0000000000004946      0x2ee ../../lib/libcircle.a(bcmpropertytags.o)
 .debug_abbrev  0x0000000000004c34      0x1ac ../../lib/libcircle.a(chargenerator.o)
 .debug_abbrev  0x0000000000004de0      0x2f0 ../../lib/libcircle.a(debug.o)
 .debug_abbrev  0x00000000000050d0      0x262 ../../lib/libcircle.a(device.o)
 .debug_abbrev  0x0000000000005332      0x49f ../../lib/libcircle.a(dmachannel.o)
 .debug_abbrev  0x00000000000057d1      0x3a9 ../../lib/libcircle.a(gpiomanager.o)
 .debug_abbrev  0x0000000000005b7a      0x51a ../../lib/libcircle.a(logger.o)
 .debug_abbrev  0x0000000000006094      0x1c2 ../../lib/libcircle.a(ptrlist.o)
 .debug_abbrev  0x0000000000006256      0x233 ../../lib/libcircle.a(new.o)
 .debug_abbrev  0x0000000000006489      0x478 ../../lib/libcircle.a(heapallocator.o)
 .debug_abbrev  0x0000000000006901      0x27d ../../lib/libcircle.a(pageallocator.o)
 .debug_abbrev  0x0000000000006b7e      0x415 ../../lib/libcircle.a(bcmmailbox.o)
 .debug_abbrev  0x0000000000006f93      0x432 ../../lib/libcircle.a(exceptionhandler.o)
 .debug_abbrev  0x00000000000073c5      0x4b1 /home/olf/projects/circle/gcc-arm-9.2-2019.12-x86_64-arm-none-eabi/bin/../lib/gcc/arm-none-eabi/9.2.1/../../../../arm-none-eabi/lib/thumb/v7ve+simd/hard/libstdc++.a(class_type_info.o)
 .debug_abbrev  0x0000000000007876      0x28a /home/olf/projects/circle/gcc-arm-9.2-2019.12-x86_64-arm-none-eabi/bin/../lib/gcc/arm-none-eabi/9.2.1/../../../../arm-none-eabi/lib/thumb/v7ve+simd/hard/libstdc++.a(del_ops.o)
 .debug_abbrev  0x0000000000007b00      0x272 /home/olf/projects/circle/gcc-arm-9.2-2019.12-x86_64-arm-none-eabi/bin/../lib/gcc/arm-none-eabi/9.2.1/../../../../arm-none-eabi/lib/thumb/v7ve+simd/hard/libstdc++.a(del_opv.o)
 .debug_abbrev  0x0000000000007d72      0x463 /home/olf/projects/circle/gcc-arm-9.2-2019.12-x86_64-arm-none-eabi/bin/../lib/gcc/arm-none-eabi/9.2.1/../../../../arm-none-eabi/lib/thumb/v7ve+simd/hard/libstdc++.a(eh_arm.o)
 .debug_abbrev  0x00000000000081d5      0x4f1 /home/olf/projects/circle/gcc-arm-9.2-2019.12-x86_64-arm-none-eabi/bin/../lib/gcc/arm-none-eabi/9.2.1/../../../../arm-none-eabi/lib/thumb/v7ve+simd/hard/libstdc++.a(eh_aux_runtime.o)
 .debug_abbrev  0x00000000000086c6      0x451 /home/olf/projects/circle/gcc-arm-9.2-2019.12-x86_64-arm-none-eabi/bin/../lib/gcc/arm-none-eabi/9.2.1/../../../../arm-none-eabi/lib/thumb/v7ve+simd/hard/libstdc++.a(eh_exception.o)
 .debug_abbrev  0x0000000000008b17      0x493 /home/olf/projects/circle/gcc-arm-9.2-2019.12-x86_64-arm-none-eabi/bin/../lib/gcc/arm-none-eabi/9.2.1/../../../../arm-none-eabi/lib/thumb/v7ve+simd/hard/libstdc++.a(eh_globals.o)
 .debug_abbrev  0x0000000000008faa      0x807 /home/olf/projects/circle/gcc-arm-9.2-2019.12-x86_64-arm-none-eabi/bin/../lib/gcc/arm-none-eabi/9.2.1/../../../../arm-none-eabi/lib/thumb/v7ve+simd/hard/libstdc++.a(eh_personality.o)
 .debug_abbrev  0x00000000000097b1      0x563 /home/olf/projects/circle/gcc-arm-9.2-2019.12-x86_64-arm-none-eabi/bin/../lib/gcc/arm-none-eabi/9.2.1/../../../../arm-none-eabi/lib/thumb/v7ve+simd/hard/libstdc++.a(eh_terminate.o)
 .debug_abbrev  0x0000000000009d14      0x4f1 /home/olf/projects/circle/gcc-arm-9.2-2019.12-x86_64-arm-none-eabi/bin/../lib/gcc/arm-none-eabi/9.2.1/../../../../arm-none-eabi/lib/thumb/v7ve+simd/hard/libstdc++.a(eh_throw.o)
 .debug_abbrev  0x000000000000a205      0x28a /home/olf/projects/circle/gcc-arm-9.2-2019.12-x86_64-arm-none-eabi/bin/../lib/gcc/arm-none-eabi/9.2.1/../../../../arm-none-eabi/lib/thumb/v7ve+simd/hard/libstdc++.a(eh_unex_handler.o)
 .debug_abbrev  0x000000000000a48f      0x4ed /home/olf/projects/circle/gcc-arm-9.2-2019.12-x86_64-arm-none-eabi/bin/../lib/gcc/arm-none-eabi/9.2.1/../../../../arm-none-eabi/lib/thumb/v7ve+simd/hard/libstdc++.a(new_op.o)
 .debug_abbrev  0x000000000000a97c      0x283 /home/olf/projects/circle/gcc-arm-9.2-2019.12-x86_64-arm-none-eabi/bin/../lib/gcc/arm-none-eabi/9.2.1/../../../../arm-none-eabi/lib/thumb/v7ve+simd/hard/libstdc++.a(new_opv.o)
 .debug_abbrev  0x000000000000abff      0x2ef /home/olf/projects/circle/gcc-arm-9.2-2019.12-x86_64-arm-none-eabi/bin/../lib/gcc/arm-none-eabi/9.2.1/../../../../arm-none-eabi/lib/thumb/v7ve+simd/hard/libstdc++.a(pure.o)
 .debug_abbrev  0x000000000000aeee      0x453 /home/olf/projects/circle/gcc-arm-9.2-2019.12-x86_64-arm-none-eabi/bin/../lib/gcc/arm-none-eabi/9.2.1/../../../../arm-none-eabi/lib/thumb/v7ve+simd/hard/libstdc++.a(si_class_type_info.o)
 .debug_abbrev  0x000000000000b341      0x35a /home/olf/projects/circle/gcc-arm-9.2-2019.12-x86_64-arm-none-eabi/bin/../lib/gcc/arm-none-eabi/9.2.1/../../../../arm-none-eabi/lib/thumb/v7ve+simd/hard/libstdc++.a(tinfo.o)
 .debug_abbrev  0x000000000000b69b      0x510 /home/olf/projects/circle/gcc-arm-9.2-2019.12-x86_64-arm-none-eabi/bin/../lib/gcc/arm-none-eabi/9.2.1/../../../../arm-none-eabi/lib/thumb/v7ve+simd/hard/libstdc++.a(vterminate.o)
 .debug_abbrev  0x000000000000bbab      0x336 /home/olf/projects/circle/gcc-arm-9.2-2019.12-x86_64-arm-none-eabi/bin/../lib/gcc/arm-none-eabi/9.2.1/../../../../arm-none-eabi/lib/thumb/v7ve+simd/hard/libstdc++.a(bad_alloc.o)
 .debug_abbrev  0x000000000000bee1      0x318 /home/olf/projects/circle/gcc-arm-9.2-2019.12-x86_64-arm-none-eabi/bin/../lib/gcc/arm-none-eabi/9.2.1/../../../../arm-none-eabi/lib/thumb/v7ve+simd/hard/libstdc++.a(bad_array_new.o)
 .debug_abbrev  0x000000000000c1f9      0x1a4 /home/olf/projects/circle/gcc-arm-9.2-2019.12-x86_64-arm-none-eabi/bin/../lib/gcc/arm-none-eabi/9.2.1/../../../../arm-none-eabi/lib/thumb/v7ve+simd/hard/libstdc++.a(bad_cast.o)
 .debug_abbrev  0x000000000000c39d      0x1a4 /home/olf/projects/circle/gcc-arm-9.2-2019.12-x86_64-arm-none-eabi/bin/../lib/gcc/arm-none-eabi/9.2.1/../../../../arm-none-eabi/lib/thumb/v7ve+simd/hard/libstdc++.a(bad_typeid.o)
 .debug_abbrev  0x000000000000c541      0x5a4 /home/olf/projects/circle/gcc-arm-9.2-2019.12-x86_64-arm-none-eabi/bin/../lib/gcc/arm-none-eabi/9.2.1/../../../../arm-none-eabi/lib/thumb/v7ve+simd/hard/libstdc++.a(cp-demangle.o)
 .debug_abbrev  0x000000000000cae5      0x429 /home/olf/projects/circle/gcc-arm-9.2-2019.12-x86_64-arm-none-eabi/bin/../lib/gcc/arm-none-eabi/9.2.1/../../../../arm-none-eabi/lib/thumb/v7ve+simd/hard/libstdc++.a(del_op.o)
 .debug_abbrev  0x000000000000cf0e      0x7e3 /home/olf/projects/circle/gcc-arm-9.2-2019.12-x86_64-arm-none-eabi/bin/../lib/gcc/arm-none-eabi/9.2.1/../../../../arm-none-eabi/lib/thumb/v7ve+simd/hard/libstdc++.a(eh_alloc.o)
 .debug_abbrev  0x000000000000d6f1      0x745 /home/olf/projects/circle/gcc-arm-9.2-2019.12-x86_64-arm-none-eabi/bin/../lib/gcc/arm-none-eabi/9.2.1/../../../../arm-none-eabi/lib/thumb/v7ve+simd/hard/libstdc++.a(eh_call.o)
 .debug_abbrev  0x000000000000de36      0x5b9 /home/olf/projects/circle/gcc-arm-9.2-2019.12-x86_64-arm-none-eabi/bin/../lib/gcc/arm-none-eabi/9.2.1/../../../../arm-none-eabi/lib/thumb/v7ve+simd/hard/libstdc++.a(eh_catch.o)
 .debug_abbrev  0x000000000000e3ef      0x28a /home/olf/projects/circle/gcc-arm-9.2-2019.12-x86_64-arm-none-eabi/bin/../lib/gcc/arm-none-eabi/9.2.1/../../../../arm-none-eabi/lib/thumb/v7ve+simd/hard/libstdc++.a(eh_term_handler.o)
 .debug_abbrev  0x000000000000e679      0x3eb /home/olf/projects/circle/gcc-arm-9.2-2019.12-x86_64-arm-none-eabi/bin/../lib/gcc/arm-none-eabi/9.2.1/../../../../arm-none-eabi/lib/thumb/v7ve+simd/hard/libstdc++.a(eh_type.o)
 .debug_abbrev  0x000000000000ea64      0x2d9 /home/olf/projects/circle/gcc-arm-9.2-2019.12-x86_64-arm-none-eabi/bin/../lib/gcc/arm-none-eabi/9.2.1/../../../../arm-none-eabi/lib/thumb/v7ve+simd/hard/libstdc++.a(new_handler.o)
 .debug_abbrev  0x000000000000ed3d       0x14 /home/olf/projects/circle/gcc-arm-9.2-2019.12-x86_64-arm-none-eabi/bin/../lib/gcc/arm-none-eabi/9.2.1/thumb/v7ve+simd/hard/libgcc.a(_aeabi_ldivmod.o)
 .debug_abbrev  0x000000000000ed51       0x14 /home/olf/projects/circle/gcc-arm-9.2-2019.12-x86_64-arm-none-eabi/bin/../lib/gcc/arm-none-eabi/9.2.1/thumb/v7ve+simd/hard/libgcc.a(_aeabi_uldivmod.o)
 .debug_abbrev  0x000000000000ed65      0x1c2 /home/olf/projects/circle/gcc-arm-9.2-2019.12-x86_64-arm-none-eabi/bin/../lib/gcc/arm-none-eabi/9.2.1/thumb/v7ve+simd/hard/libgcc.a(_udivmoddi4.o)
 .debug_abbrev  0x000000000000ef27      0x468 /home/olf/projects/circle/gcc-arm-9.2-2019.12-x86_64-arm-none-eabi/bin/../lib/gcc/arm-none-eabi/9.2.1/thumb/v7ve+simd/hard/libgcc.a(unwind-arm.o)
 .debug_abbrev  0x000000000000f38f       0x14 /home/olf/projects/circle/gcc-arm-9.2-2019.12-x86_64-arm-none-eabi/bin/../lib/gcc/arm-none-eabi/9.2.1/thumb/v7ve+simd/hard/libgcc.a(libunwind.o)
 .debug_abbrev  0x000000000000f3a3      0x2c7 /home/olf/projects/circle/gcc-arm-9.2-2019.12-x86_64-arm-none-eabi/bin/../lib/gcc/arm-none-eabi/9.2.1/thumb/v7ve+simd/hard/libgcc.a(pr-support.o)
 .debug_abbrev  0x000000000000f66a       0x14 /home/olf/projects/circle/gcc-arm-9.2-2019.12-x86_64-arm-none-eabi/bin/../lib/gcc/arm-none-eabi/9.2.1/thumb/v7ve+simd/hard/libgcc.a(_dvmd_tls.o)
 .debug_abbrev  0x000000000000f67e      0x50e ../../lib/usb/libusb.a(usbhostcontroller.o)
 .debug_abbrev  0x000000000000fb8c      0x30e ../../lib/usb/libusb.a(usbrequest.o)
 .debug_abbrev  0x000000000000fe9a      0x662 ../../lib/usb/libusb.a(usbstandardhub.o)
 .debug_abbrev  0x00000000000104fc      0x778 ../../lib/usb/libusb.a(usbdevice.o)
 .debug_abbrev  0x0000000000010c74      0x18d ../../lib/usb/libusb.a(usbdevicefactory.o)
 .debug_abbrev  0x0000000000010e01      0x28b ../../lib/usb/libusb.a(usbendpoint.o)
 .debug_abbrev  0x000000000001108c      0x477 ../../lib/usb/libusb.a(usbfunction.o)
 .debug_abbrev  0x0000000000011503      0x528 ../../lib/usb/libusb.a(usbgamepadps3.o)
 .debug_abbrev  0x0000000000011a2b      0x631 ../../lib/usb/libusb.a(usbgamepadps4.o)
 .debug_abbrev  0x000000000001205c      0x4cb ../../lib/usb/libusb.a(usbgamepadstandard.o)
 .debug_abbrev  0x0000000000012527      0x579 ../../lib/usb/libusb.a(usbgamepadswitchpro.o)
 .debug_abbrev  0x0000000000012aa0      0x52f ../../lib/usb/libusb.a(usbgamepadxbox360.o)
 .debug_abbrev  0x0000000000012fcf      0x4fe ../../lib/usb/libusb.a(usbgamepadxboxone.o)
 .debug_abbrev  0x00000000000134cd      0x4a3 ../../lib/usb/libusb.a(usbhiddevice.o)
 .debug_abbrev  0x0000000000013970      0x59b ../../lib/usb/libusb.a(usbkeyboard.o)
 .debug_abbrev  0x0000000000013f0b      0x5a7 ../../lib/usb/libusb.a(usbmassdevice.o)
 .debug_abbrev  0x00000000000144b2      0x595 ../../lib/usb/libusb.a(usbmidi.o)
 .debug_abbrev  0x0000000000014a47      0x479 ../../lib/usb/libusb.a(usbmouse.o)
 .debug_abbrev  0x0000000000014ec0      0x4ac ../../lib/usb/libusb.a(usbprinter.o)
 .debug_abbrev  0x000000000001536c      0x5de ../../lib/usb/libusb.a(lan7800.o)
 .debug_abbrev  0x000000000001594a      0x61e ../../lib/usb/libusb.a(smsc951x.o)
 .debug_abbrev  0x0000000000015f68      0x4fc ../../lib/usb/libusb.a(usbbluetooth.o)
 .debug_abbrev  0x0000000000016464      0x4d6 ../../lib/usb/libusb.a(usbcdcethernet.o)
 .debug_abbrev  0x000000000001693a      0x401 ../../lib/usb/libusb.a(usbconfigparser.o)
 .debug_abbrev  0x0000000000016d3b      0x523 ../../lib/usb/libusb.a(usbgamepad.o)
 .debug_abbrev  0x000000000001725e      0x2b5 ../../lib/usb/libusb.a(usbstring.o)
 .debug_abbrev  0x0000000000017513      0x413 ../../lib/input/libinput.a(keyboardbehaviour.o)
 .debug_abbrev  0x0000000000017926      0x3aa ../../lib/input/libinput.a(keymap.o)
 .debug_abbrev  0x0000000000017cd0      0x357 ../../lib/input/libinput.a(mouse.o)
 .debug_abbrev  0x0000000000018027      0x45a ../../lib/input/libinput.a(console.o)
 .debug_abbrev  0x0000000000018481      0x3ad ../../lib/input/libinput.a(keyboardbuffer.o)
 .debug_abbrev  0x000000000001882e      0x336 ../../lib/input/libinput.a(linediscipline.o)
 .debug_abbrev  0x0000000000018b64      0x36b ../../lib/input/libinput.a(mousebehaviour.o)
 .debug_abbrev  0x0000000000018ecf      0x3d4 ../../addon/fatfs/libfatfs.a(ff.o)
 .debug_abbrev  0x00000000000192a3      0x234 ../../addon/fatfs/libfatfs.a(diskio.o)
 .debug_abbrev  0x00000000000194d7      0x380 ../../addon/fatfs/libfatfs.a(ffsystem.o)
 .debug_abbrev  0x0000000000019857       0xdf ../../addon/fatfs/libfatfs.a(ffunicode.o)
 .debug_abbrev  0x0000000000019936      0x437 ../../lib/fs/libfs.a(partitionmanager.o)
 .debug_abbrev  0x0000000000019d6d      0x299 ../../lib/fs/libfs.a(partition.o)
 .debug_abbrev  0x000000000001a006      0x4e3 ../../lib/sched/libsched.a(scheduler.o)
 .debug_abbrev  0x000000000001a4e9      0x400 ../../lib/sched/libsched.a(task.o)
 .debug_abbrev  0x000000000001a8e9      0x26f ../../lib/sched/libsched.a(synchronizationevent.o)
 .debug_abbrev  0x000000000001ab58      0x2d1 ../../lib/libcircle.a(alloc.o)
 .debug_abbrev  0x000000000001ae29      0x3f7 ../../lib/libcircle.a(classallocator.o)
 .debug_abbrev  0x000000000001b220      0x2a3 ../../lib/libcircle.a(macaddress.o)
 .debug_abbrev  0x000000000001b4c3      0x2bd ../../lib/libcircle.a(netdevice.o)
 .debug_abbrev  0x000000000001b780      0x36e ../../lib/libcircle.a(numberpool.o)
 .debug_abbrev  0x000000000001baee      0x5e4 /home/olf/projects/circle/gcc-arm-9.2-2019.12-x86_64-arm-none-eabi/bin/../lib/gcc/arm-none-eabi/9.2.1/../../../../arm-none-eabi/lib/thumb/v7ve+simd/hard/libstdc++.a(vmi_class_type_info.o)

.debug_loc      0x0000000000000000    0x43eda
 .debug_loc     0x0000000000000000       0x22 main.o
 .debug_loc     0x0000000000000022      0x1bf kernel.o
 .debug_loc     0x00000000000001e1      0x244 ../../lib/libcircle.a(actled.o)
 .debug_loc     0x0000000000000425      0x97a ../../lib/libcircle.a(devicenameservice.o)
 .debug_loc     0x0000000000000d9f     0x1b8b ../../lib/libcircle.a(gpiopin.o)
 .debug_loc     0x000000000000292a      0x543 ../../lib/libcircle.a(koptions.o)
 .debug_loc     0x0000000000002e6d      0x632 ../../lib/libcircle.a(machineinfo.o)
 .debug_loc     0x000000000000349f     0x1a11 ../../lib/libcircle.a(screen.o)
 .debug_loc     0x0000000000004eb0     0x30c1 ../../lib/libcircle.a(string.o)
 .debug_loc     0x0000000000007f71      0x11c ../../lib/libcircle.a(sysinit.o)
 .debug_loc     0x000000000000808d     0x14fc ../../lib/libcircle.a(timer.o)
 .debug_loc     0x0000000000009589      0x189 ../../lib/libcircle.a(util.o)
 .debug_loc     0x0000000000009712      0x3a5 ../../lib/libcircle.a(virtualgpiopin.o)
 .debug_loc     0x0000000000009ab7      0x194 ../../lib/libcircle.a(chainboot.o)
 .debug_loc     0x0000000000009c4b      0x2fc ../../lib/libcircle.a(memory.o)
 .debug_loc     0x0000000000009f47       0xf4 ../../lib/libcircle.a(pagetable.o)
 .debug_loc     0x000000000000a03b       0xf3 ../../lib/libcircle.a(synchronize.o)
 .debug_loc     0x000000000000a12e      0xb69 ../../lib/libcircle.a(interrupt.o)
 .debug_loc     0x000000000000ac97       0x8b ../../lib/libcircle.a(assert.o)
 .debug_loc     0x000000000000ad22      0x479 ../../lib/libcircle.a(bcmframebuffer.o)
 .debug_loc     0x000000000000b19b      0x3cf ../../lib/libcircle.a(bcmpropertytags.o)
 .debug_loc     0x000000000000b56a      0x1c6 ../../lib/libcircle.a(chargenerator.o)
 .debug_loc     0x000000000000b730      0x19b ../../lib/libcircle.a(debug.o)
 .debug_loc     0x000000000000b8cb       0xd5 ../../lib/libcircle.a(device.o)
 .debug_loc     0x000000000000b9a0     0x18ff ../../lib/libcircle.a(dmachannel.o)
 .debug_loc     0x000000000000d29f      0x538 ../../lib/libcircle.a(gpiomanager.o)
 .debug_loc     0x000000000000d7d7      0xa21 ../../lib/libcircle.a(logger.o)
 .debug_loc     0x000000000000e1f8      0x4cd ../../lib/libcircle.a(ptrlist.o)
 .debug_loc     0x000000000000e6c5       0xd8 ../../lib/libcircle.a(new.o)
 .debug_loc     0x000000000000e79d      0x6ad ../../lib/libcircle.a(heapallocator.o)
 .debug_loc     0x000000000000ee4a      0x2e3 ../../lib/libcircle.a(pageallocator.o)
 .debug_loc     0x000000000000f12d      0x446 ../../lib/libcircle.a(bcmmailbox.o)
 .debug_loc     0x000000000000f573      0x2c5 ../../lib/libcircle.a(exceptionhandler.o)
 .debug_loc     0x000000000000f838      0x4eb /home/olf/projects/circle/gcc-arm-9.2-2019.12-x86_64-arm-none-eabi/bin/../lib/gcc/arm-none-eabi/9.2.1/../../../../arm-none-eabi/lib/thumb/v7ve+simd/hard/libstdc++.a(class_type_info.o)
 .debug_loc     0x000000000000fd23       0x25 /home/olf/projects/circle/gcc-arm-9.2-2019.12-x86_64-arm-none-eabi/bin/../lib/gcc/arm-none-eabi/9.2.1/../../../../arm-none-eabi/lib/thumb/v7ve+simd/hard/libstdc++.a(del_ops.o)
 .debug_loc     0x000000000000fd48       0x25 /home/olf/projects/circle/gcc-arm-9.2-2019.12-x86_64-arm-none-eabi/bin/../lib/gcc/arm-none-eabi/9.2.1/../../../../arm-none-eabi/lib/thumb/v7ve+simd/hard/libstdc++.a(del_opv.o)
 .debug_loc     0x000000000000fd6d      0x3e2 /home/olf/projects/circle/gcc-arm-9.2-2019.12-x86_64-arm-none-eabi/bin/../lib/gcc/arm-none-eabi/9.2.1/../../../../arm-none-eabi/lib/thumb/v7ve+simd/hard/libstdc++.a(eh_arm.o)
 .debug_loc     0x000000000001014f       0x93 /home/olf/projects/circle/gcc-arm-9.2-2019.12-x86_64-arm-none-eabi/bin/../lib/gcc/arm-none-eabi/9.2.1/../../../../arm-none-eabi/lib/thumb/v7ve+simd/hard/libstdc++.a(eh_aux_runtime.o)
 .debug_loc     0x00000000000101e2      0x150 /home/olf/projects/circle/gcc-arm-9.2-2019.12-x86_64-arm-none-eabi/bin/../lib/gcc/arm-none-eabi/9.2.1/../../../../arm-none-eabi/lib/thumb/v7ve+simd/hard/libstdc++.a(eh_exception.o)
 .debug_loc     0x0000000000010332     0x18db /home/olf/projects/circle/gcc-arm-9.2-2019.12-x86_64-arm-none-eabi/bin/../lib/gcc/arm-none-eabi/9.2.1/../../../../arm-none-eabi/lib/thumb/v7ve+simd/hard/libstdc++.a(eh_personality.o)
 .debug_loc     0x0000000000011c0d       0xfc /home/olf/projects/circle/gcc-arm-9.2-2019.12-x86_64-arm-none-eabi/bin/../lib/gcc/arm-none-eabi/9.2.1/../../../../arm-none-eabi/lib/thumb/v7ve+simd/hard/libstdc++.a(eh_terminate.o)
 .debug_loc     0x0000000000011d09      0x390 /home/olf/projects/circle/gcc-arm-9.2-2019.12-x86_64-arm-none-eabi/bin/../lib/gcc/arm-none-eabi/9.2.1/../../../../arm-none-eabi/lib/thumb/v7ve+simd/hard/libstdc++.a(eh_throw.o)
 .debug_loc     0x0000000000012099       0x93 /home/olf/projects/circle/gcc-arm-9.2-2019.12-x86_64-arm-none-eabi/bin/../lib/gcc/arm-none-eabi/9.2.1/../../../../arm-none-eabi/lib/thumb/v7ve+simd/hard/libstdc++.a(new_op.o)
 .debug_loc     0x000000000001212c       0x25 /home/olf/projects/circle/gcc-arm-9.2-2019.12-x86_64-arm-none-eabi/bin/../lib/gcc/arm-none-eabi/9.2.1/../../../../arm-none-eabi/lib/thumb/v7ve+simd/hard/libstdc++.a(new_opv.o)
 .debug_loc     0x0000000000012151      0x6bf /home/olf/projects/circle/gcc-arm-9.2-2019.12-x86_64-arm-none-eabi/bin/../lib/gcc/arm-none-eabi/9.2.1/../../../../arm-none-eabi/lib/thumb/v7ve+simd/hard/libstdc++.a(si_class_type_info.o)
 .debug_loc     0x0000000000012810      0x157 /home/olf/projects/circle/gcc-arm-9.2-2019.12-x86_64-arm-none-eabi/bin/../lib/gcc/arm-none-eabi/9.2.1/../../../../arm-none-eabi/lib/thumb/v7ve+simd/hard/libstdc++.a(tinfo.o)
 .debug_loc     0x0000000000012967       0xe7 /home/olf/projects/circle/gcc-arm-9.2-2019.12-x86_64-arm-none-eabi/bin/../lib/gcc/arm-none-eabi/9.2.1/../../../../arm-none-eabi/lib/thumb/v7ve+simd/hard/libstdc++.a(vterminate.o)
 .debug_loc     0x0000000000012a4e       0xa5 /home/olf/projects/circle/gcc-arm-9.2-2019.12-x86_64-arm-none-eabi/bin/../lib/gcc/arm-none-eabi/9.2.1/../../../../arm-none-eabi/lib/thumb/v7ve+simd/hard/libstdc++.a(bad_alloc.o)
 .debug_loc     0x0000000000012af3       0xa5 /home/olf/projects/circle/gcc-arm-9.2-2019.12-x86_64-arm-none-eabi/bin/../lib/gcc/arm-none-eabi/9.2.1/../../../../arm-none-eabi/lib/thumb/v7ve+simd/hard/libstdc++.a(bad_array_new.o)
 .debug_loc     0x0000000000012b98       0xa5 /home/olf/projects/circle/gcc-arm-9.2-2019.12-x86_64-arm-none-eabi/bin/../lib/gcc/arm-none-eabi/9.2.1/../../../../arm-none-eabi/lib/thumb/v7ve+simd/hard/libstdc++.a(bad_cast.o)
 .debug_loc     0x0000000000012c3d       0xa5 /home/olf/projects/circle/gcc-arm-9.2-2019.12-x86_64-arm-none-eabi/bin/../lib/gcc/arm-none-eabi/9.2.1/../../../../arm-none-eabi/lib/thumb/v7ve+simd/hard/libstdc++.a(bad_typeid.o)
 .debug_loc     0x0000000000012ce2     0xe89b /home/olf/projects/circle/gcc-arm-9.2-2019.12-x86_64-arm-none-eabi/bin/../lib/gcc/arm-none-eabi/9.2.1/../../../../arm-none-eabi/lib/thumb/v7ve+simd/hard/libstdc++.a(cp-demangle.o)
 .debug_loc     0x000000000002157d       0x25 /home/olf/projects/circle/gcc-arm-9.2-2019.12-x86_64-arm-none-eabi/bin/../lib/gcc/arm-none-eabi/9.2.1/../../../../arm-none-eabi/lib/thumb/v7ve+simd/hard/libstdc++.a(del_op.o)
 .debug_loc     0x00000000000215a2      0x5e9 /home/olf/projects/circle/gcc-arm-9.2-2019.12-x86_64-arm-none-eabi/bin/../lib/gcc/arm-none-eabi/9.2.1/../../../../arm-none-eabi/lib/thumb/v7ve+simd/hard/libstdc++.a(eh_alloc.o)
 .debug_loc     0x0000000000021b8b      0x449 /home/olf/projects/circle/gcc-arm-9.2-2019.12-x86_64-arm-none-eabi/bin/../lib/gcc/arm-none-eabi/9.2.1/../../../../arm-none-eabi/lib/thumb/v7ve+simd/hard/libstdc++.a(eh_call.o)
 .debug_loc     0x0000000000021fd4      0x338 /home/olf/projects/circle/gcc-arm-9.2-2019.12-x86_64-arm-none-eabi/bin/../lib/gcc/arm-none-eabi/9.2.1/../../../../arm-none-eabi/lib/thumb/v7ve+simd/hard/libstdc++.a(eh_catch.o)
 .debug_loc     0x000000000002230c       0x79 /home/olf/projects/circle/gcc-arm-9.2-2019.12-x86_64-arm-none-eabi/bin/../lib/gcc/arm-none-eabi/9.2.1/../../../../arm-none-eabi/lib/thumb/v7ve+simd/hard/libstdc++.a(eh_type.o)
 .debug_loc     0x0000000000022385       0x37 /home/olf/projects/circle/gcc-arm-9.2-2019.12-x86_64-arm-none-eabi/bin/../lib/gcc/arm-none-eabi/9.2.1/../../../../arm-none-eabi/lib/thumb/v7ve+simd/hard/libstdc++.a(new_handler.o)
 .debug_loc     0x00000000000223bc     0x1006 /home/olf/projects/circle/gcc-arm-9.2-2019.12-x86_64-arm-none-eabi/bin/../lib/gcc/arm-none-eabi/9.2.1/thumb/v7ve+simd/hard/libgcc.a(_udivmoddi4.o)
 .debug_loc     0x00000000000233c2     0x1ea9 /home/olf/projects/circle/gcc-arm-9.2-2019.12-x86_64-arm-none-eabi/bin/../lib/gcc/arm-none-eabi/9.2.1/thumb/v7ve+simd/hard/libgcc.a(unwind-arm.o)
 .debug_loc     0x000000000002526b      0x5db /home/olf/projects/circle/gcc-arm-9.2-2019.12-x86_64-arm-none-eabi/bin/../lib/gcc/arm-none-eabi/9.2.1/thumb/v7ve+simd/hard/libgcc.a(pr-support.o)
 .debug_loc     0x0000000000025846      0xaf1 ../../lib/usb/libusb.a(usbhostcontroller.o)
 .debug_loc     0x0000000000026337      0x691 ../../lib/usb/libusb.a(usbrequest.o)
 .debug_loc     0x00000000000269c8      0xba6 ../../lib/usb/libusb.a(usbstandardhub.o)
 .debug_loc     0x000000000002756e      0xef3 ../../lib/usb/libusb.a(usbdevice.o)
 .debug_loc     0x0000000000028461      0x367 ../../lib/usb/libusb.a(usbdevicefactory.o)
 .debug_loc     0x00000000000287c8      0x858 ../../lib/usb/libusb.a(usbendpoint.o)
 .debug_loc     0x0000000000029020      0x756 ../../lib/usb/libusb.a(usbfunction.o)
 .debug_loc     0x0000000000029776      0x55f ../../lib/usb/libusb.a(usbgamepadps3.o)
 .debug_loc     0x0000000000029cd5      0x7a8 ../../lib/usb/libusb.a(usbgamepadps4.o)
 .debug_loc     0x000000000002a47d      0xe07 ../../lib/usb/libusb.a(usbgamepadstandard.o)
 .debug_loc     0x000000000002b284      0x3ba ../../lib/usb/libusb.a(usbgamepadswitchpro.o)
 .debug_loc     0x000000000002b63e      0x54c ../../lib/usb/libusb.a(usbgamepadxbox360.o)
 .debug_loc     0x000000000002bb8a      0x44d ../../lib/usb/libusb.a(usbgamepadxboxone.o)
 .debug_loc     0x000000000002bfd7      0xbaf ../../lib/usb/libusb.a(usbhiddevice.o)
 .debug_loc     0x000000000002cb86      0x6c4 ../../lib/usb/libusb.a(usbkeyboard.o)
 .debug_loc     0x000000000002d24a      0xc9a ../../lib/usb/libusb.a(usbmassdevice.o)
 .debug_loc     0x000000000002dee4      0xa79 ../../lib/usb/libusb.a(usbmidi.o)
 .debug_loc     0x000000000002e95d      0x233 ../../lib/usb/libusb.a(usbmouse.o)
 .debug_loc     0x000000000002eb90      0x2bd ../../lib/usb/libusb.a(usbprinter.o)
 .debug_loc     0x000000000002ee4d      0xcc0 ../../lib/usb/libusb.a(lan7800.o)
 .debug_loc     0x000000000002fb0d      0xab5 ../../lib/usb/libusb.a(smsc951x.o)
 .debug_loc     0x00000000000305c2      0x56d ../../lib/usb/libusb.a(usbbluetooth.o)
 .debug_loc     0x0000000000030b2f      0x898 ../../lib/usb/libusb.a(usbcdcethernet.o)
 .debug_loc     0x00000000000313c7      0x781 ../../lib/usb/libusb.a(usbconfigparser.o)
 .debug_loc     0x0000000000031b48      0x39f ../../lib/usb/libusb.a(usbgamepad.o)
 .debug_loc     0x0000000000031ee7      0x3db ../../lib/usb/libusb.a(usbstring.o)
 .debug_loc     0x00000000000322c2      0x548 ../../lib/input/libinput.a(keyboardbehaviour.o)
 .debug_loc     0x000000000003280a      0x55a ../../lib/input/libinput.a(keymap.o)
 .debug_loc     0x0000000000032d64      0x3da ../../lib/input/libinput.a(mouse.o)
 .debug_loc     0x000000000003313e      0x612 ../../lib/input/libinput.a(console.o)
 .debug_loc     0x0000000000033750      0x57b ../../lib/input/libinput.a(keyboardbuffer.o)
 .debug_loc     0x0000000000033ccb      0x541 ../../lib/input/libinput.a(linediscipline.o)
 .debug_loc     0x000000000003420c      0x6e6 ../../lib/input/libinput.a(mousebehaviour.o)
 .debug_loc     0x00000000000348f2     0xab1b ../../addon/fatfs/libfatfs.a(ff.o)
 .debug_loc     0x000000000003f40d      0x63b ../../addon/fatfs/libfatfs.a(diskio.o)
 .debug_loc     0x000000000003fa48      0x4fd ../../addon/fatfs/libfatfs.a(ffsystem.o)
 .debug_loc     0x000000000003ff45      0x569 ../../addon/fatfs/libfatfs.a(ffunicode.o)
 .debug_loc     0x00000000000404ae      0x1be ../../lib/fs/libfs.a(partitionmanager.o)
 .debug_loc     0x000000000004066c      0x4b4 ../../lib/fs/libfs.a(partition.o)
 .debug_loc     0x0000000000040b20      0xa45 ../../lib/sched/libsched.a(scheduler.o)
 .debug_loc     0x0000000000041565      0x2a5 ../../lib/sched/libsched.a(task.o)
 .debug_loc     0x000000000004180a       0xec ../../lib/sched/libsched.a(synchronizationevent.o)
 .debug_loc     0x00000000000418f6      0x2a5 ../../lib/libcircle.a(alloc.o)
 .debug_loc     0x0000000000041b9b      0x595 ../../lib/libcircle.a(classallocator.o)
 .debug_loc     0x0000000000042130      0x59a ../../lib/libcircle.a(macaddress.o)
 .debug_loc     0x00000000000426ca       0xf5 ../../lib/libcircle.a(netdevice.o)
 .debug_loc     0x00000000000427bf      0x2ef ../../lib/libcircle.a(numberpool.o)
 .debug_loc     0x0000000000042aae     0x142c /home/olf/projects/circle/gcc-arm-9.2-2019.12-x86_64-arm-none-eabi/bin/../lib/gcc/arm-none-eabi/9.2.1/../../../../arm-none-eabi/lib/thumb/v7ve+simd/hard/libstdc++.a(vmi_class_type_info.o)

.debug_aranges  0x0000000000000000     0x1478
 .debug_aranges
                0x0000000000000000       0x20 main.o
 .debug_aranges
                0x0000000000000020       0x20 kernel.o
 .debug_aranges
                0x0000000000000040       0x20 ../../lib/libcircle.a(actled.o)
 .debug_aranges
                0x0000000000000060       0x20 ../../lib/libcircle.a(devicenameservice.o)
 .debug_aranges
                0x0000000000000080       0x28 ../../lib/libcircle.a(gpiopin.o)
 .debug_aranges
                0x00000000000000a8       0x20 ../../lib/libcircle.a(koptions.o)
 .debug_aranges
                0x00000000000000c8       0x20 ../../lib/libcircle.a(machineinfo.o)
 .debug_aranges
                0x00000000000000e8       0x20 ../../lib/libcircle.a(screen.o)
 .debug_aranges
                0x0000000000000108       0x20 ../../lib/libcircle.a(string.o)
 .debug_aranges
                0x0000000000000128       0x20 ../../lib/libcircle.a(sysinit.o)
 .debug_aranges
                0x0000000000000148       0x20 ../../lib/libcircle.a(timer.o)
 .debug_aranges
                0x0000000000000168       0x20 ../../lib/libcircle.a(util.o)
 .debug_aranges
                0x0000000000000188       0x28 ../../lib/libcircle.a(virtualgpiopin.o)
 .debug_aranges
                0x00000000000001b0       0x20 ../../lib/libcircle.a(chainboot.o)
 .debug_aranges
                0x00000000000001d0       0x20 ../../lib/libcircle.a(memory.o)
 .debug_aranges
                0x00000000000001f0       0x20 ../../lib/libcircle.a(pagetable.o)
 .debug_aranges
                0x0000000000000210       0x20 ../../lib/libcircle.a(synchronize.o)
 .debug_aranges
                0x0000000000000230       0x20 ../../lib/libcircle.a(interrupt.o)
 .debug_aranges
                0x0000000000000250       0x20 ../../lib/libcircle.a(assert.o)
 .debug_aranges
                0x0000000000000270       0x20 ../../lib/libcircle.a(bcmframebuffer.o)
 .debug_aranges
                0x0000000000000290       0x20 ../../lib/libcircle.a(bcmpropertytags.o)
 .debug_aranges
                0x00000000000002b0       0x20 ../../lib/libcircle.a(chargenerator.o)
 .debug_aranges
                0x00000000000002d0       0x20 ../../lib/libcircle.a(debug.o)
 .debug_aranges
                0x00000000000002f0       0x20 ../../lib/libcircle.a(device.o)
 .debug_aranges
                0x0000000000000310       0x20 ../../lib/libcircle.a(dmachannel.o)
 .debug_aranges
                0x0000000000000330       0x20 ../../lib/libcircle.a(gpiomanager.o)
 .debug_aranges
                0x0000000000000350       0x20 ../../lib/libcircle.a(logger.o)
 .debug_aranges
                0x0000000000000370       0x20 ../../lib/libcircle.a(ptrlist.o)
 .debug_aranges
                0x0000000000000390       0x20 ../../lib/libcircle.a(new.o)
 .debug_aranges
                0x00000000000003b0       0x20 ../../lib/libcircle.a(heapallocator.o)
 .debug_aranges
                0x00000000000003d0       0x20 ../../lib/libcircle.a(pageallocator.o)
 .debug_aranges
                0x00000000000003f0       0x28 ../../lib/libcircle.a(bcmmailbox.o)
 .debug_aranges
                0x0000000000000418       0x20 ../../lib/libcircle.a(exceptionhandler.o)
 .debug_aranges
                0x0000000000000438       0x50 /home/olf/projects/circle/gcc-arm-9.2-2019.12-x86_64-arm-none-eabi/bin/../lib/gcc/arm-none-eabi/9.2.1/../../../../arm-none-eabi/lib/thumb/v7ve+simd/hard/libstdc++.a(class_type_info.o)
 .debug_aranges
                0x0000000000000488       0x20 /home/olf/projects/circle/gcc-arm-9.2-2019.12-x86_64-arm-none-eabi/bin/../lib/gcc/arm-none-eabi/9.2.1/../../../../arm-none-eabi/lib/thumb/v7ve+simd/hard/libstdc++.a(del_ops.o)
 .debug_aranges
                0x00000000000004a8       0x20 /home/olf/projects/circle/gcc-arm-9.2-2019.12-x86_64-arm-none-eabi/bin/../lib/gcc/arm-none-eabi/9.2.1/../../../../arm-none-eabi/lib/thumb/v7ve+simd/hard/libstdc++.a(del_opv.o)
 .debug_aranges
                0x00000000000004c8       0x30 /home/olf/projects/circle/gcc-arm-9.2-2019.12-x86_64-arm-none-eabi/bin/../lib/gcc/arm-none-eabi/9.2.1/../../../../arm-none-eabi/lib/thumb/v7ve+simd/hard/libstdc++.a(eh_arm.o)
 .debug_aranges
                0x00000000000004f8       0x30 /home/olf/projects/circle/gcc-arm-9.2-2019.12-x86_64-arm-none-eabi/bin/../lib/gcc/arm-none-eabi/9.2.1/../../../../arm-none-eabi/lib/thumb/v7ve+simd/hard/libstdc++.a(eh_aux_runtime.o)
 .debug_aranges
                0x0000000000000528       0x70 /home/olf/projects/circle/gcc-arm-9.2-2019.12-x86_64-arm-none-eabi/bin/../lib/gcc/arm-none-eabi/9.2.1/../../../../arm-none-eabi/lib/thumb/v7ve+simd/hard/libstdc++.a(eh_exception.o)
 .debug_aranges
                0x0000000000000598       0x20 /home/olf/projects/circle/gcc-arm-9.2-2019.12-x86_64-arm-none-eabi/bin/../lib/gcc/arm-none-eabi/9.2.1/../../../../arm-none-eabi/lib/thumb/v7ve+simd/hard/libstdc++.a(eh_globals.o)
 .debug_aranges
                0x00000000000005b8       0x38 /home/olf/projects/circle/gcc-arm-9.2-2019.12-x86_64-arm-none-eabi/bin/../lib/gcc/arm-none-eabi/9.2.1/../../../../arm-none-eabi/lib/thumb/v7ve+simd/hard/libstdc++.a(eh_personality.o)
 .debug_aranges
                0x00000000000005f0       0x58 /home/olf/projects/circle/gcc-arm-9.2-2019.12-x86_64-arm-none-eabi/bin/../lib/gcc/arm-none-eabi/9.2.1/../../../../arm-none-eabi/lib/thumb/v7ve+simd/hard/libstdc++.a(eh_terminate.o)
 .debug_aranges
                0x0000000000000648       0x38 /home/olf/projects/circle/gcc-arm-9.2-2019.12-x86_64-arm-none-eabi/bin/../lib/gcc/arm-none-eabi/9.2.1/../../../../arm-none-eabi/lib/thumb/v7ve+simd/hard/libstdc++.a(eh_throw.o)
 .debug_aranges
                0x0000000000000680       0x18 /home/olf/projects/circle/gcc-arm-9.2-2019.12-x86_64-arm-none-eabi/bin/../lib/gcc/arm-none-eabi/9.2.1/../../../../arm-none-eabi/lib/thumb/v7ve+simd/hard/libstdc++.a(eh_unex_handler.o)
 .debug_aranges
                0x0000000000000698       0x20 /home/olf/projects/circle/gcc-arm-9.2-2019.12-x86_64-arm-none-eabi/bin/../lib/gcc/arm-none-eabi/9.2.1/../../../../arm-none-eabi/lib/thumb/v7ve+simd/hard/libstdc++.a(new_op.o)
 .debug_aranges
                0x00000000000006b8       0x20 /home/olf/projects/circle/gcc-arm-9.2-2019.12-x86_64-arm-none-eabi/bin/../lib/gcc/arm-none-eabi/9.2.1/../../../../arm-none-eabi/lib/thumb/v7ve+simd/hard/libstdc++.a(new_opv.o)
 .debug_aranges
                0x00000000000006d8       0x28 /home/olf/projects/circle/gcc-arm-9.2-2019.12-x86_64-arm-none-eabi/bin/../lib/gcc/arm-none-eabi/9.2.1/../../../../arm-none-eabi/lib/thumb/v7ve+simd/hard/libstdc++.a(pure.o)
 .debug_aranges
                0x0000000000000700       0x40 /home/olf/projects/circle/gcc-arm-9.2-2019.12-x86_64-arm-none-eabi/bin/../lib/gcc/arm-none-eabi/9.2.1/../../../../arm-none-eabi/lib/thumb/v7ve+simd/hard/libstdc++.a(si_class_type_info.o)
 .debug_aranges
                0x0000000000000740       0x48 /home/olf/projects/circle/gcc-arm-9.2-2019.12-x86_64-arm-none-eabi/bin/../lib/gcc/arm-none-eabi/9.2.1/../../../../arm-none-eabi/lib/thumb/v7ve+simd/hard/libstdc++.a(tinfo.o)
 .debug_aranges
                0x0000000000000788       0x20 /home/olf/projects/circle/gcc-arm-9.2-2019.12-x86_64-arm-none-eabi/bin/../lib/gcc/arm-none-eabi/9.2.1/../../../../arm-none-eabi/lib/thumb/v7ve+simd/hard/libstdc++.a(vterminate.o)
 .debug_aranges
                0x00000000000007a8       0x30 /home/olf/projects/circle/gcc-arm-9.2-2019.12-x86_64-arm-none-eabi/bin/../lib/gcc/arm-none-eabi/9.2.1/../../../../arm-none-eabi/lib/thumb/v7ve+simd/hard/libstdc++.a(bad_alloc.o)
 .debug_aranges
                0x00000000000007d8       0x30 /home/olf/projects/circle/gcc-arm-9.2-2019.12-x86_64-arm-none-eabi/bin/../lib/gcc/arm-none-eabi/9.2.1/../../../../arm-none-eabi/lib/thumb/v7ve+simd/hard/libstdc++.a(bad_array_new.o)
 .debug_aranges
                0x0000000000000808       0x30 /home/olf/projects/circle/gcc-arm-9.2-2019.12-x86_64-arm-none-eabi/bin/../lib/gcc/arm-none-eabi/9.2.1/../../../../arm-none-eabi/lib/thumb/v7ve+simd/hard/libstdc++.a(bad_cast.o)
 .debug_aranges
                0x0000000000000838       0x30 /home/olf/projects/circle/gcc-arm-9.2-2019.12-x86_64-arm-none-eabi/bin/../lib/gcc/arm-none-eabi/9.2.1/../../../../arm-none-eabi/lib/thumb/v7ve+simd/hard/libstdc++.a(bad_typeid.o)
 .debug_aranges
                0x0000000000000868      0x178 /home/olf/projects/circle/gcc-arm-9.2-2019.12-x86_64-arm-none-eabi/bin/../lib/gcc/arm-none-eabi/9.2.1/../../../../arm-none-eabi/lib/thumb/v7ve+simd/hard/libstdc++.a(cp-demangle.o)
 .debug_aranges
                0x00000000000009e0       0x20 /home/olf/projects/circle/gcc-arm-9.2-2019.12-x86_64-arm-none-eabi/bin/../lib/gcc/arm-none-eabi/9.2.1/../../../../arm-none-eabi/lib/thumb/v7ve+simd/hard/libstdc++.a(del_op.o)
 .debug_aranges
                0x0000000000000a00       0x58 /home/olf/projects/circle/gcc-arm-9.2-2019.12-x86_64-arm-none-eabi/bin/../lib/gcc/arm-none-eabi/9.2.1/../../../../arm-none-eabi/lib/thumb/v7ve+simd/hard/libstdc++.a(eh_alloc.o)
 .debug_aranges
                0x0000000000000a58       0x30 /home/olf/projects/circle/gcc-arm-9.2-2019.12-x86_64-arm-none-eabi/bin/../lib/gcc/arm-none-eabi/9.2.1/../../../../arm-none-eabi/lib/thumb/v7ve+simd/hard/libstdc++.a(eh_call.o)
 .debug_aranges
                0x0000000000000a88       0x40 /home/olf/projects/circle/gcc-arm-9.2-2019.12-x86_64-arm-none-eabi/bin/../lib/gcc/arm-none-eabi/9.2.1/../../../../arm-none-eabi/lib/thumb/v7ve+simd/hard/libstdc++.a(eh_catch.o)
 .debug_aranges
                0x0000000000000ac8       0x18 /home/olf/projects/circle/gcc-arm-9.2-2019.12-x86_64-arm-none-eabi/bin/../lib/gcc/arm-none-eabi/9.2.1/../../../../arm-none-eabi/lib/thumb/v7ve+simd/hard/libstdc++.a(eh_term_handler.o)
 .debug_aranges
                0x0000000000000ae0       0x20 /home/olf/projects/circle/gcc-arm-9.2-2019.12-x86_64-arm-none-eabi/bin/../lib/gcc/arm-none-eabi/9.2.1/../../../../arm-none-eabi/lib/thumb/v7ve+simd/hard/libstdc++.a(eh_type.o)
 .debug_aranges
                0x0000000000000b00       0x28 /home/olf/projects/circle/gcc-arm-9.2-2019.12-x86_64-arm-none-eabi/bin/../lib/gcc/arm-none-eabi/9.2.1/../../../../arm-none-eabi/lib/thumb/v7ve+simd/hard/libstdc++.a(new_handler.o)
 .debug_aranges
                0x0000000000000b28       0x20 /home/olf/projects/circle/gcc-arm-9.2-2019.12-x86_64-arm-none-eabi/bin/../lib/gcc/arm-none-eabi/9.2.1/thumb/v7ve+simd/hard/libgcc.a(_aeabi_ldivmod.o)
 .debug_aranges
                0x0000000000000b48       0x20 /home/olf/projects/circle/gcc-arm-9.2-2019.12-x86_64-arm-none-eabi/bin/../lib/gcc/arm-none-eabi/9.2.1/thumb/v7ve+simd/hard/libgcc.a(_aeabi_uldivmod.o)
 .debug_aranges
                0x0000000000000b68       0x20 /home/olf/projects/circle/gcc-arm-9.2-2019.12-x86_64-arm-none-eabi/bin/../lib/gcc/arm-none-eabi/9.2.1/thumb/v7ve+simd/hard/libgcc.a(_udivmoddi4.o)
 .debug_aranges
                0x0000000000000b88       0xf0 /home/olf/projects/circle/gcc-arm-9.2-2019.12-x86_64-arm-none-eabi/bin/../lib/gcc/arm-none-eabi/9.2.1/thumb/v7ve+simd/hard/libgcc.a(unwind-arm.o)
 .debug_aranges
                0x0000000000000c78       0x20 /home/olf/projects/circle/gcc-arm-9.2-2019.12-x86_64-arm-none-eabi/bin/../lib/gcc/arm-none-eabi/9.2.1/thumb/v7ve+simd/hard/libgcc.a(libunwind.o)
 .debug_aranges
                0x0000000000000c98       0x58 /home/olf/projects/circle/gcc-arm-9.2-2019.12-x86_64-arm-none-eabi/bin/../lib/gcc/arm-none-eabi/9.2.1/thumb/v7ve+simd/hard/libgcc.a(pr-support.o)
 .debug_aranges
                0x0000000000000cf0       0x20 /home/olf/projects/circle/gcc-arm-9.2-2019.12-x86_64-arm-none-eabi/bin/../lib/gcc/arm-none-eabi/9.2.1/thumb/v7ve+simd/hard/libgcc.a(_dvmd_tls.o)
 .debug_aranges
                0x0000000000000d10       0x28 ../../lib/usb/libusb.a(usbhostcontroller.o)
 .debug_aranges
                0x0000000000000d38       0x20 ../../lib/usb/libusb.a(usbrequest.o)
 .debug_aranges
                0x0000000000000d58       0x28 ../../lib/usb/libusb.a(usbstandardhub.o)
 .debug_aranges
                0x0000000000000d80       0x30 ../../lib/usb/libusb.a(usbdevice.o)
 .debug_aranges
                0x0000000000000db0       0x20 ../../lib/usb/libusb.a(usbdevicefactory.o)
 .debug_aranges
                0x0000000000000dd0       0x20 ../../lib/usb/libusb.a(usbendpoint.o)
 .debug_aranges
                0x0000000000000df0       0x20 ../../lib/usb/libusb.a(usbfunction.o)
 .debug_aranges
                0x0000000000000e10       0x30 ../../lib/usb/libusb.a(usbgamepadps3.o)
 .debug_aranges
                0x0000000000000e40       0x28 ../../lib/usb/libusb.a(usbgamepadps4.o)
 .debug_aranges
                0x0000000000000e68       0x40 ../../lib/usb/libusb.a(usbgamepadstandard.o)
 .debug_aranges
                0x0000000000000ea8       0x30 ../../lib/usb/libusb.a(usbgamepadswitchpro.o)
 .debug_aranges
                0x0000000000000ed8       0x30 ../../lib/usb/libusb.a(usbgamepadxbox360.o)
 .debug_aranges
                0x0000000000000f08       0x38 ../../lib/usb/libusb.a(usbgamepadxboxone.o)
 .debug_aranges
                0x0000000000000f40       0x20 ../../lib/usb/libusb.a(usbhiddevice.o)
 .debug_aranges
                0x0000000000000f60       0x28 ../../lib/usb/libusb.a(usbkeyboard.o)
 .debug_aranges
                0x0000000000000f88       0x28 ../../lib/usb/libusb.a(usbmassdevice.o)
 .debug_aranges
                0x0000000000000fb0       0x28 ../../lib/usb/libusb.a(usbmidi.o)
 .debug_aranges
                0x0000000000000fd8       0x20 ../../lib/usb/libusb.a(usbmouse.o)
 .debug_aranges
                0x0000000000000ff8       0x28 ../../lib/usb/libusb.a(usbprinter.o)
 .debug_aranges
                0x0000000000001020       0x38 ../../lib/usb/libusb.a(lan7800.o)
 .debug_aranges
                0x0000000000001058       0x38 ../../lib/usb/libusb.a(smsc951x.o)
 .debug_aranges
                0x0000000000001090       0x28 ../../lib/usb/libusb.a(usbbluetooth.o)
 .debug_aranges
                0x00000000000010b8       0x48 ../../lib/usb/libusb.a(usbcdcethernet.o)
 .debug_aranges
                0x0000000000001100       0x20 ../../lib/usb/libusb.a(usbconfigparser.o)
 .debug_aranges
                0x0000000000001120       0x48 ../../lib/usb/libusb.a(usbgamepad.o)
 .debug_aranges
                0x0000000000001168       0x20 ../../lib/usb/libusb.a(usbstring.o)
 .debug_aranges
                0x0000000000001188       0x20 ../../lib/input/libinput.a(keyboardbehaviour.o)
 .debug_aranges
                0x00000000000011a8       0x20 ../../lib/input/libinput.a(keymap.o)
 .debug_aranges
                0x00000000000011c8       0x28 ../../lib/input/libinput.a(mouse.o)
 .debug_aranges
                0x00000000000011f0       0x20 ../../lib/input/libinput.a(console.o)
 .debug_aranges
                0x0000000000001210       0x20 ../../lib/input/libinput.a(keyboardbuffer.o)
 .debug_aranges
                0x0000000000001230       0x20 ../../lib/input/libinput.a(linediscipline.o)
 .debug_aranges
                0x0000000000001250       0x20 ../../lib/input/libinput.a(mousebehaviour.o)
 .debug_aranges
                0x0000000000001270       0x20 ../../addon/fatfs/libfatfs.a(ff.o)
 .debug_aranges
                0x0000000000001290       0x20 ../../addon/fatfs/libfatfs.a(diskio.o)
 .debug_aranges
                0x00000000000012b0       0x20 ../../addon/fatfs/libfatfs.a(ffsystem.o)
 .debug_aranges
                0x00000000000012d0       0x20 ../../addon/fatfs/libfatfs.a(ffunicode.o)
 .debug_aranges
                0x00000000000012f0       0x20 ../../lib/fs/libfs.a(partitionmanager.o)
 .debug_aranges
                0x0000000000001310       0x20 ../../lib/fs/libfs.a(partition.o)
 .debug_aranges
                0x0000000000001330       0x20 ../../lib/sched/libsched.a(scheduler.o)
 .debug_aranges
                0x0000000000001350       0x20 ../../lib/sched/libsched.a(task.o)
 .debug_aranges
                0x0000000000001370       0x20 ../../lib/sched/libsched.a(synchronizationevent.o)
 .debug_aranges
                0x0000000000001390       0x20 ../../lib/libcircle.a(alloc.o)
 .debug_aranges
                0x00000000000013b0       0x20 ../../lib/libcircle.a(classallocator.o)
 .debug_aranges
                0x00000000000013d0       0x20 ../../lib/libcircle.a(macaddress.o)
 .debug_aranges
                0x00000000000013f0       0x28 ../../lib/libcircle.a(netdevice.o)
 .debug_aranges
                0x0000000000001418       0x20 ../../lib/libcircle.a(numberpool.o)
 .debug_aranges
                0x0000000000001438       0x40 /home/olf/projects/circle/gcc-arm-9.2-2019.12-x86_64-arm-none-eabi/bin/../lib/gcc/arm-none-eabi/9.2.1/../../../../arm-none-eabi/lib/thumb/v7ve+simd/hard/libstdc++.a(vmi_class_type_info.o)

.debug_ranges   0x0000000000000000     0x9098
 .debug_ranges  0x0000000000000000       0x10 main.o
 .debug_ranges  0x0000000000000010       0x88 kernel.o
 .debug_ranges  0x0000000000000098       0x40 ../../lib/libcircle.a(actled.o)
 .debug_ranges  0x00000000000000d8      0x120 ../../lib/libcircle.a(devicenameservice.o)
 .debug_ranges  0x00000000000001f8      0x2d0 ../../lib/libcircle.a(gpiopin.o)
 .debug_ranges  0x00000000000004c8      0x158 ../../lib/libcircle.a(koptions.o)
 .debug_ranges  0x0000000000000620       0x30 ../../lib/libcircle.a(machineinfo.o)
 .debug_ranges  0x0000000000000650      0x448 ../../lib/libcircle.a(screen.o)
 .debug_ranges  0x0000000000000a98      0x300 ../../lib/libcircle.a(string.o)
 .debug_ranges  0x0000000000000d98       0x40 ../../lib/libcircle.a(sysinit.o)
 .debug_ranges  0x0000000000000dd8      0x410 ../../lib/libcircle.a(timer.o)
 .debug_ranges  0x00000000000011e8       0x18 ../../lib/libcircle.a(util.o)
 .debug_ranges  0x0000000000001200       0xe0 ../../lib/libcircle.a(virtualgpiopin.o)
 .debug_ranges  0x00000000000012e0       0x70 ../../lib/libcircle.a(memory.o)
 .debug_ranges  0x0000000000001350       0x40 ../../lib/libcircle.a(pagetable.o)
 .debug_ranges  0x0000000000001390      0x140 ../../lib/libcircle.a(interrupt.o)
 .debug_ranges  0x00000000000014d0       0x30 ../../lib/libcircle.a(bcmframebuffer.o)
 .debug_ranges  0x0000000000001500       0x58 ../../lib/libcircle.a(debug.o)
 .debug_ranges  0x0000000000001558       0x18 ../../lib/libcircle.a(device.o)
 .debug_ranges  0x0000000000001570      0x1d8 ../../lib/libcircle.a(dmachannel.o)
 .debug_ranges  0x0000000000001748       0x90 ../../lib/libcircle.a(gpiomanager.o)
 .debug_ranges  0x00000000000017d8      0x168 ../../lib/libcircle.a(logger.o)
 .debug_ranges  0x0000000000001940       0x30 ../../lib/libcircle.a(ptrlist.o)
 .debug_ranges  0x0000000000001970       0x20 ../../lib/libcircle.a(new.o)
 .debug_ranges  0x0000000000001990      0x138 ../../lib/libcircle.a(heapallocator.o)
 .debug_ranges  0x0000000000001ac8       0x80 ../../lib/libcircle.a(pageallocator.o)
 .debug_ranges  0x0000000000001b48      0x140 ../../lib/libcircle.a(bcmmailbox.o)
 .debug_ranges  0x0000000000001c88       0x48 ../../lib/libcircle.a(exceptionhandler.o)
 .debug_ranges  0x0000000000001cd0       0x88 /home/olf/projects/circle/gcc-arm-9.2-2019.12-x86_64-arm-none-eabi/bin/../lib/gcc/arm-none-eabi/9.2.1/../../../../arm-none-eabi/lib/thumb/v7ve+simd/hard/libstdc++.a(class_type_info.o)
 .debug_ranges  0x0000000000001d58       0x10 /home/olf/projects/circle/gcc-arm-9.2-2019.12-x86_64-arm-none-eabi/bin/../lib/gcc/arm-none-eabi/9.2.1/../../../../arm-none-eabi/lib/thumb/v7ve+simd/hard/libstdc++.a(del_ops.o)
 .debug_ranges  0x0000000000001d68       0x10 /home/olf/projects/circle/gcc-arm-9.2-2019.12-x86_64-arm-none-eabi/bin/../lib/gcc/arm-none-eabi/9.2.1/../../../../arm-none-eabi/lib/thumb/v7ve+simd/hard/libstdc++.a(del_opv.o)
 .debug_ranges  0x0000000000001d78       0xc0 /home/olf/projects/circle/gcc-arm-9.2-2019.12-x86_64-arm-none-eabi/bin/../lib/gcc/arm-none-eabi/9.2.1/../../../../arm-none-eabi/lib/thumb/v7ve+simd/hard/libstdc++.a(eh_arm.o)
 .debug_ranges  0x0000000000001e38       0x68 /home/olf/projects/circle/gcc-arm-9.2-2019.12-x86_64-arm-none-eabi/bin/../lib/gcc/arm-none-eabi/9.2.1/../../../../arm-none-eabi/lib/thumb/v7ve+simd/hard/libstdc++.a(eh_aux_runtime.o)
 .debug_ranges  0x0000000000001ea0       0x60 /home/olf/projects/circle/gcc-arm-9.2-2019.12-x86_64-arm-none-eabi/bin/../lib/gcc/arm-none-eabi/9.2.1/../../../../arm-none-eabi/lib/thumb/v7ve+simd/hard/libstdc++.a(eh_exception.o)
 .debug_ranges  0x0000000000001f00       0x10 /home/olf/projects/circle/gcc-arm-9.2-2019.12-x86_64-arm-none-eabi/bin/../lib/gcc/arm-none-eabi/9.2.1/../../../../arm-none-eabi/lib/thumb/v7ve+simd/hard/libstdc++.a(eh_globals.o)
 .debug_ranges  0x0000000000001f10      0x330 /home/olf/projects/circle/gcc-arm-9.2-2019.12-x86_64-arm-none-eabi/bin/../lib/gcc/arm-none-eabi/9.2.1/../../../../arm-none-eabi/lib/thumb/v7ve+simd/hard/libstdc++.a(eh_personality.o)
 .debug_ranges  0x0000000000002240       0x78 /home/olf/projects/circle/gcc-arm-9.2-2019.12-x86_64-arm-none-eabi/bin/../lib/gcc/arm-none-eabi/9.2.1/../../../../arm-none-eabi/lib/thumb/v7ve+simd/hard/libstdc++.a(eh_terminate.o)
 .debug_ranges  0x00000000000022b8       0x88 /home/olf/projects/circle/gcc-arm-9.2-2019.12-x86_64-arm-none-eabi/bin/../lib/gcc/arm-none-eabi/9.2.1/../../../../arm-none-eabi/lib/thumb/v7ve+simd/hard/libstdc++.a(eh_throw.o)
 .debug_ranges  0x0000000000002340       0x40 /home/olf/projects/circle/gcc-arm-9.2-2019.12-x86_64-arm-none-eabi/bin/../lib/gcc/arm-none-eabi/9.2.1/../../../../arm-none-eabi/lib/thumb/v7ve+simd/hard/libstdc++.a(new_op.o)
 .debug_ranges  0x0000000000002380       0x10 /home/olf/projects/circle/gcc-arm-9.2-2019.12-x86_64-arm-none-eabi/bin/../lib/gcc/arm-none-eabi/9.2.1/../../../../arm-none-eabi/lib/thumb/v7ve+simd/hard/libstdc++.a(new_opv.o)
 .debug_ranges  0x0000000000002390       0x18 /home/olf/projects/circle/gcc-arm-9.2-2019.12-x86_64-arm-none-eabi/bin/../lib/gcc/arm-none-eabi/9.2.1/../../../../arm-none-eabi/lib/thumb/v7ve+simd/hard/libstdc++.a(pure.o)
 .debug_ranges  0x00000000000023a8       0x80 /home/olf/projects/circle/gcc-arm-9.2-2019.12-x86_64-arm-none-eabi/bin/../lib/gcc/arm-none-eabi/9.2.1/../../../../arm-none-eabi/lib/thumb/v7ve+simd/hard/libstdc++.a(si_class_type_info.o)
 .debug_ranges  0x0000000000002428       0x38 /home/olf/projects/circle/gcc-arm-9.2-2019.12-x86_64-arm-none-eabi/bin/../lib/gcc/arm-none-eabi/9.2.1/../../../../arm-none-eabi/lib/thumb/v7ve+simd/hard/libstdc++.a(tinfo.o)
 .debug_ranges  0x0000000000002460       0x98 /home/olf/projects/circle/gcc-arm-9.2-2019.12-x86_64-arm-none-eabi/bin/../lib/gcc/arm-none-eabi/9.2.1/../../../../arm-none-eabi/lib/thumb/v7ve+simd/hard/libstdc++.a(vterminate.o)
 .debug_ranges  0x00000000000024f8       0x38 /home/olf/projects/circle/gcc-arm-9.2-2019.12-x86_64-arm-none-eabi/bin/../lib/gcc/arm-none-eabi/9.2.1/../../../../arm-none-eabi/lib/thumb/v7ve+simd/hard/libstdc++.a(bad_alloc.o)
 .debug_ranges  0x0000000000002530       0x38 /home/olf/projects/circle/gcc-arm-9.2-2019.12-x86_64-arm-none-eabi/bin/../lib/gcc/arm-none-eabi/9.2.1/../../../../arm-none-eabi/lib/thumb/v7ve+simd/hard/libstdc++.a(bad_array_new.o)
 .debug_ranges  0x0000000000002568       0x38 /home/olf/projects/circle/gcc-arm-9.2-2019.12-x86_64-arm-none-eabi/bin/../lib/gcc/arm-none-eabi/9.2.1/../../../../arm-none-eabi/lib/thumb/v7ve+simd/hard/libstdc++.a(bad_cast.o)
 .debug_ranges  0x00000000000025a0       0x38 /home/olf/projects/circle/gcc-arm-9.2-2019.12-x86_64-arm-none-eabi/bin/../lib/gcc/arm-none-eabi/9.2.1/../../../../arm-none-eabi/lib/thumb/v7ve+simd/hard/libstdc++.a(bad_typeid.o)
 .debug_ranges  0x00000000000025d8     0x35c8 /home/olf/projects/circle/gcc-arm-9.2-2019.12-x86_64-arm-none-eabi/bin/../lib/gcc/arm-none-eabi/9.2.1/../../../../arm-none-eabi/lib/thumb/v7ve+simd/hard/libstdc++.a(cp-demangle.o)
 .debug_ranges  0x0000000000005ba0       0x10 /home/olf/projects/circle/gcc-arm-9.2-2019.12-x86_64-arm-none-eabi/bin/../lib/gcc/arm-none-eabi/9.2.1/../../../../arm-none-eabi/lib/thumb/v7ve+simd/hard/libstdc++.a(del_op.o)
 .debug_ranges  0x0000000000005bb0      0x1b0 /home/olf/projects/circle/gcc-arm-9.2-2019.12-x86_64-arm-none-eabi/bin/../lib/gcc/arm-none-eabi/9.2.1/../../../../arm-none-eabi/lib/thumb/v7ve+simd/hard/libstdc++.a(eh_alloc.o)
 .debug_ranges  0x0000000000005d60       0xc0 /home/olf/projects/circle/gcc-arm-9.2-2019.12-x86_64-arm-none-eabi/bin/../lib/gcc/arm-none-eabi/9.2.1/../../../../arm-none-eabi/lib/thumb/v7ve+simd/hard/libstdc++.a(eh_call.o)
 .debug_ranges  0x0000000000005e20       0xa0 /home/olf/projects/circle/gcc-arm-9.2-2019.12-x86_64-arm-none-eabi/bin/../lib/gcc/arm-none-eabi/9.2.1/../../../../arm-none-eabi/lib/thumb/v7ve+simd/hard/libstdc++.a(eh_catch.o)
 .debug_ranges  0x0000000000005ec0       0x28 /home/olf/projects/circle/gcc-arm-9.2-2019.12-x86_64-arm-none-eabi/bin/../lib/gcc/arm-none-eabi/9.2.1/../../../../arm-none-eabi/lib/thumb/v7ve+simd/hard/libstdc++.a(eh_type.o)
 .debug_ranges  0x0000000000005ee8       0x18 /home/olf/projects/circle/gcc-arm-9.2-2019.12-x86_64-arm-none-eabi/bin/../lib/gcc/arm-none-eabi/9.2.1/../../../../arm-none-eabi/lib/thumb/v7ve+simd/hard/libstdc++.a(new_handler.o)
 .debug_ranges  0x0000000000005f00       0xd8 /home/olf/projects/circle/gcc-arm-9.2-2019.12-x86_64-arm-none-eabi/bin/../lib/gcc/arm-none-eabi/9.2.1/thumb/v7ve+simd/hard/libgcc.a(_udivmoddi4.o)
 .debug_ranges  0x0000000000005fd8      0x1d8 /home/olf/projects/circle/gcc-arm-9.2-2019.12-x86_64-arm-none-eabi/bin/../lib/gcc/arm-none-eabi/9.2.1/thumb/v7ve+simd/hard/libgcc.a(unwind-arm.o)
 .debug_ranges  0x00000000000061b0       0x48 /home/olf/projects/circle/gcc-arm-9.2-2019.12-x86_64-arm-none-eabi/bin/../lib/gcc/arm-none-eabi/9.2.1/thumb/v7ve+simd/hard/libgcc.a(pr-support.o)
 .debug_ranges  0x00000000000061f8      0x100 ../../lib/usb/libusb.a(usbhostcontroller.o)
 .debug_ranges  0x00000000000062f8      0x198 ../../lib/usb/libusb.a(usbstandardhub.o)
 .debug_ranges  0x0000000000006490      0x1f8 ../../lib/usb/libusb.a(usbdevice.o)
 .debug_ranges  0x0000000000006688       0x58 ../../lib/usb/libusb.a(usbendpoint.o)
 .debug_ranges  0x00000000000066e0       0xb8 ../../lib/usb/libusb.a(usbfunction.o)
 .debug_ranges  0x0000000000006798       0xb8 ../../lib/usb/libusb.a(usbgamepadps3.o)
 .debug_ranges  0x0000000000006850       0x78 ../../lib/usb/libusb.a(usbgamepadps4.o)
 .debug_ranges  0x00000000000068c8       0xe8 ../../lib/usb/libusb.a(usbgamepadstandard.o)
 .debug_ranges  0x00000000000069b0       0x98 ../../lib/usb/libusb.a(usbgamepadswitchpro.o)
 .debug_ranges  0x0000000000006a48       0xf8 ../../lib/usb/libusb.a(usbgamepadxbox360.o)
 .debug_ranges  0x0000000000006b40       0xc8 ../../lib/usb/libusb.a(usbgamepadxboxone.o)
 .debug_ranges  0x0000000000006c08       0x18 ../../lib/usb/libusb.a(usbhiddevice.o)
 .debug_ranges  0x0000000000006c20       0xd8 ../../lib/usb/libusb.a(usbkeyboard.o)
 .debug_ranges  0x0000000000006cf8       0xc8 ../../lib/usb/libusb.a(usbmassdevice.o)
 .debug_ranges  0x0000000000006dc0      0x110 ../../lib/usb/libusb.a(usbmidi.o)
 .debug_ranges  0x0000000000006ed0       0x38 ../../lib/usb/libusb.a(usbprinter.o)
 .debug_ranges  0x0000000000006f08       0x40 ../../lib/usb/libusb.a(lan7800.o)
 .debug_ranges  0x0000000000006f48       0x40 ../../lib/usb/libusb.a(smsc951x.o)
 .debug_ranges  0x0000000000006f88       0x50 ../../lib/usb/libusb.a(usbbluetooth.o)
 .debug_ranges  0x0000000000006fd8       0x88 ../../lib/usb/libusb.a(usbcdcethernet.o)
 .debug_ranges  0x0000000000007060       0x88 ../../lib/usb/libusb.a(usbconfigparser.o)
 .debug_ranges  0x00000000000070e8       0x70 ../../lib/usb/libusb.a(usbgamepad.o)
 .debug_ranges  0x0000000000007158       0x30 ../../lib/usb/libusb.a(usbstring.o)
 .debug_ranges  0x0000000000007188       0x30 ../../lib/input/libinput.a(keyboardbehaviour.o)
 .debug_ranges  0x00000000000071b8       0x58 ../../lib/input/libinput.a(keymap.o)
 .debug_ranges  0x0000000000007210       0x38 ../../lib/input/libinput.a(mouse.o)
 .debug_ranges  0x0000000000007248       0x20 ../../lib/input/libinput.a(console.o)
 .debug_ranges  0x0000000000007268       0xd0 ../../lib/input/libinput.a(keyboardbuffer.o)
 .debug_ranges  0x0000000000007338       0xd8 ../../lib/input/libinput.a(linediscipline.o)
 .debug_ranges  0x0000000000007410       0x18 ../../lib/input/libinput.a(mousebehaviour.o)
 .debug_ranges  0x0000000000007428     0x11a0 ../../addon/fatfs/libfatfs.a(ff.o)
 .debug_ranges  0x00000000000085c8       0x70 ../../addon/fatfs/libfatfs.a(ffsystem.o)
 .debug_ranges  0x0000000000008638       0xd0 ../../lib/fs/libfs.a(partitionmanager.o)
 .debug_ranges  0x0000000000008708       0x18 ../../lib/fs/libfs.a(partition.o)
 .debug_ranges  0x0000000000008720      0x110 ../../lib/sched/libsched.a(scheduler.o)
 .debug_ranges  0x0000000000008830       0x20 ../../lib/sched/libsched.a(task.o)
 .debug_ranges  0x0000000000008850       0x18 ../../lib/sched/libsched.a(synchronizationevent.o)
 .debug_ranges  0x0000000000008868       0x60 ../../lib/libcircle.a(alloc.o)
 .debug_ranges  0x00000000000088c8       0xa8 ../../lib/libcircle.a(classallocator.o)
 .debug_ranges  0x0000000000008970       0x38 ../../lib/libcircle.a(macaddress.o)
 .debug_ranges  0x00000000000089a8       0x60 ../../lib/libcircle.a(netdevice.o)
 .debug_ranges  0x0000000000008a08      0x690 /home/olf/projects/circle/gcc-arm-9.2-2019.12-x86_64-arm-none-eabi/bin/../lib/gcc/arm-none-eabi/9.2.1/../../../../arm-none-eabi/lib/thumb/v7ve+simd/hard/libstdc++.a(vmi_class_type_info.o)

.debug_line     0x0000000000000000    0x34b1b
 .debug_line    0x0000000000000000      0x16e main.o
 .debug_line    0x000000000000016e      0x34b kernel.o
 .debug_line    0x00000000000004b9      0x246 ../../lib/libcircle.a(actled.o)
 .debug_line    0x00000000000006ff      0x5c1 ../../lib/libcircle.a(devicenameservice.o)
 .debug_line    0x0000000000000cc0      0xd35 ../../lib/libcircle.a(gpiopin.o)
 .debug_line    0x00000000000019f5      0x531 ../../lib/libcircle.a(koptions.o)
 .debug_line    0x0000000000001f26      0x571 ../../lib/libcircle.a(machineinfo.o)
 .debug_line    0x0000000000002497     0x1131 ../../lib/libcircle.a(screen.o)
 .debug_line    0x00000000000035c8     0x1593 ../../lib/libcircle.a(string.o)
 .debug_line    0x0000000000004b5b      0x2b1 ../../lib/libcircle.a(sysinit.o)
 .debug_line    0x0000000000004e0c      0xe4c ../../lib/libcircle.a(timer.o)
 .debug_line    0x0000000000005c58       0xfa ../../lib/libcircle.a(util.o)
 .debug_line    0x0000000000005d52      0x3e8 ../../lib/libcircle.a(virtualgpiopin.o)
 .debug_line    0x000000000000613a      0x132 ../../lib/libcircle.a(chainboot.o)
 .debug_line    0x000000000000626c      0x39c ../../lib/libcircle.a(memory.o)
 .debug_line    0x0000000000006608      0x144 ../../lib/libcircle.a(pagetable.o)
 .debug_line    0x000000000000674c      0x17d ../../lib/libcircle.a(synchronize.o)
 .debug_line    0x00000000000068c9      0x75e ../../lib/libcircle.a(interrupt.o)
 .debug_line    0x0000000000007027      0x147 ../../lib/libcircle.a(assert.o)
 .debug_line    0x000000000000716e      0x3b0 ../../lib/libcircle.a(bcmframebuffer.o)
 .debug_line    0x000000000000751e      0x26e ../../lib/libcircle.a(bcmpropertytags.o)
 .debug_line    0x000000000000778c      0x118 ../../lib/libcircle.a(chargenerator.o)
 .debug_line    0x00000000000078a4      0x19c ../../lib/libcircle.a(debug.o)
 .debug_line    0x0000000000007a40       0xf1 ../../lib/libcircle.a(device.o)
 .debug_line    0x0000000000007b31      0xba8 ../../lib/libcircle.a(dmachannel.o)
 .debug_line    0x00000000000086d9      0x37a ../../lib/libcircle.a(gpiomanager.o)
 .debug_line    0x0000000000008a53      0x8b3 ../../lib/libcircle.a(logger.o)
 .debug_line    0x0000000000009306      0x352 ../../lib/libcircle.a(ptrlist.o)
 .debug_line    0x0000000000009658       0xe3 ../../lib/libcircle.a(new.o)
 .debug_line    0x000000000000973b      0x4f8 ../../lib/libcircle.a(heapallocator.o)
 .debug_line    0x0000000000009c33      0x264 ../../lib/libcircle.a(pageallocator.o)
 .debug_line    0x0000000000009e97      0x3c4 ../../lib/libcircle.a(bcmmailbox.o)
 .debug_line    0x000000000000a25b      0x2c6 ../../lib/libcircle.a(exceptionhandler.o)
 .debug_line    0x000000000000a521      0x490 /home/olf/projects/circle/gcc-arm-9.2-2019.12-x86_64-arm-none-eabi/bin/../lib/gcc/arm-none-eabi/9.2.1/../../../../arm-none-eabi/lib/thumb/v7ve+simd/hard/libstdc++.a(class_type_info.o)
 .debug_line    0x000000000000a9b1      0x2fe /home/olf/projects/circle/gcc-arm-9.2-2019.12-x86_64-arm-none-eabi/bin/../lib/gcc/arm-none-eabi/9.2.1/../../../../arm-none-eabi/lib/thumb/v7ve+simd/hard/libstdc++.a(del_ops.o)
 .debug_line    0x000000000000acaf      0x2fe /home/olf/projects/circle/gcc-arm-9.2-2019.12-x86_64-arm-none-eabi/bin/../lib/gcc/arm-none-eabi/9.2.1/../../../../arm-none-eabi/lib/thumb/v7ve+simd/hard/libstdc++.a(del_opv.o)
 .debug_line    0x000000000000afad      0x6c4 /home/olf/projects/circle/gcc-arm-9.2-2019.12-x86_64-arm-none-eabi/bin/../lib/gcc/arm-none-eabi/9.2.1/../../../../arm-none-eabi/lib/thumb/v7ve+simd/hard/libstdc++.a(eh_arm.o)
 .debug_line    0x000000000000b671      0x5e4 /home/olf/projects/circle/gcc-arm-9.2-2019.12-x86_64-arm-none-eabi/bin/../lib/gcc/arm-none-eabi/9.2.1/../../../../arm-none-eabi/lib/thumb/v7ve+simd/hard/libstdc++.a(eh_aux_runtime.o)
 .debug_line    0x000000000000bc55      0x445 /home/olf/projects/circle/gcc-arm-9.2-2019.12-x86_64-arm-none-eabi/bin/../lib/gcc/arm-none-eabi/9.2.1/../../../../arm-none-eabi/lib/thumb/v7ve+simd/hard/libstdc++.a(eh_exception.o)
 .debug_line    0x000000000000c09a      0x513 /home/olf/projects/circle/gcc-arm-9.2-2019.12-x86_64-arm-none-eabi/bin/../lib/gcc/arm-none-eabi/9.2.1/../../../../arm-none-eabi/lib/thumb/v7ve+simd/hard/libstdc++.a(eh_globals.o)
 .debug_line    0x000000000000c5ad     0x110a /home/olf/projects/circle/gcc-arm-9.2-2019.12-x86_64-arm-none-eabi/bin/../lib/gcc/arm-none-eabi/9.2.1/../../../../arm-none-eabi/lib/thumb/v7ve+simd/hard/libstdc++.a(eh_personality.o)
 .debug_line    0x000000000000d6b7      0x642 /home/olf/projects/circle/gcc-arm-9.2-2019.12-x86_64-arm-none-eabi/bin/../lib/gcc/arm-none-eabi/9.2.1/../../../../arm-none-eabi/lib/thumb/v7ve+simd/hard/libstdc++.a(eh_terminate.o)
 .debug_line    0x000000000000dcf9      0x5f2 /home/olf/projects/circle/gcc-arm-9.2-2019.12-x86_64-arm-none-eabi/bin/../lib/gcc/arm-none-eabi/9.2.1/../../../../arm-none-eabi/lib/thumb/v7ve+simd/hard/libstdc++.a(eh_throw.o)
 .debug_line    0x000000000000e2eb      0x3a8 /home/olf/projects/circle/gcc-arm-9.2-2019.12-x86_64-arm-none-eabi/bin/../lib/gcc/arm-none-eabi/9.2.1/../../../../arm-none-eabi/lib/thumb/v7ve+simd/hard/libstdc++.a(eh_unex_handler.o)
 .debug_line    0x000000000000e693      0x526 /home/olf/projects/circle/gcc-arm-9.2-2019.12-x86_64-arm-none-eabi/bin/../lib/gcc/arm-none-eabi/9.2.1/../../../../arm-none-eabi/lib/thumb/v7ve+simd/hard/libstdc++.a(new_op.o)
 .debug_line    0x000000000000ebb9      0x2fe /home/olf/projects/circle/gcc-arm-9.2-2019.12-x86_64-arm-none-eabi/bin/../lib/gcc/arm-none-eabi/9.2.1/../../../../arm-none-eabi/lib/thumb/v7ve+simd/hard/libstdc++.a(new_opv.o)
 .debug_line    0x000000000000eeb7      0x471 /home/olf/projects/circle/gcc-arm-9.2-2019.12-x86_64-arm-none-eabi/bin/../lib/gcc/arm-none-eabi/9.2.1/../../../../arm-none-eabi/lib/thumb/v7ve+simd/hard/libstdc++.a(pure.o)
 .debug_line    0x000000000000f328      0x450 /home/olf/projects/circle/gcc-arm-9.2-2019.12-x86_64-arm-none-eabi/bin/../lib/gcc/arm-none-eabi/9.2.1/../../../../arm-none-eabi/lib/thumb/v7ve+simd/hard/libstdc++.a(si_class_type_info.o)
 .debug_line    0x000000000000f778      0x3aa /home/olf/projects/circle/gcc-arm-9.2-2019.12-x86_64-arm-none-eabi/bin/../lib/gcc/arm-none-eabi/9.2.1/../../../../arm-none-eabi/lib/thumb/v7ve+simd/hard/libstdc++.a(tinfo.o)
 .debug_line    0x000000000000fb22      0x604 /home/olf/projects/circle/gcc-arm-9.2-2019.12-x86_64-arm-none-eabi/bin/../lib/gcc/arm-none-eabi/9.2.1/../../../../arm-none-eabi/lib/thumb/v7ve+simd/hard/libstdc++.a(vterminate.o)
 .debug_line    0x0000000000010126      0x347 /home/olf/projects/circle/gcc-arm-9.2-2019.12-x86_64-arm-none-eabi/bin/../lib/gcc/arm-none-eabi/9.2.1/../../../../arm-none-eabi/lib/thumb/v7ve+simd/hard/libstdc++.a(bad_alloc.o)
 .debug_line    0x000000000001046d      0x34b /home/olf/projects/circle/gcc-arm-9.2-2019.12-x86_64-arm-none-eabi/bin/../lib/gcc/arm-none-eabi/9.2.1/../../../../arm-none-eabi/lib/thumb/v7ve+simd/hard/libstdc++.a(bad_array_new.o)
 .debug_line    0x00000000000107b8      0x1da /home/olf/projects/circle/gcc-arm-9.2-2019.12-x86_64-arm-none-eabi/bin/../lib/gcc/arm-none-eabi/9.2.1/../../../../arm-none-eabi/lib/thumb/v7ve+simd/hard/libstdc++.a(bad_cast.o)
 .debug_line    0x0000000000010992      0x1dc /home/olf/projects/circle/gcc-arm-9.2-2019.12-x86_64-arm-none-eabi/bin/../lib/gcc/arm-none-eabi/9.2.1/../../../../arm-none-eabi/lib/thumb/v7ve+simd/hard/libstdc++.a(bad_typeid.o)
 .debug_line    0x0000000000010b6e     0x9f4b /home/olf/projects/circle/gcc-arm-9.2-2019.12-x86_64-arm-none-eabi/bin/../lib/gcc/arm-none-eabi/9.2.1/../../../../arm-none-eabi/lib/thumb/v7ve+simd/hard/libstdc++.a(cp-demangle.o)
 .debug_line    0x000000000001aab9      0x4c2 /home/olf/projects/circle/gcc-arm-9.2-2019.12-x86_64-arm-none-eabi/bin/../lib/gcc/arm-none-eabi/9.2.1/../../../../arm-none-eabi/lib/thumb/v7ve+simd/hard/libstdc++.a(del_op.o)
 .debug_line    0x000000000001af7b      0xa51 /home/olf/projects/circle/gcc-arm-9.2-2019.12-x86_64-arm-none-eabi/bin/../lib/gcc/arm-none-eabi/9.2.1/../../../../arm-none-eabi/lib/thumb/v7ve+simd/hard/libstdc++.a(eh_alloc.o)
 .debug_line    0x000000000001b9cc      0x784 /home/olf/projects/circle/gcc-arm-9.2-2019.12-x86_64-arm-none-eabi/bin/../lib/gcc/arm-none-eabi/9.2.1/../../../../arm-none-eabi/lib/thumb/v7ve+simd/hard/libstdc++.a(eh_call.o)
 .debug_line    0x000000000001c150      0x746 /home/olf/projects/circle/gcc-arm-9.2-2019.12-x86_64-arm-none-eabi/bin/../lib/gcc/arm-none-eabi/9.2.1/../../../../arm-none-eabi/lib/thumb/v7ve+simd/hard/libstdc++.a(eh_catch.o)
 .debug_line    0x000000000001c896      0x3a8 /home/olf/projects/circle/gcc-arm-9.2-2019.12-x86_64-arm-none-eabi/bin/../lib/gcc/arm-none-eabi/9.2.1/../../../../arm-none-eabi/lib/thumb/v7ve+simd/hard/libstdc++.a(eh_term_handler.o)
 .debug_line    0x000000000001cc3e      0x42f /home/olf/projects/circle/gcc-arm-9.2-2019.12-x86_64-arm-none-eabi/bin/../lib/gcc/arm-none-eabi/9.2.1/../../../../arm-none-eabi/lib/thumb/v7ve+simd/hard/libstdc++.a(eh_type.o)
 .debug_line    0x000000000001d06d      0x32e /home/olf/projects/circle/gcc-arm-9.2-2019.12-x86_64-arm-none-eabi/bin/../lib/gcc/arm-none-eabi/9.2.1/../../../../arm-none-eabi/lib/thumb/v7ve+simd/hard/libstdc++.a(new_handler.o)
 .debug_line    0x000000000001d39b       0xc4 /home/olf/projects/circle/gcc-arm-9.2-2019.12-x86_64-arm-none-eabi/bin/../lib/gcc/arm-none-eabi/9.2.1/thumb/v7ve+simd/hard/libgcc.a(_aeabi_ldivmod.o)
 .debug_line    0x000000000001d45f       0xa6 /home/olf/projects/circle/gcc-arm-9.2-2019.12-x86_64-arm-none-eabi/bin/../lib/gcc/arm-none-eabi/9.2.1/thumb/v7ve+simd/hard/libgcc.a(_aeabi_uldivmod.o)
 .debug_line    0x000000000001d505      0x756 /home/olf/projects/circle/gcc-arm-9.2-2019.12-x86_64-arm-none-eabi/bin/../lib/gcc/arm-none-eabi/9.2.1/thumb/v7ve+simd/hard/libgcc.a(_udivmoddi4.o)
 .debug_line    0x000000000001dc5b     0x1289 /home/olf/projects/circle/gcc-arm-9.2-2019.12-x86_64-arm-none-eabi/bin/../lib/gcc/arm-none-eabi/9.2.1/thumb/v7ve+simd/hard/libgcc.a(unwind-arm.o)
 .debug_line    0x000000000001eee4       0xf3 /home/olf/projects/circle/gcc-arm-9.2-2019.12-x86_64-arm-none-eabi/bin/../lib/gcc/arm-none-eabi/9.2.1/thumb/v7ve+simd/hard/libgcc.a(libunwind.o)
 .debug_line    0x000000000001efd7      0x601 /home/olf/projects/circle/gcc-arm-9.2-2019.12-x86_64-arm-none-eabi/bin/../lib/gcc/arm-none-eabi/9.2.1/thumb/v7ve+simd/hard/libgcc.a(pr-support.o)
 .debug_line    0x000000000001f5d8       0xa6 /home/olf/projects/circle/gcc-arm-9.2-2019.12-x86_64-arm-none-eabi/bin/../lib/gcc/arm-none-eabi/9.2.1/thumb/v7ve+simd/hard/libgcc.a(_dvmd_tls.o)
 .debug_line    0x000000000001f67e      0x681 ../../lib/usb/libusb.a(usbhostcontroller.o)
 .debug_line    0x000000000001fcff      0x33a ../../lib/usb/libusb.a(usbrequest.o)
 .debug_line    0x0000000000020039      0xc73 ../../lib/usb/libusb.a(usbstandardhub.o)
 .debug_line    0x0000000000020cac      0xd9a ../../lib/usb/libusb.a(usbdevice.o)
 .debug_line    0x0000000000021a46      0x33a ../../lib/usb/libusb.a(usbdevicefactory.o)
 .debug_line    0x0000000000021d80      0x3b5 ../../lib/usb/libusb.a(usbendpoint.o)
 .debug_line    0x0000000000022135      0x5c5 ../../lib/usb/libusb.a(usbfunction.o)
 .debug_line    0x00000000000226fa      0x548 ../../lib/usb/libusb.a(usbgamepadps3.o)
 .debug_line    0x0000000000022c42      0x8b4 ../../lib/usb/libusb.a(usbgamepadps4.o)
 .debug_line    0x00000000000234f6      0x737 ../../lib/usb/libusb.a(usbgamepadstandard.o)
 .debug_line    0x0000000000023c2d      0x632 ../../lib/usb/libusb.a(usbgamepadswitchpro.o)
 .debug_line    0x000000000002425f      0x4b1 ../../lib/usb/libusb.a(usbgamepadxbox360.o)
 .debug_line    0x0000000000024710      0x53c ../../lib/usb/libusb.a(usbgamepadxboxone.o)
 .debug_line    0x0000000000024c4c      0x6b7 ../../lib/usb/libusb.a(usbhiddevice.o)
 .debug_line    0x0000000000025303      0x551 ../../lib/usb/libusb.a(usbkeyboard.o)
 .debug_line    0x0000000000025854      0xa9b ../../lib/usb/libusb.a(usbmassdevice.o)
 .debug_line    0x00000000000262ef      0x6a2 ../../lib/usb/libusb.a(usbmidi.o)
 .debug_line    0x0000000000026991      0x2e9 ../../lib/usb/libusb.a(usbmouse.o)
 .debug_line    0x0000000000026c7a      0x39f ../../lib/usb/libusb.a(usbprinter.o)
 .debug_line    0x0000000000027019      0x9fe ../../lib/usb/libusb.a(lan7800.o)
 .debug_line    0x0000000000027a17      0x847 ../../lib/usb/libusb.a(smsc951x.o)
 .debug_line    0x000000000002825e      0x551 ../../lib/usb/libusb.a(usbbluetooth.o)
 .debug_line    0x00000000000287af      0x60c ../../lib/usb/libusb.a(usbcdcethernet.o)
 .debug_line    0x0000000000028dbb      0x40c ../../lib/usb/libusb.a(usbconfigparser.o)
 .debug_line    0x00000000000291c7      0x33f ../../lib/usb/libusb.a(usbgamepad.o)
 .debug_line    0x0000000000029506      0x45d ../../lib/usb/libusb.a(usbstring.o)
 .debug_line    0x0000000000029963      0x377 ../../lib/input/libinput.a(keyboardbehaviour.o)
 .debug_line    0x0000000000029cda      0x3ba ../../lib/input/libinput.a(keymap.o)
 .debug_line    0x000000000002a094      0x25b ../../lib/input/libinput.a(mouse.o)
 .debug_line    0x000000000002a2ef      0x595 ../../lib/input/libinput.a(console.o)
 .debug_line    0x000000000002a884      0x3ff ../../lib/input/libinput.a(keyboardbuffer.o)
 .debug_line    0x000000000002ac83      0x3bf ../../lib/input/libinput.a(linediscipline.o)
 .debug_line    0x000000000002b042      0x48e ../../lib/input/libinput.a(mousebehaviour.o)
 .debug_line    0x000000000002b4d0     0x6141 ../../addon/fatfs/libfatfs.a(ff.o)
 .debug_line    0x0000000000031611      0x342 ../../addon/fatfs/libfatfs.a(diskio.o)
 .debug_line    0x0000000000031953      0x3ba ../../addon/fatfs/libfatfs.a(ffsystem.o)
 .debug_line    0x0000000000031d0d      0x297 ../../addon/fatfs/libfatfs.a(ffunicode.o)
 .debug_line    0x0000000000031fa4      0x354 ../../lib/fs/libfs.a(partitionmanager.o)
 .debug_line    0x00000000000322f8      0x217 ../../lib/fs/libfs.a(partition.o)
 .debug_line    0x000000000003250f      0x6d4 ../../lib/sched/libsched.a(scheduler.o)
 .debug_line    0x0000000000032be3      0x2a3 ../../lib/sched/libsched.a(task.o)
 .debug_line    0x0000000000032e86      0x16b ../../lib/sched/libsched.a(synchronizationevent.o)
 .debug_line    0x0000000000032ff1      0x218 ../../lib/libcircle.a(alloc.o)
 .debug_line    0x0000000000033209      0x42f ../../lib/libcircle.a(classallocator.o)
 .debug_line    0x0000000000033638      0x25f ../../lib/libcircle.a(macaddress.o)
 .debug_line    0x0000000000033897      0x185 ../../lib/libcircle.a(netdevice.o)
 .debug_line    0x0000000000033a1c      0x218 ../../lib/libcircle.a(numberpool.o)
 .debug_line    0x0000000000033c34      0xee7 /home/olf/projects/circle/gcc-arm-9.2-2019.12-x86_64-arm-none-eabi/bin/../lib/gcc/arm-none-eabi/9.2.1/../../../../arm-none-eabi/lib/thumb/v7ve+simd/hard/libstdc++.a(vmi_class_type_info.o)

.debug_str      0x0000000000000000    0x1764d
 .debug_str     0x0000000000000000      0xf00 main.o
                                       0x1057 (size before relaxing)
 .debug_str     0x0000000000000f00       0xc3 kernel.o
                                       0x10f8 (size before relaxing)
 .debug_str     0x0000000000000fc3     0x1030 ../../lib/libcircle.a(actled.o)
                                       0x13b7 (size before relaxing)
 .debug_str     0x0000000000001ff3      0x172 ../../lib/libcircle.a(devicenameservice.o)
                                        0x5fe (size before relaxing)
 .debug_str     0x0000000000002165      0x8b4 ../../lib/libcircle.a(gpiopin.o)
                                       0x1bbf (size before relaxing)
 .debug_str     0x0000000000002a19      0x1f5 ../../lib/libcircle.a(koptions.o)
                                        0x8f2 (size before relaxing)
 .debug_str     0x0000000000002c0e      0x17b ../../lib/libcircle.a(machineinfo.o)
                                        0xbd2 (size before relaxing)
 .debug_str     0x0000000000002d89     0x11c5 ../../lib/libcircle.a(screen.o)
                                       0x1c63 (size before relaxing)
 .debug_str     0x0000000000003f4e      0x383 ../../lib/libcircle.a(string.o)
                                        0x69f (size before relaxing)
 .debug_str     0x00000000000042d1       0xdf ../../lib/libcircle.a(sysinit.o)
                                        0xf1b (size before relaxing)
 .debug_str     0x00000000000043b0      0x553 ../../lib/libcircle.a(timer.o)
                                       0x12d7 (size before relaxing)
 .debug_str     0x0000000000004903       0x23 ../../lib/libcircle.a(util.o)
                                        0x1a5 (size before relaxing)
 .debug_str     0x0000000000004926      0x1a8 ../../lib/libcircle.a(virtualgpiopin.o)
                                        0xccc (size before relaxing)
 .debug_str     0x0000000000004ace       0x6f ../../lib/libcircle.a(chainboot.o)
                                        0x219 (size before relaxing)
 .debug_str     0x0000000000004b3d       0xd7 ../../lib/libcircle.a(memory.o)
                                        0xad1 (size before relaxing)
 .debug_str     0x0000000000004c14       0x49 ../../lib/libcircle.a(pagetable.o)
                                        0x246 (size before relaxing)
 .debug_str     0x0000000000004c5d       0x5b ../../lib/libcircle.a(synchronize.o)
                                        0x1f2 (size before relaxing)
 .debug_str     0x0000000000004cb8       0xce ../../lib/libcircle.a(interrupt.o)
                                        0x5b5 (size before relaxing)
 .debug_str     0x0000000000004d86       0x54 ../../lib/libcircle.a(assert.o)
                                       0x1076 (size before relaxing)
 .debug_str     0x0000000000004dda       0x99 ../../lib/libcircle.a(bcmframebuffer.o)
                                        0x9fd (size before relaxing)
 .debug_str     0x0000000000004e73       0xa6 ../../lib/libcircle.a(bcmpropertytags.o)
                                        0xa5f (size before relaxing)
 .debug_str     0x0000000000004f19       0x6d ../../lib/libcircle.a(chargenerator.o)
                                        0x31b (size before relaxing)
 .debug_str     0x0000000000004f86       0x5c ../../lib/libcircle.a(debug.o)
                                       0x102c (size before relaxing)
 .debug_str     0x0000000000004fe2      0x15c ../../lib/libcircle.a(device.o)
                                        0x340 (size before relaxing)
 .debug_str     0x000000000000513e       0xd8 ../../lib/libcircle.a(dmachannel.o)
                                       0x1772 (size before relaxing)
 .debug_str     0x0000000000005216       0x5b ../../lib/libcircle.a(gpiomanager.o)
                                        0x706 (size before relaxing)
 .debug_str     0x0000000000005271       0xbd ../../lib/libcircle.a(logger.o)
                                       0x189f (size before relaxing)
 .debug_str     0x000000000000532e       0x42 ../../lib/libcircle.a(ptrlist.o)
                                        0x30f (size before relaxing)
 .debug_str     0x0000000000005370        0xf ../../lib/libcircle.a(new.o)
                                        0x7d6 (size before relaxing)
 .debug_str     0x000000000000537f       0x95 ../../lib/libcircle.a(heapallocator.o)
                                       0x127a (size before relaxing)
 .debug_str     0x0000000000005414       0x52 ../../lib/libcircle.a(pageallocator.o)
                                        0x3fe (size before relaxing)
 .debug_str     0x0000000000005466       0x6d ../../lib/libcircle.a(bcmmailbox.o)
                                        0xe18 (size before relaxing)
 .debug_str     0x00000000000054d3      0x19c ../../lib/libcircle.a(exceptionhandler.o)
                                       0x1223 (size before relaxing)
 .debug_str     0x000000000000566f      0x9c5 /home/olf/projects/circle/gcc-arm-9.2-2019.12-x86_64-arm-none-eabi/bin/../lib/gcc/arm-none-eabi/9.2.1/../../../../arm-none-eabi/lib/thumb/v7ve+simd/hard/libstdc++.a(class_type_info.o)
                                        0xa81 (size before relaxing)
 .debug_str     0x0000000000006034      0x506 /home/olf/projects/circle/gcc-arm-9.2-2019.12-x86_64-arm-none-eabi/bin/../lib/gcc/arm-none-eabi/9.2.1/../../../../arm-none-eabi/lib/thumb/v7ve+simd/hard/libstdc++.a(del_ops.o)
                                        0x6b4 (size before relaxing)
 .debug_str     0x000000000000653a      0x12d /home/olf/projects/circle/gcc-arm-9.2-2019.12-x86_64-arm-none-eabi/bin/../lib/gcc/arm-none-eabi/9.2.1/../../../../arm-none-eabi/lib/thumb/v7ve+simd/hard/libstdc++.a(del_opv.o)
                                        0x6bf (size before relaxing)
 .debug_str     0x0000000000006667      0x5f0 /home/olf/projects/circle/gcc-arm-9.2-2019.12-x86_64-arm-none-eabi/bin/../lib/gcc/arm-none-eabi/9.2.1/../../../../arm-none-eabi/lib/thumb/v7ve+simd/hard/libstdc++.a(eh_arm.o)
                                        0xc54 (size before relaxing)
 .debug_str     0x0000000000006c57      0x6b1 /home/olf/projects/circle/gcc-arm-9.2-2019.12-x86_64-arm-none-eabi/bin/../lib/gcc/arm-none-eabi/9.2.1/../../../../arm-none-eabi/lib/thumb/v7ve+simd/hard/libstdc++.a(eh_aux_runtime.o)
                                        0xe0d (size before relaxing)
 .debug_str     0x0000000000007308      0x459 /home/olf/projects/circle/gcc-arm-9.2-2019.12-x86_64-arm-none-eabi/bin/../lib/gcc/arm-none-eabi/9.2.1/../../../../arm-none-eabi/lib/thumb/v7ve+simd/hard/libstdc++.a(eh_exception.o)
                                        0xa4c (size before relaxing)
 .debug_str     0x0000000000007761      0x14a /home/olf/projects/circle/gcc-arm-9.2-2019.12-x86_64-arm-none-eabi/bin/../lib/gcc/arm-none-eabi/9.2.1/../../../../arm-none-eabi/lib/thumb/v7ve+simd/hard/libstdc++.a(eh_globals.o)
                                        0xf2e (size before relaxing)
 .debug_str     0x00000000000078ab      0x6db /home/olf/projects/circle/gcc-arm-9.2-2019.12-x86_64-arm-none-eabi/bin/../lib/gcc/arm-none-eabi/9.2.1/../../../../arm-none-eabi/lib/thumb/v7ve+simd/hard/libstdc++.a(eh_personality.o)
                                       0x161e (size before relaxing)
 .debug_str     0x0000000000007f86      0x255 /home/olf/projects/circle/gcc-arm-9.2-2019.12-x86_64-arm-none-eabi/bin/../lib/gcc/arm-none-eabi/9.2.1/../../../../arm-none-eabi/lib/thumb/v7ve+simd/hard/libstdc++.a(eh_terminate.o)
                                        0xe25 (size before relaxing)
 .debug_str     0x00000000000081db      0x273 /home/olf/projects/circle/gcc-arm-9.2-2019.12-x86_64-arm-none-eabi/bin/../lib/gcc/arm-none-eabi/9.2.1/../../../../arm-none-eabi/lib/thumb/v7ve+simd/hard/libstdc++.a(eh_throw.o)
                                        0xc58 (size before relaxing)
 .debug_str     0x000000000000844e      0x13d /home/olf/projects/circle/gcc-arm-9.2-2019.12-x86_64-arm-none-eabi/bin/../lib/gcc/arm-none-eabi/9.2.1/../../../../arm-none-eabi/lib/thumb/v7ve+simd/hard/libstdc++.a(eh_unex_handler.o)
                                        0x77c (size before relaxing)
 .debug_str     0x000000000000858b      0x152 /home/olf/projects/circle/gcc-arm-9.2-2019.12-x86_64-arm-none-eabi/bin/../lib/gcc/arm-none-eabi/9.2.1/../../../../arm-none-eabi/lib/thumb/v7ve+simd/hard/libstdc++.a(new_op.o)
                                        0xc78 (size before relaxing)
 .debug_str     0x00000000000086dd      0x12d /home/olf/projects/circle/gcc-arm-9.2-2019.12-x86_64-arm-none-eabi/bin/../lib/gcc/arm-none-eabi/9.2.1/../../../../arm-none-eabi/lib/thumb/v7ve+simd/hard/libstdc++.a(new_opv.o)
                                        0x6be (size before relaxing)
 .debug_str     0x000000000000880a      0x176 /home/olf/projects/circle/gcc-arm-9.2-2019.12-x86_64-arm-none-eabi/bin/../lib/gcc/arm-none-eabi/9.2.1/../../../../arm-none-eabi/lib/thumb/v7ve+simd/hard/libstdc++.a(pure.o)
                                        0x7dc (size before relaxing)
 .debug_str     0x0000000000008980      0x3db /home/olf/projects/circle/gcc-arm-9.2-2019.12-x86_64-arm-none-eabi/bin/../lib/gcc/arm-none-eabi/9.2.1/../../../../arm-none-eabi/lib/thumb/v7ve+simd/hard/libstdc++.a(si_class_type_info.o)
                                        0x907 (size before relaxing)
 .debug_str     0x0000000000008d5b      0x333 /home/olf/projects/circle/gcc-arm-9.2-2019.12-x86_64-arm-none-eabi/bin/../lib/gcc/arm-none-eabi/9.2.1/../../../../arm-none-eabi/lib/thumb/v7ve+simd/hard/libstdc++.a(tinfo.o)
                                        0x5ba (size before relaxing)
 .debug_str     0x000000000000908e      0x275 /home/olf/projects/circle/gcc-arm-9.2-2019.12-x86_64-arm-none-eabi/bin/../lib/gcc/arm-none-eabi/9.2.1/../../../../arm-none-eabi/lib/thumb/v7ve+simd/hard/libstdc++.a(vterminate.o)
                                        0xdb0 (size before relaxing)
 .debug_str     0x0000000000009303      0x1be /home/olf/projects/circle/gcc-arm-9.2-2019.12-x86_64-arm-none-eabi/bin/../lib/gcc/arm-none-eabi/9.2.1/../../../../arm-none-eabi/lib/thumb/v7ve+simd/hard/libstdc++.a(bad_alloc.o)
                                        0x773 (size before relaxing)
 .debug_str     0x00000000000094c1      0x1d3 /home/olf/projects/circle/gcc-arm-9.2-2019.12-x86_64-arm-none-eabi/bin/../lib/gcc/arm-none-eabi/9.2.1/../../../../arm-none-eabi/lib/thumb/v7ve+simd/hard/libstdc++.a(bad_array_new.o)
                                        0x7a9 (size before relaxing)
 .debug_str     0x0000000000009694      0x189 /home/olf/projects/circle/gcc-arm-9.2-2019.12-x86_64-arm-none-eabi/bin/../lib/gcc/arm-none-eabi/9.2.1/../../../../arm-none-eabi/lib/thumb/v7ve+simd/hard/libstdc++.a(bad_cast.o)
                                        0x299 (size before relaxing)
 .debug_str     0x000000000000981d      0x19b /home/olf/projects/circle/gcc-arm-9.2-2019.12-x86_64-arm-none-eabi/bin/../lib/gcc/arm-none-eabi/9.2.1/../../../../arm-none-eabi/lib/thumb/v7ve+simd/hard/libstdc++.a(bad_typeid.o)
                                        0x2b0 (size before relaxing)
 .debug_str     0x00000000000099b8     0x19d6 /home/olf/projects/circle/gcc-arm-9.2-2019.12-x86_64-arm-none-eabi/bin/../lib/gcc/arm-none-eabi/9.2.1/../../../../arm-none-eabi/lib/thumb/v7ve+simd/hard/libstdc++.a(cp-demangle.o)
                                       0x20d9 (size before relaxing)
 .debug_str     0x000000000000b38e      0x12b /home/olf/projects/circle/gcc-arm-9.2-2019.12-x86_64-arm-none-eabi/bin/../lib/gcc/arm-none-eabi/9.2.1/../../../../arm-none-eabi/lib/thumb/v7ve+simd/hard/libstdc++.a(del_op.o)
                                        0xbb1 (size before relaxing)
 .debug_str     0x000000000000b4b9      0x49d /home/olf/projects/circle/gcc-arm-9.2-2019.12-x86_64-arm-none-eabi/bin/../lib/gcc/arm-none-eabi/9.2.1/../../../../arm-none-eabi/lib/thumb/v7ve+simd/hard/libstdc++.a(eh_alloc.o)
                                       0x1377 (size before relaxing)
 .debug_str     0x000000000000b956      0x207 /home/olf/projects/circle/gcc-arm-9.2-2019.12-x86_64-arm-none-eabi/bin/../lib/gcc/arm-none-eabi/9.2.1/../../../../arm-none-eabi/lib/thumb/v7ve+simd/hard/libstdc++.a(eh_call.o)
                                       0x130b (size before relaxing)
 .debug_str     0x000000000000bb5d      0x1fd /home/olf/projects/circle/gcc-arm-9.2-2019.12-x86_64-arm-none-eabi/bin/../lib/gcc/arm-none-eabi/9.2.1/../../../../arm-none-eabi/lib/thumb/v7ve+simd/hard/libstdc++.a(eh_catch.o)
                                       0x1081 (size before relaxing)
 .debug_str     0x000000000000bd5a      0x13d /home/olf/projects/circle/gcc-arm-9.2-2019.12-x86_64-arm-none-eabi/bin/../lib/gcc/arm-none-eabi/9.2.1/../../../../arm-none-eabi/lib/thumb/v7ve+simd/hard/libstdc++.a(eh_term_handler.o)
                                        0x77c (size before relaxing)
 .debug_str     0x000000000000be97      0x12d /home/olf/projects/circle/gcc-arm-9.2-2019.12-x86_64-arm-none-eabi/bin/../lib/gcc/arm-none-eabi/9.2.1/../../../../arm-none-eabi/lib/thumb/v7ve+simd/hard/libstdc++.a(eh_type.o)
                                        0xab9 (size before relaxing)
 .debug_str     0x000000000000bfc4      0x17b /home/olf/projects/circle/gcc-arm-9.2-2019.12-x86_64-arm-none-eabi/bin/../lib/gcc/arm-none-eabi/9.2.1/../../../../arm-none-eabi/lib/thumb/v7ve+simd/hard/libstdc++.a(new_handler.o)
                                        0x717 (size before relaxing)
 .debug_str     0x000000000000c13f      0x117 /home/olf/projects/circle/gcc-arm-9.2-2019.12-x86_64-arm-none-eabi/bin/../lib/gcc/arm-none-eabi/9.2.1/thumb/v7ve+simd/hard/libgcc.a(_aeabi_ldivmod.o)
 .debug_str     0x000000000000c256      0x117 /home/olf/projects/circle/gcc-arm-9.2-2019.12-x86_64-arm-none-eabi/bin/../lib/gcc/arm-none-eabi/9.2.1/thumb/v7ve+simd/hard/libgcc.a(_aeabi_uldivmod.o)
 .debug_str     0x000000000000c256     0x111a /home/olf/projects/circle/gcc-arm-9.2-2019.12-x86_64-arm-none-eabi/bin/../lib/gcc/arm-none-eabi/9.2.1/thumb/v7ve+simd/hard/libgcc.a(_udivmoddi4.o)
                                       0x1250 (size before relaxing)
 .debug_str     0x000000000000d370      0x62c /home/olf/projects/circle/gcc-arm-9.2-2019.12-x86_64-arm-none-eabi/bin/../lib/gcc/arm-none-eabi/9.2.1/thumb/v7ve+simd/hard/libgcc.a(unwind-arm.o)
                                        0xd25 (size before relaxing)
 .debug_str     0x000000000000d99c       0x76 /home/olf/projects/circle/gcc-arm-9.2-2019.12-x86_64-arm-none-eabi/bin/../lib/gcc/arm-none-eabi/9.2.1/thumb/v7ve+simd/hard/libgcc.a(libunwind.o)
                                        0x11b (size before relaxing)
 .debug_str     0x000000000000da12       0xa7 /home/olf/projects/circle/gcc-arm-9.2-2019.12-x86_64-arm-none-eabi/bin/../lib/gcc/arm-none-eabi/9.2.1/thumb/v7ve+simd/hard/libgcc.a(pr-support.o)
                                        0x5ef (size before relaxing)
 .debug_str     0x000000000000dab9       0x76 /home/olf/projects/circle/gcc-arm-9.2-2019.12-x86_64-arm-none-eabi/bin/../lib/gcc/arm-none-eabi/9.2.1/thumb/v7ve+simd/hard/libgcc.a(_dvmd_tls.o)
                                        0x11b (size before relaxing)
 .debug_str     0x000000000000db2f     0x104b ../../lib/usb/libusb.a(usbhostcontroller.o)
                                       0x1e5f (size before relaxing)
 .debug_str     0x000000000000eb7a       0x77 ../../lib/usb/libusb.a(usbrequest.o)
                                        0xdcc (size before relaxing)
 .debug_str     0x000000000000ebf1      0x716 ../../lib/usb/libusb.a(usbstandardhub.o)
                                       0x2a9b (size before relaxing)
 .debug_str     0x000000000000f307      0xaa9 ../../lib/usb/libusb.a(usbdevice.o)
                                       0x2508 (size before relaxing)
 .debug_str     0x000000000000fdb0      0x105 ../../lib/usb/libusb.a(usbdevicefactory.o)
                                        0x456 (size before relaxing)
 .debug_str     0x000000000000feb5       0xab ../../lib/usb/libusb.a(usbendpoint.o)
                                        0x65c (size before relaxing)
 .debug_str     0x000000000000ff60      0x2e3 ../../lib/usb/libusb.a(usbfunction.o)
                                       0x1d2d (size before relaxing)
 .debug_str     0x0000000000010243      0x72e ../../lib/usb/libusb.a(usbgamepadps3.o)
                                       0x190b (size before relaxing)
 .debug_str     0x0000000000010971      0x6e0 ../../lib/usb/libusb.a(usbgamepadps4.o)
                                       0x1c28 (size before relaxing)
 .debug_str     0x0000000000011051      0x344 ../../lib/usb/libusb.a(usbgamepadstandard.o)
                                       0x17c7 (size before relaxing)
 .debug_str     0x0000000000011395      0x315 ../../lib/usb/libusb.a(usbgamepadswitchpro.o)
                                       0x19cc (size before relaxing)
 .debug_str     0x00000000000116aa      0x283 ../../lib/usb/libusb.a(usbgamepadxbox360.o)
                                       0x18ba (size before relaxing)
 .debug_str     0x000000000001192d      0x32b ../../lib/usb/libusb.a(usbgamepadxboxone.o)
                                       0x195d (size before relaxing)
 .debug_str     0x0000000000011c58      0x328 ../../lib/usb/libusb.a(usbhiddevice.o)
                                       0x2048 (size before relaxing)
 .debug_str     0x0000000000011f80      0x837 ../../lib/usb/libusb.a(usbkeyboard.o)
                                       0x1dc3 (size before relaxing)
 .debug_str     0x00000000000127b7      0x81c ../../lib/usb/libusb.a(usbmassdevice.o)
                                       0x237a (size before relaxing)
 .debug_str     0x0000000000012fd3      0x2cf ../../lib/usb/libusb.a(usbmidi.o)
                                       0x2435 (size before relaxing)
 .debug_str     0x00000000000132a2      0x137 ../../lib/usb/libusb.a(usbmouse.o)
                                       0x1418 (size before relaxing)
 .debug_str     0x00000000000133d9      0x1e9 ../../lib/usb/libusb.a(usbprinter.o)
                                       0x1b3b (size before relaxing)
 .debug_str     0x00000000000135c2      0x87b ../../lib/usb/libusb.a(lan7800.o)
                                       0x2808 (size before relaxing)
 .debug_str     0x0000000000013e3d      0x30e ../../lib/usb/libusb.a(smsc951x.o)
                                       0x27b7 (size before relaxing)
 .debug_str     0x000000000001414b      0x2db ../../lib/usb/libusb.a(usbbluetooth.o)
                                       0x2322 (size before relaxing)
 .debug_str     0x0000000000014426      0x3af ../../lib/usb/libusb.a(usbcdcethernet.o)
                                       0x261b (size before relaxing)
 .debug_str     0x00000000000147d5       0xf1 ../../lib/usb/libusb.a(usbconfigparser.o)
                                       0x1506 (size before relaxing)
 .debug_str     0x00000000000148c6      0x2bb ../../lib/usb/libusb.a(usbgamepad.o)
                                       0x1975 (size before relaxing)
 .debug_str     0x0000000000014b81       0x90 ../../lib/usb/libusb.a(usbstring.o)
                                        0x4d9 (size before relaxing)
 .debug_str     0x0000000000014c11      0x2cd ../../lib/input/libinput.a(keyboardbehaviour.o)
                                       0x1398 (size before relaxing)
 .debug_str     0x0000000000014ede      0x2b5 ../../lib/input/libinput.a(keymap.o)
                                        0xbe3 (size before relaxing)
 .debug_str     0x0000000000015193      0x435 ../../lib/input/libinput.a(mouse.o)
                                        0xb34 (size before relaxing)
 .debug_str     0x00000000000155c8      0x2fb ../../lib/input/libinput.a(console.o)
                                       0x1631 (size before relaxing)
 .debug_str     0x00000000000158c3      0x20a ../../lib/input/libinput.a(keyboardbuffer.o)
                                        0x5ee (size before relaxing)
 .debug_str     0x0000000000015acd      0x19a ../../lib/input/libinput.a(linediscipline.o)
                                        0x442 (size before relaxing)
 .debug_str     0x0000000000015c67       0xe0 ../../lib/input/libinput.a(mousebehaviour.o)
                                        0x80e (size before relaxing)
 .debug_str     0x0000000000015d47      0x7a8 ../../addon/fatfs/libfatfs.a(ff.o)
                                        0x8b6 (size before relaxing)
 .debug_str     0x00000000000164ef       0x5a ../../addon/fatfs/libfatfs.a(diskio.o)
                                        0x58b (size before relaxing)
 .debug_str     0x0000000000016549       0x36 ../../addon/fatfs/libfatfs.a(ffsystem.o)
                                        0xd72 (size before relaxing)
 .debug_str     0x000000000001657f       0x1c ../../addon/fatfs/libfatfs.a(ffunicode.o)
                                        0x1bc (size before relaxing)
 .debug_str     0x000000000001659b      0x148 ../../lib/fs/libfs.a(partitionmanager.o)
                                       0x1474 (size before relaxing)
 .debug_str     0x00000000000166e3      0x142 ../../lib/fs/libfs.a(partition.o)
                                        0x37d (size before relaxing)
 .debug_str     0x0000000000016825      0x4f6 ../../lib/sched/libsched.a(scheduler.o)
                                       0x1540 (size before relaxing)
 .debug_str     0x0000000000016d1b      0x2a2 ../../lib/sched/libsched.a(task.o)
                                        0x94a (size before relaxing)
 .debug_str     0x0000000000016fbd       0x57 ../../lib/sched/libsched.a(synchronizationevent.o)
                                        0x61e (size before relaxing)
 .debug_str     0x0000000000017014       0x26 ../../lib/libcircle.a(alloc.o)
                                        0x80c (size before relaxing)
 .debug_str     0x000000000001703a       0x76 ../../lib/libcircle.a(classallocator.o)
                                       0x11fe (size before relaxing)
 .debug_str     0x00000000000170b0       0x63 ../../lib/libcircle.a(macaddress.o)
                                        0x3ca (size before relaxing)
 .debug_str     0x0000000000017113       0x6b ../../lib/libcircle.a(netdevice.o)
                                        0x744 (size before relaxing)
 .debug_str     0x000000000001717e       0x4f ../../lib/libcircle.a(numberpool.o)
                                       0x10db (size before relaxing)
 .debug_str     0x00000000000171cd      0x480 /home/olf/projects/circle/gcc-arm-9.2-2019.12-x86_64-arm-none-eabi/bin/../lib/gcc/arm-none-eabi/9.2.1/../../../../arm-none-eabi/lib/thumb/v7ve+simd/hard/libstdc++.a(vmi_class_type_info.o)
                                        0xbac (size before relaxing)

.comment        0x0000000000000000       0x5a
 .comment       0x0000000000000000       0x5a main.o
                                         0x5b (size before relaxing)
 .comment       0x000000000000005a       0x5b kernel.o
 .comment       0x000000000000005a       0x5b ../../lib/libcircle.a(actled.o)
 .comment       0x000000000000005a       0x5b ../../lib/libcircle.a(devicenameservice.o)
 .comment       0x000000000000005a       0x5b ../../lib/libcircle.a(gpiopin.o)
 .comment       0x000000000000005a       0x5b ../../lib/libcircle.a(koptions.o)
 .comment       0x000000000000005a       0x5b ../../lib/libcircle.a(machineinfo.o)
 .comment       0x000000000000005a       0x5b ../../lib/libcircle.a(screen.o)
 .comment       0x000000000000005a       0x5b ../../lib/libcircle.a(string.o)
 .comment       0x000000000000005a       0x5b ../../lib/libcircle.a(sysinit.o)
 .comment       0x000000000000005a       0x5b ../../lib/libcircle.a(timer.o)
 .comment       0x000000000000005a       0x5b ../../lib/libcircle.a(util.o)
 .comment       0x000000000000005a       0x5b ../../lib/libcircle.a(virtualgpiopin.o)
 .comment       0x000000000000005a       0x5b ../../lib/libcircle.a(chainboot.o)
 .comment       0x000000000000005a       0x5b ../../lib/libcircle.a(memory.o)
 .comment       0x000000000000005a       0x5b ../../lib/libcircle.a(pagetable.o)
 .comment       0x000000000000005a       0x5b ../../lib/libcircle.a(synchronize.o)
 .comment       0x000000000000005a       0x5b ../../lib/libcircle.a(interrupt.o)
 .comment       0x000000000000005a       0x5b ../../lib/libcircle.a(assert.o)
 .comment       0x000000000000005a       0x5b ../../lib/libcircle.a(bcmframebuffer.o)
 .comment       0x000000000000005a       0x5b ../../lib/libcircle.a(bcmpropertytags.o)
 .comment       0x000000000000005a       0x5b ../../lib/libcircle.a(chargenerator.o)
 .comment       0x000000000000005a       0x5b ../../lib/libcircle.a(debug.o)
 .comment       0x000000000000005a       0x5b ../../lib/libcircle.a(device.o)
 .comment       0x000000000000005a       0x5b ../../lib/libcircle.a(dmachannel.o)
 .comment       0x000000000000005a       0x5b ../../lib/libcircle.a(gpiomanager.o)
 .comment       0x000000000000005a       0x5b ../../lib/libcircle.a(logger.o)
 .comment       0x000000000000005a       0x5b ../../lib/libcircle.a(ptrlist.o)
 .comment       0x000000000000005a       0x5b ../../lib/libcircle.a(new.o)
 .comment       0x000000000000005a       0x5b ../../lib/libcircle.a(heapallocator.o)
 .comment       0x000000000000005a       0x5b ../../lib/libcircle.a(pageallocator.o)
 .comment       0x000000000000005a       0x5b ../../lib/libcircle.a(bcmmailbox.o)
 .comment       0x000000000000005a       0x5b ../../lib/libcircle.a(exceptionhandler.o)
 .comment       0x000000000000005a       0x5b /home/olf/projects/circle/gcc-arm-9.2-2019.12-x86_64-arm-none-eabi/bin/../lib/gcc/arm-none-eabi/9.2.1/../../../../arm-none-eabi/lib/thumb/v7ve+simd/hard/libstdc++.a(class_type_info.o)
 .comment       0x000000000000005a       0x5b /home/olf/projects/circle/gcc-arm-9.2-2019.12-x86_64-arm-none-eabi/bin/../lib/gcc/arm-none-eabi/9.2.1/../../../../arm-none-eabi/lib/thumb/v7ve+simd/hard/libstdc++.a(del_ops.o)
 .comment       0x000000000000005a       0x5b /home/olf/projects/circle/gcc-arm-9.2-2019.12-x86_64-arm-none-eabi/bin/../lib/gcc/arm-none-eabi/9.2.1/../../../../arm-none-eabi/lib/thumb/v7ve+simd/hard/libstdc++.a(del_opv.o)
 .comment       0x000000000000005a       0x5b /home/olf/projects/circle/gcc-arm-9.2-2019.12-x86_64-arm-none-eabi/bin/../lib/gcc/arm-none-eabi/9.2.1/../../../../arm-none-eabi/lib/thumb/v7ve+simd/hard/libstdc++.a(eh_arm.o)
 .comment       0x000000000000005a       0x5b /home/olf/projects/circle/gcc-arm-9.2-2019.12-x86_64-arm-none-eabi/bin/../lib/gcc/arm-none-eabi/9.2.1/../../../../arm-none-eabi/lib/thumb/v7ve+simd/hard/libstdc++.a(eh_aux_runtime.o)
 .comment       0x000000000000005a       0x5b /home/olf/projects/circle/gcc-arm-9.2-2019.12-x86_64-arm-none-eabi/bin/../lib/gcc/arm-none-eabi/9.2.1/../../../../arm-none-eabi/lib/thumb/v7ve+simd/hard/libstdc++.a(eh_exception.o)
 .comment       0x000000000000005a       0x5b /home/olf/projects/circle/gcc-arm-9.2-2019.12-x86_64-arm-none-eabi/bin/../lib/gcc/arm-none-eabi/9.2.1/../../../../arm-none-eabi/lib/thumb/v7ve+simd/hard/libstdc++.a(eh_globals.o)
 .comment       0x000000000000005a       0x5b /home/olf/projects/circle/gcc-arm-9.2-2019.12-x86_64-arm-none-eabi/bin/../lib/gcc/arm-none-eabi/9.2.1/../../../../arm-none-eabi/lib/thumb/v7ve+simd/hard/libstdc++.a(eh_personality.o)
 .comment       0x000000000000005a       0x5b /home/olf/projects/circle/gcc-arm-9.2-2019.12-x86_64-arm-none-eabi/bin/../lib/gcc/arm-none-eabi/9.2.1/../../../../arm-none-eabi/lib/thumb/v7ve+simd/hard/libstdc++.a(eh_terminate.o)
 .comment       0x000000000000005a       0x5b /home/olf/projects/circle/gcc-arm-9.2-2019.12-x86_64-arm-none-eabi/bin/../lib/gcc/arm-none-eabi/9.2.1/../../../../arm-none-eabi/lib/thumb/v7ve+simd/hard/libstdc++.a(eh_throw.o)
 .comment       0x000000000000005a       0x5b /home/olf/projects/circle/gcc-arm-9.2-2019.12-x86_64-arm-none-eabi/bin/../lib/gcc/arm-none-eabi/9.2.1/../../../../arm-none-eabi/lib/thumb/v7ve+simd/hard/libstdc++.a(eh_unex_handler.o)
 .comment       0x000000000000005a       0x5b /home/olf/projects/circle/gcc-arm-9.2-2019.12-x86_64-arm-none-eabi/bin/../lib/gcc/arm-none-eabi/9.2.1/../../../../arm-none-eabi/lib/thumb/v7ve+simd/hard/libstdc++.a(new_op.o)
 .comment       0x000000000000005a       0x5b /home/olf/projects/circle/gcc-arm-9.2-2019.12-x86_64-arm-none-eabi/bin/../lib/gcc/arm-none-eabi/9.2.1/../../../../arm-none-eabi/lib/thumb/v7ve+simd/hard/libstdc++.a(new_opv.o)
 .comment       0x000000000000005a       0x5b /home/olf/projects/circle/gcc-arm-9.2-2019.12-x86_64-arm-none-eabi/bin/../lib/gcc/arm-none-eabi/9.2.1/../../../../arm-none-eabi/lib/thumb/v7ve+simd/hard/libstdc++.a(pure.o)
 .comment       0x000000000000005a       0x5b /home/olf/projects/circle/gcc-arm-9.2-2019.12-x86_64-arm-none-eabi/bin/../lib/gcc/arm-none-eabi/9.2.1/../../../../arm-none-eabi/lib/thumb/v7ve+simd/hard/libstdc++.a(si_class_type_info.o)
 .comment       0x000000000000005a       0x5b /home/olf/projects/circle/gcc-arm-9.2-2019.12-x86_64-arm-none-eabi/bin/../lib/gcc/arm-none-eabi/9.2.1/../../../../arm-none-eabi/lib/thumb/v7ve+simd/hard/libstdc++.a(tinfo.o)
 .comment       0x000000000000005a       0x5b /home/olf/projects/circle/gcc-arm-9.2-2019.12-x86_64-arm-none-eabi/bin/../lib/gcc/arm-none-eabi/9.2.1/../../../../arm-none-eabi/lib/thumb/v7ve+simd/hard/libstdc++.a(vterminate.o)
 .comment       0x000000000000005a       0x5b /home/olf/projects/circle/gcc-arm-9.2-2019.12-x86_64-arm-none-eabi/bin/../lib/gcc/arm-none-eabi/9.2.1/../../../../arm-none-eabi/lib/thumb/v7ve+simd/hard/libstdc++.a(bad_alloc.o)
 .comment       0x000000000000005a       0x5b /home/olf/projects/circle/gcc-arm-9.2-2019.12-x86_64-arm-none-eabi/bin/../lib/gcc/arm-none-eabi/9.2.1/../../../../arm-none-eabi/lib/thumb/v7ve+simd/hard/libstdc++.a(bad_array_new.o)
 .comment       0x000000000000005a       0x5b /home/olf/projects/circle/gcc-arm-9.2-2019.12-x86_64-arm-none-eabi/bin/../lib/gcc/arm-none-eabi/9.2.1/../../../../arm-none-eabi/lib/thumb/v7ve+simd/hard/libstdc++.a(bad_cast.o)
 .comment       0x000000000000005a       0x5b /home/olf/projects/circle/gcc-arm-9.2-2019.12-x86_64-arm-none-eabi/bin/../lib/gcc/arm-none-eabi/9.2.1/../../../../arm-none-eabi/lib/thumb/v7ve+simd/hard/libstdc++.a(bad_typeid.o)
 .comment       0x000000000000005a       0x5b /home/olf/projects/circle/gcc-arm-9.2-2019.12-x86_64-arm-none-eabi/bin/../lib/gcc/arm-none-eabi/9.2.1/../../../../arm-none-eabi/lib/thumb/v7ve+simd/hard/libstdc++.a(cp-demangle.o)
 .comment       0x000000000000005a       0x5b /home/olf/projects/circle/gcc-arm-9.2-2019.12-x86_64-arm-none-eabi/bin/../lib/gcc/arm-none-eabi/9.2.1/../../../../arm-none-eabi/lib/thumb/v7ve+simd/hard/libstdc++.a(del_op.o)
 .comment       0x000000000000005a       0x5b /home/olf/projects/circle/gcc-arm-9.2-2019.12-x86_64-arm-none-eabi/bin/../lib/gcc/arm-none-eabi/9.2.1/../../../../arm-none-eabi/lib/thumb/v7ve+simd/hard/libstdc++.a(eh_alloc.o)
 .comment       0x000000000000005a       0x5b /home/olf/projects/circle/gcc-arm-9.2-2019.12-x86_64-arm-none-eabi/bin/../lib/gcc/arm-none-eabi/9.2.1/../../../../arm-none-eabi/lib/thumb/v7ve+simd/hard/libstdc++.a(eh_call.o)
 .comment       0x000000000000005a       0x5b /home/olf/projects/circle/gcc-arm-9.2-2019.12-x86_64-arm-none-eabi/bin/../lib/gcc/arm-none-eabi/9.2.1/../../../../arm-none-eabi/lib/thumb/v7ve+simd/hard/libstdc++.a(eh_catch.o)
 .comment       0x000000000000005a       0x5b /home/olf/projects/circle/gcc-arm-9.2-2019.12-x86_64-arm-none-eabi/bin/../lib/gcc/arm-none-eabi/9.2.1/../../../../arm-none-eabi/lib/thumb/v7ve+simd/hard/libstdc++.a(eh_term_handler.o)
 .comment       0x000000000000005a       0x5b /home/olf/projects/circle/gcc-arm-9.2-2019.12-x86_64-arm-none-eabi/bin/../lib/gcc/arm-none-eabi/9.2.1/../../../../arm-none-eabi/lib/thumb/v7ve+simd/hard/libstdc++.a(eh_type.o)
 .comment       0x000000000000005a       0x5b /home/olf/projects/circle/gcc-arm-9.2-2019.12-x86_64-arm-none-eabi/bin/../lib/gcc/arm-none-eabi/9.2.1/../../../../arm-none-eabi/lib/thumb/v7ve+simd/hard/libstdc++.a(new_handler.o)
 .comment       0x000000000000005a       0x5b /home/olf/projects/circle/gcc-arm-9.2-2019.12-x86_64-arm-none-eabi/bin/../lib/gcc/arm-none-eabi/9.2.1/thumb/v7ve+simd/hard/libgcc.a(_udivmoddi4.o)
 .comment       0x000000000000005a       0x5b /home/olf/projects/circle/gcc-arm-9.2-2019.12-x86_64-arm-none-eabi/bin/../lib/gcc/arm-none-eabi/9.2.1/thumb/v7ve+simd/hard/libgcc.a(unwind-arm.o)
 .comment       0x000000000000005a       0x5b /home/olf/projects/circle/gcc-arm-9.2-2019.12-x86_64-arm-none-eabi/bin/../lib/gcc/arm-none-eabi/9.2.1/thumb/v7ve+simd/hard/libgcc.a(pr-support.o)
 .comment       0x000000000000005a       0x5b ../../../../install/arm-none-circle/lib/libc.a(lib_a-abort.o)
 .comment       0x000000000000005a       0x5b ../../../../install/arm-none-circle/lib/libc.a(lib_a-fputc.o)
 .comment       0x000000000000005a       0x5b ../../../../install/arm-none-circle/lib/libc.a(lib_a-fputs.o)
 .comment       0x000000000000005a       0x5b ../../../../install/arm-none-circle/lib/libc.a(lib_a-fvwrite.o)
 .comment       0x000000000000005a       0x5b ../../../../install/arm-none-circle/lib/libc.a(lib_a-fwrite.o)
 .comment       0x000000000000005a       0x5b ../../../../install/arm-none-circle/lib/libc.a(lib_a-impure.o)
 .comment       0x000000000000005a       0x5b ../../../../install/arm-none-circle/lib/libc.a(lib_a-memcmp.o)
 .comment       0x000000000000005a       0x5b ../../../../install/arm-none-circle/lib/libc.a(lib_a-memmove.o)
 .comment       0x000000000000005a       0x5b ../../../../install/arm-none-circle/lib/libc.a(lib_a-putc.o)
 .comment       0x000000000000005a       0x5b ../../../../install/arm-none-circle/lib/libc.a(lib_a-signal.o)
 .comment       0x000000000000005a       0x5b ../../../../install/arm-none-circle/lib/libc.a(lib_a-signalr.o)
 .comment       0x000000000000005a       0x5b ../../../../install/arm-none-circle/lib/libc.a(lib_a-sprintf.o)
 .comment       0x000000000000005a       0x5b ../../../../install/arm-none-circle/lib/libc.a(lib_a-strcat.o)
 .comment       0x000000000000005a       0x5b ../../../../install/arm-none-circle/lib/libc.a(lib_a-strchr.o)
 .comment       0x000000000000005a       0x5b ../../../../install/arm-none-circle/lib/libc.a(lib_a-strcpy.o)
 .comment       0x000000000000005a       0x5b ../../../../install/arm-none-circle/lib/libc.a(lib_a-strncmp.o)
 .comment       0x000000000000005a       0x5b ../../../../install/arm-none-circle/lib/libc.a(lib_a-strncpy.o)
 .comment       0x000000000000005a       0x5b ../../../../install/arm-none-circle/lib/libc.a(lib_a-svfprintf.o)
 .comment       0x000000000000005a       0x5b ../../../../install/arm-none-circle/lib/libc.a(lib_a-syswrite.o)
 .comment       0x000000000000005a       0x5b ../../../../install/arm-none-circle/lib/libc.a(lib_a-wbuf.o)
 .comment       0x000000000000005a       0x5b ../../../../install/arm-none-circle/lib/libc.a(lib_a-writer.o)
 .comment       0x000000000000005a       0x5b ../../../../install/arm-none-circle/lib/libc.a(lib_a-wsetup.o)
 .comment       0x000000000000005a       0x5b ../../../../install/arm-none-circle/lib/libc.a(lib_a-dtoa.o)
 .comment       0x000000000000005a       0x5b ../../../../install/arm-none-circle/lib/libc.a(lib_a-fflush.o)
 .comment       0x000000000000005a       0x5b ../../../../install/arm-none-circle/lib/libc.a(lib_a-findfp.o)
 .comment       0x000000000000005a       0x5b ../../../../install/arm-none-circle/lib/libc.a(lib_a-fwalk.o)
 .comment       0x000000000000005a       0x5b ../../../../install/arm-none-circle/lib/libc.a(lib_a-localeconv.o)
 .comment       0x000000000000005a       0x5b ../../../../install/arm-none-circle/lib/libc.a(lib_a-locale.o)
 .comment       0x000000000000005a       0x5b ../../../../install/arm-none-circle/lib/libc.a(lib_a-makebuf.o)
 .comment       0x000000000000005a       0x5b ../../../../install/arm-none-circle/lib/libc.a(lib_a-mbtowc_r.o)
 .comment       0x000000000000005a       0x5b ../../../../install/arm-none-circle/lib/libc.a(lib_a-mprec.o)
 .comment       0x000000000000005a       0x5b ../../../../install/arm-none-circle/lib/libc.a(lib_a-reent.o)
 .comment       0x000000000000005a       0x5b ../../../../install/arm-none-circle/lib/libc.a(lib_a-stdio.o)
 .comment       0x000000000000005a       0x5b ../../../../install/arm-none-circle/lib/libc.a(lib_a-svfiprintf.o)
 .comment       0x000000000000005a       0x5b ../../../../install/arm-none-circle/lib/libc.a(lib_a-wctomb_r.o)
 .comment       0x000000000000005a       0x5b ../../../../install/arm-none-circle/lib/libc.a(lib_a-closer.o)
 .comment       0x000000000000005a       0x5b ../../../../install/arm-none-circle/lib/libc.a(lib_a-ctype_.o)
 .comment       0x000000000000005a       0x5b ../../../../install/arm-none-circle/lib/libc.a(lib_a-fclose.o)
 .comment       0x000000000000005a       0x5b ../../../../install/arm-none-circle/lib/libc.a(lib_a-fstatr.o)
 .comment       0x000000000000005a       0x5b ../../../../install/arm-none-circle/lib/libc.a(lib_a-isattyr.o)
 .comment       0x000000000000005a       0x5b ../../../../install/arm-none-circle/lib/libc.a(lib_a-lseekr.o)
 .comment       0x000000000000005a       0x5b ../../../../install/arm-none-circle/lib/libc.a(lib_a-readr.o)
 .comment       0x000000000000005a       0x5b ../../../../install/arm-none-circle/lib/libcirclenewlib.a(fstat.o)
 .comment       0x000000000000005a       0x5b ../../../../install/arm-none-circle/lib/libcirclenewlib.a(getpid.o)
 .comment       0x000000000000005a       0x5b ../../../../install/arm-none-circle/lib/libcirclenewlib.a(io.o)
 .comment       0x000000000000005a       0x5b ../../../../install/arm-none-circle/lib/libcirclenewlib.a(isatty.o)
 .comment       0x000000000000005a       0x5b ../../../../install/arm-none-circle/lib/libcirclenewlib.a(kill.o)
 .comment       0x000000000000005a       0x5b ../../../../install/arm-none-circle/lib/libcirclenewlib.a(_exit.o)
 .comment       0x000000000000005a       0x5b ../../../../install/arm-none-circle/lib/libcirclenewlib.a(mem.o)
 .comment       0x000000000000005a       0x5b ../../lib/usb/libusb.a(usbhostcontroller.o)
 .comment       0x000000000000005a       0x5b ../../lib/usb/libusb.a(usbrequest.o)
 .comment       0x000000000000005a       0x5b ../../lib/usb/libusb.a(usbstandardhub.o)
 .comment       0x000000000000005a       0x5b ../../lib/usb/libusb.a(usbdevice.o)
 .comment       0x000000000000005a       0x5b ../../lib/usb/libusb.a(usbdevicefactory.o)
 .comment       0x000000000000005a       0x5b ../../lib/usb/libusb.a(usbendpoint.o)
 .comment       0x000000000000005a       0x5b ../../lib/usb/libusb.a(usbfunction.o)
 .comment       0x000000000000005a       0x5b ../../lib/usb/libusb.a(usbgamepadps3.o)
 .comment       0x000000000000005a       0x5b ../../lib/usb/libusb.a(usbgamepadps4.o)
 .comment       0x000000000000005a       0x5b ../../lib/usb/libusb.a(usbgamepadstandard.o)
 .comment       0x000000000000005a       0x5b ../../lib/usb/libusb.a(usbgamepadswitchpro.o)
 .comment       0x000000000000005a       0x5b ../../lib/usb/libusb.a(usbgamepadxbox360.o)
 .comment       0x000000000000005a       0x5b ../../lib/usb/libusb.a(usbgamepadxboxone.o)
 .comment       0x000000000000005a       0x5b ../../lib/usb/libusb.a(usbhiddevice.o)
 .comment       0x000000000000005a       0x5b ../../lib/usb/libusb.a(usbkeyboard.o)
 .comment       0x000000000000005a       0x5b ../../lib/usb/libusb.a(usbmassdevice.o)
 .comment       0x000000000000005a       0x5b ../../lib/usb/libusb.a(usbmidi.o)
 .comment       0x000000000000005a       0x5b ../../lib/usb/libusb.a(usbmouse.o)
 .comment       0x000000000000005a       0x5b ../../lib/usb/libusb.a(usbprinter.o)
 .comment       0x000000000000005a       0x5b ../../lib/usb/libusb.a(lan7800.o)
 .comment       0x000000000000005a       0x5b ../../lib/usb/libusb.a(smsc951x.o)
 .comment       0x000000000000005a       0x5b ../../lib/usb/libusb.a(usbbluetooth.o)
 .comment       0x000000000000005a       0x5b ../../lib/usb/libusb.a(usbcdcethernet.o)
 .comment       0x000000000000005a       0x5b ../../lib/usb/libusb.a(usbconfigparser.o)
 .comment       0x000000000000005a       0x5b ../../lib/usb/libusb.a(usbgamepad.o)
 .comment       0x000000000000005a       0x5b ../../lib/usb/libusb.a(usbstring.o)
 .comment       0x000000000000005a       0x5b ../../lib/input/libinput.a(keyboardbehaviour.o)
 .comment       0x000000000000005a       0x5b ../../lib/input/libinput.a(keymap.o)
 .comment       0x000000000000005a       0x5b ../../lib/input/libinput.a(mouse.o)
 .comment       0x000000000000005a       0x5b ../../lib/input/libinput.a(console.o)
 .comment       0x000000000000005a       0x5b ../../lib/input/libinput.a(keyboardbuffer.o)
 .comment       0x000000000000005a       0x5b ../../lib/input/libinput.a(linediscipline.o)
 .comment       0x000000000000005a       0x5b ../../lib/input/libinput.a(mousebehaviour.o)
 .comment       0x000000000000005a       0x5b ../../addon/fatfs/libfatfs.a(ff.o)
 .comment       0x000000000000005a       0x5b ../../addon/fatfs/libfatfs.a(diskio.o)
 .comment       0x000000000000005a       0x5b ../../addon/fatfs/libfatfs.a(ffsystem.o)
 .comment       0x000000000000005a       0x5b ../../addon/fatfs/libfatfs.a(ffunicode.o)
 .comment       0x000000000000005a       0x5b ../../lib/fs/libfs.a(partitionmanager.o)
 .comment       0x000000000000005a       0x5b ../../lib/fs/libfs.a(partition.o)
 .comment       0x000000000000005a       0x5b ../../lib/sched/libsched.a(scheduler.o)
 .comment       0x000000000000005a       0x5b ../../lib/sched/libsched.a(task.o)
 .comment       0x000000000000005a       0x5b ../../lib/sched/libsched.a(synchronizationevent.o)
 .comment       0x000000000000005a       0x5b ../../lib/libcircle.a(alloc.o)
 .comment       0x000000000000005a       0x5b ../../lib/libcircle.a(classallocator.o)
 .comment       0x000000000000005a       0x5b ../../lib/libcircle.a(macaddress.o)
 .comment       0x000000000000005a       0x5b ../../lib/libcircle.a(netdevice.o)
 .comment       0x000000000000005a       0x5b ../../lib/libcircle.a(numberpool.o)
 .comment       0x000000000000005a       0x5b /home/olf/projects/circle/gcc-arm-9.2-2019.12-x86_64-arm-none-eabi/bin/../lib/gcc/arm-none-eabi/9.2.1/../../../../arm-none-eabi/lib/thumb/v7ve+simd/hard/libstdc++.a(vmi_class_type_info.o)

.ARM.attributes
                0x0000000000000000       0x39
 .ARM.attributes
                0x0000000000000000       0x3b main.o
 .ARM.attributes
                0x000000000000003b       0x3b kernel.o
 .ARM.attributes
                0x0000000000000076       0x3b ../../lib/libcircle.a(actled.o)
 .ARM.attributes
                0x00000000000000b1       0x3b ../../lib/libcircle.a(devicenameservice.o)
 .ARM.attributes
                0x00000000000000ec       0x3b ../../lib/libcircle.a(gpiopin.o)
 .ARM.attributes
                0x0000000000000127       0x3b ../../lib/libcircle.a(koptions.o)
 .ARM.attributes
                0x0000000000000162       0x3b ../../lib/libcircle.a(machineinfo.o)
 .ARM.attributes
                0x000000000000019d       0x3b ../../lib/libcircle.a(screen.o)
 .ARM.attributes
                0x00000000000001d8       0x3b ../../lib/libcircle.a(string.o)
 .ARM.attributes
                0x0000000000000213       0x3b ../../lib/libcircle.a(sysinit.o)
 .ARM.attributes
                0x000000000000024e       0x3b ../../lib/libcircle.a(timer.o)
 .ARM.attributes
                0x0000000000000289       0x3b ../../lib/libcircle.a(util.o)
 .ARM.attributes
                0x00000000000002c4       0x27 ../../lib/libcircle.a(util_fast.o)
 .ARM.attributes
                0x00000000000002eb       0x3b ../../lib/libcircle.a(virtualgpiopin.o)
 .ARM.attributes
                0x0000000000000326       0x3b ../../lib/libcircle.a(chainboot.o)
 .ARM.attributes
                0x0000000000000361       0x27 ../../lib/libcircle.a(cache-v7.o)
 .ARM.attributes
                0x0000000000000388       0x3b ../../lib/libcircle.a(memory.o)
 .ARM.attributes
                0x00000000000003c3       0x3b ../../lib/libcircle.a(pagetable.o)
 .ARM.attributes
                0x00000000000003fe       0x27 ../../lib/libcircle.a(startup.o)
 .ARM.attributes
                0x0000000000000425       0x3b ../../lib/libcircle.a(synchronize.o)
 .ARM.attributes
                0x0000000000000460       0x3b ../../lib/libcircle.a(interrupt.o)
 .ARM.attributes
                0x000000000000049b       0x3b ../../lib/libcircle.a(assert.o)
 .ARM.attributes
                0x00000000000004d6       0x3b ../../lib/libcircle.a(bcmframebuffer.o)
 .ARM.attributes
                0x0000000000000511       0x3b ../../lib/libcircle.a(bcmpropertytags.o)
 .ARM.attributes
                0x000000000000054c       0x3b ../../lib/libcircle.a(chargenerator.o)
 .ARM.attributes
                0x0000000000000587       0x3b ../../lib/libcircle.a(debug.o)
 .ARM.attributes
                0x00000000000005c2       0x27 ../../lib/libcircle.a(delayloop.o)
 .ARM.attributes
                0x00000000000005e9       0x3b ../../lib/libcircle.a(device.o)
 .ARM.attributes
                0x0000000000000624       0x3b ../../lib/libcircle.a(dmachannel.o)
 .ARM.attributes
                0x000000000000065f       0x3b ../../lib/libcircle.a(gpiomanager.o)
 .ARM.attributes
                0x000000000000069a       0x3b ../../lib/libcircle.a(logger.o)
 .ARM.attributes
                0x00000000000006d5       0x3b ../../lib/libcircle.a(ptrlist.o)
 .ARM.attributes
                0x0000000000000710       0x3b ../../lib/libcircle.a(new.o)
 .ARM.attributes
                0x000000000000074b       0x3b ../../lib/libcircle.a(heapallocator.o)
 .ARM.attributes
                0x0000000000000786       0x3b ../../lib/libcircle.a(pageallocator.o)
 .ARM.attributes
                0x00000000000007c1       0x27 ../../lib/libcircle.a(exceptionstub.o)
 .ARM.attributes
                0x00000000000007e8       0x3b ../../lib/libcircle.a(bcmmailbox.o)
 .ARM.attributes
                0x0000000000000823       0x3b ../../lib/libcircle.a(exceptionhandler.o)
 .ARM.attributes
                0x000000000000085e       0x3b /home/olf/projects/circle/gcc-arm-9.2-2019.12-x86_64-arm-none-eabi/bin/../lib/gcc/arm-none-eabi/9.2.1/../../../../arm-none-eabi/lib/thumb/v7ve+simd/hard/libstdc++.a(class_type_info.o)
 .ARM.attributes
                0x0000000000000899       0x3b /home/olf/projects/circle/gcc-arm-9.2-2019.12-x86_64-arm-none-eabi/bin/../lib/gcc/arm-none-eabi/9.2.1/../../../../arm-none-eabi/lib/thumb/v7ve+simd/hard/libstdc++.a(del_ops.o)
 .ARM.attributes
                0x00000000000008d4       0x3b /home/olf/projects/circle/gcc-arm-9.2-2019.12-x86_64-arm-none-eabi/bin/../lib/gcc/arm-none-eabi/9.2.1/../../../../arm-none-eabi/lib/thumb/v7ve+simd/hard/libstdc++.a(del_opv.o)
 .ARM.attributes
                0x000000000000090f       0x3b /home/olf/projects/circle/gcc-arm-9.2-2019.12-x86_64-arm-none-eabi/bin/../lib/gcc/arm-none-eabi/9.2.1/../../../../arm-none-eabi/lib/thumb/v7ve+simd/hard/libstdc++.a(eh_arm.o)
 .ARM.attributes
                0x000000000000094a       0x3b /home/olf/projects/circle/gcc-arm-9.2-2019.12-x86_64-arm-none-eabi/bin/../lib/gcc/arm-none-eabi/9.2.1/../../../../arm-none-eabi/lib/thumb/v7ve+simd/hard/libstdc++.a(eh_aux_runtime.o)
 .ARM.attributes
                0x0000000000000985       0x3b /home/olf/projects/circle/gcc-arm-9.2-2019.12-x86_64-arm-none-eabi/bin/../lib/gcc/arm-none-eabi/9.2.1/../../../../arm-none-eabi/lib/thumb/v7ve+simd/hard/libstdc++.a(eh_exception.o)
 .ARM.attributes
                0x00000000000009c0       0x3b /home/olf/projects/circle/gcc-arm-9.2-2019.12-x86_64-arm-none-eabi/bin/../lib/gcc/arm-none-eabi/9.2.1/../../../../arm-none-eabi/lib/thumb/v7ve+simd/hard/libstdc++.a(eh_globals.o)
 .ARM.attributes
                0x00000000000009fb       0x3b /home/olf/projects/circle/gcc-arm-9.2-2019.12-x86_64-arm-none-eabi/bin/../lib/gcc/arm-none-eabi/9.2.1/../../../../arm-none-eabi/lib/thumb/v7ve+simd/hard/libstdc++.a(eh_personality.o)
 .ARM.attributes
                0x0000000000000a36       0x3b /home/olf/projects/circle/gcc-arm-9.2-2019.12-x86_64-arm-none-eabi/bin/../lib/gcc/arm-none-eabi/9.2.1/../../../../arm-none-eabi/lib/thumb/v7ve+simd/hard/libstdc++.a(eh_terminate.o)
 .ARM.attributes
                0x0000000000000a71       0x3b /home/olf/projects/circle/gcc-arm-9.2-2019.12-x86_64-arm-none-eabi/bin/../lib/gcc/arm-none-eabi/9.2.1/../../../../arm-none-eabi/lib/thumb/v7ve+simd/hard/libstdc++.a(eh_throw.o)
 .ARM.attributes
                0x0000000000000aac       0x37 /home/olf/projects/circle/gcc-arm-9.2-2019.12-x86_64-arm-none-eabi/bin/../lib/gcc/arm-none-eabi/9.2.1/../../../../arm-none-eabi/lib/thumb/v7ve+simd/hard/libstdc++.a(eh_unex_handler.o)
 .ARM.attributes
                0x0000000000000ae3       0x3b /home/olf/projects/circle/gcc-arm-9.2-2019.12-x86_64-arm-none-eabi/bin/../lib/gcc/arm-none-eabi/9.2.1/../../../../arm-none-eabi/lib/thumb/v7ve+simd/hard/libstdc++.a(new_op.o)
 .ARM.attributes
                0x0000000000000b1e       0x3b /home/olf/projects/circle/gcc-arm-9.2-2019.12-x86_64-arm-none-eabi/bin/../lib/gcc/arm-none-eabi/9.2.1/../../../../arm-none-eabi/lib/thumb/v7ve+simd/hard/libstdc++.a(new_opv.o)
 .ARM.attributes
                0x0000000000000b59       0x3b /home/olf/projects/circle/gcc-arm-9.2-2019.12-x86_64-arm-none-eabi/bin/../lib/gcc/arm-none-eabi/9.2.1/../../../../arm-none-eabi/lib/thumb/v7ve+simd/hard/libstdc++.a(pure.o)
 .ARM.attributes
                0x0000000000000b94       0x3b /home/olf/projects/circle/gcc-arm-9.2-2019.12-x86_64-arm-none-eabi/bin/../lib/gcc/arm-none-eabi/9.2.1/../../../../arm-none-eabi/lib/thumb/v7ve+simd/hard/libstdc++.a(si_class_type_info.o)
 .ARM.attributes
                0x0000000000000bcf       0x3b /home/olf/projects/circle/gcc-arm-9.2-2019.12-x86_64-arm-none-eabi/bin/../lib/gcc/arm-none-eabi/9.2.1/../../../../arm-none-eabi/lib/thumb/v7ve+simd/hard/libstdc++.a(tinfo.o)
 .ARM.attributes
                0x0000000000000c0a       0x3b /home/olf/projects/circle/gcc-arm-9.2-2019.12-x86_64-arm-none-eabi/bin/../lib/gcc/arm-none-eabi/9.2.1/../../../../arm-none-eabi/lib/thumb/v7ve+simd/hard/libstdc++.a(vterminate.o)
 .ARM.attributes
                0x0000000000000c45       0x3b /home/olf/projects/circle/gcc-arm-9.2-2019.12-x86_64-arm-none-eabi/bin/../lib/gcc/arm-none-eabi/9.2.1/../../../../arm-none-eabi/lib/thumb/v7ve+simd/hard/libstdc++.a(bad_alloc.o)
 .ARM.attributes
                0x0000000000000c80       0x3b /home/olf/projects/circle/gcc-arm-9.2-2019.12-x86_64-arm-none-eabi/bin/../lib/gcc/arm-none-eabi/9.2.1/../../../../arm-none-eabi/lib/thumb/v7ve+simd/hard/libstdc++.a(bad_array_new.o)
 .ARM.attributes
                0x0000000000000cbb       0x3b /home/olf/projects/circle/gcc-arm-9.2-2019.12-x86_64-arm-none-eabi/bin/../lib/gcc/arm-none-eabi/9.2.1/../../../../arm-none-eabi/lib/thumb/v7ve+simd/hard/libstdc++.a(bad_cast.o)
 .ARM.attributes
                0x0000000000000cf6       0x3b /home/olf/projects/circle/gcc-arm-9.2-2019.12-x86_64-arm-none-eabi/bin/../lib/gcc/arm-none-eabi/9.2.1/../../../../arm-none-eabi/lib/thumb/v7ve+simd/hard/libstdc++.a(bad_typeid.o)
 .ARM.attributes
                0x0000000000000d31       0x3b /home/olf/projects/circle/gcc-arm-9.2-2019.12-x86_64-arm-none-eabi/bin/../lib/gcc/arm-none-eabi/9.2.1/../../../../arm-none-eabi/lib/thumb/v7ve+simd/hard/libstdc++.a(cp-demangle.o)
 .ARM.attributes
                0x0000000000000d6c       0x3b /home/olf/projects/circle/gcc-arm-9.2-2019.12-x86_64-arm-none-eabi/bin/../lib/gcc/arm-none-eabi/9.2.1/../../../../arm-none-eabi/lib/thumb/v7ve+simd/hard/libstdc++.a(del_op.o)
 .ARM.attributes
                0x0000000000000da7       0x3b /home/olf/projects/circle/gcc-arm-9.2-2019.12-x86_64-arm-none-eabi/bin/../lib/gcc/arm-none-eabi/9.2.1/../../../../arm-none-eabi/lib/thumb/v7ve+simd/hard/libstdc++.a(eh_alloc.o)
 .ARM.attributes
                0x0000000000000de2       0x3b /home/olf/projects/circle/gcc-arm-9.2-2019.12-x86_64-arm-none-eabi/bin/../lib/gcc/arm-none-eabi/9.2.1/../../../../arm-none-eabi/lib/thumb/v7ve+simd/hard/libstdc++.a(eh_call.o)
 .ARM.attributes
                0x0000000000000e1d       0x3b /home/olf/projects/circle/gcc-arm-9.2-2019.12-x86_64-arm-none-eabi/bin/../lib/gcc/arm-none-eabi/9.2.1/../../../../arm-none-eabi/lib/thumb/v7ve+simd/hard/libstdc++.a(eh_catch.o)
 .ARM.attributes
                0x0000000000000e58       0x37 /home/olf/projects/circle/gcc-arm-9.2-2019.12-x86_64-arm-none-eabi/bin/../lib/gcc/arm-none-eabi/9.2.1/../../../../arm-none-eabi/lib/thumb/v7ve+simd/hard/libstdc++.a(eh_term_handler.o)
 .ARM.attributes
                0x0000000000000e8f       0x3b /home/olf/projects/circle/gcc-arm-9.2-2019.12-x86_64-arm-none-eabi/bin/../lib/gcc/arm-none-eabi/9.2.1/../../../../arm-none-eabi/lib/thumb/v7ve+simd/hard/libstdc++.a(eh_type.o)
 .ARM.attributes
                0x0000000000000eca       0x3b /home/olf/projects/circle/gcc-arm-9.2-2019.12-x86_64-arm-none-eabi/bin/../lib/gcc/arm-none-eabi/9.2.1/../../../../arm-none-eabi/lib/thumb/v7ve+simd/hard/libstdc++.a(new_handler.o)
 .ARM.attributes
                0x0000000000000f05       0x25 /home/olf/projects/circle/gcc-arm-9.2-2019.12-x86_64-arm-none-eabi/bin/../lib/gcc/arm-none-eabi/9.2.1/thumb/v7ve+simd/hard/libgcc.a(_aeabi_ldivmod.o)
 .ARM.attributes
                0x0000000000000f2a       0x25 /home/olf/projects/circle/gcc-arm-9.2-2019.12-x86_64-arm-none-eabi/bin/../lib/gcc/arm-none-eabi/9.2.1/thumb/v7ve+simd/hard/libgcc.a(_aeabi_uldivmod.o)
 .ARM.attributes
                0x0000000000000f4f       0x3b /home/olf/projects/circle/gcc-arm-9.2-2019.12-x86_64-arm-none-eabi/bin/../lib/gcc/arm-none-eabi/9.2.1/thumb/v7ve+simd/hard/libgcc.a(_udivmoddi4.o)
 .ARM.attributes
                0x0000000000000f8a       0x3b /home/olf/projects/circle/gcc-arm-9.2-2019.12-x86_64-arm-none-eabi/bin/../lib/gcc/arm-none-eabi/9.2.1/thumb/v7ve+simd/hard/libgcc.a(unwind-arm.o)
 .ARM.attributes
                0x0000000000000fc5       0x25 /home/olf/projects/circle/gcc-arm-9.2-2019.12-x86_64-arm-none-eabi/bin/../lib/gcc/arm-none-eabi/9.2.1/thumb/v7ve+simd/hard/libgcc.a(libunwind.o)
 .ARM.attributes
                0x0000000000000fea       0x3b /home/olf/projects/circle/gcc-arm-9.2-2019.12-x86_64-arm-none-eabi/bin/../lib/gcc/arm-none-eabi/9.2.1/thumb/v7ve+simd/hard/libgcc.a(pr-support.o)
 .ARM.attributes
                0x0000000000001025       0x25 /home/olf/projects/circle/gcc-arm-9.2-2019.12-x86_64-arm-none-eabi/bin/../lib/gcc/arm-none-eabi/9.2.1/thumb/v7ve+simd/hard/libgcc.a(_dvmd_tls.o)
 .ARM.attributes
                0x000000000000104a       0x3b ../../../../install/arm-none-circle/lib/libc.a(lib_a-abort.o)
 .ARM.attributes
                0x0000000000001085       0x3b ../../../../install/arm-none-circle/lib/libc.a(lib_a-fputc.o)
 .ARM.attributes
                0x00000000000010c0       0x3b ../../../../install/arm-none-circle/lib/libc.a(lib_a-fputs.o)
 .ARM.attributes
                0x00000000000010fb       0x3b ../../../../install/arm-none-circle/lib/libc.a(lib_a-fvwrite.o)
 .ARM.attributes
                0x0000000000001136       0x3b ../../../../install/arm-none-circle/lib/libc.a(lib_a-fwrite.o)
 .ARM.attributes
                0x0000000000001171       0x41 ../../../../install/arm-none-circle/lib/libc.a(lib_a-impure.o)
 .ARM.attributes
                0x00000000000011b2       0x21 ../../../../install/arm-none-circle/lib/libc.a(lib_a-memchr.o)
 .ARM.attributes
                0x00000000000011d3       0x3b ../../../../install/arm-none-circle/lib/libc.a(lib_a-memcmp.o)
 .ARM.attributes
                0x000000000000120e       0x3b ../../../../install/arm-none-circle/lib/libc.a(lib_a-memmove.o)
 .ARM.attributes
                0x0000000000001249       0x3b ../../../../install/arm-none-circle/lib/libc.a(lib_a-putc.o)
 .ARM.attributes
                0x0000000000001284       0x3b ../../../../install/arm-none-circle/lib/libc.a(lib_a-signal.o)
 .ARM.attributes
                0x00000000000012bf       0x3b ../../../../install/arm-none-circle/lib/libc.a(lib_a-signalr.o)
 .ARM.attributes
                0x00000000000012fa       0x3b ../../../../install/arm-none-circle/lib/libc.a(lib_a-sprintf.o)
 .ARM.attributes
                0x0000000000001335       0x3b ../../../../install/arm-none-circle/lib/libc.a(lib_a-strcat.o)
 .ARM.attributes
                0x0000000000001370       0x3b ../../../../install/arm-none-circle/lib/libc.a(lib_a-strchr.o)
 .ARM.attributes
                0x00000000000013ab       0x27 ../../../../install/arm-none-circle/lib/libc.a(lib_a-strcmp.o)
 .ARM.attributes
                0x00000000000013d2       0x3b ../../../../install/arm-none-circle/lib/libc.a(lib_a-strcpy.o)
 .ARM.attributes
                0x000000000000140d       0x1d ../../../../install/arm-none-circle/lib/libc.a(lib_a-strlen.o)
 .ARM.attributes
                0x000000000000142a       0x3b ../../../../install/arm-none-circle/lib/libc.a(lib_a-strncmp.o)
 .ARM.attributes
                0x0000000000001465       0x3b ../../../../install/arm-none-circle/lib/libc.a(lib_a-strncpy.o)
 .ARM.attributes
                0x00000000000014a0       0x3b ../../../../install/arm-none-circle/lib/libc.a(lib_a-svfprintf.o)
 .ARM.attributes
                0x00000000000014db       0x3b ../../../../install/arm-none-circle/lib/libc.a(lib_a-syswrite.o)
 .ARM.attributes
                0x0000000000001516       0x3b ../../../../install/arm-none-circle/lib/libc.a(lib_a-wbuf.o)
 .ARM.attributes
                0x0000000000001551       0x3b ../../../../install/arm-none-circle/lib/libc.a(lib_a-writer.o)
 .ARM.attributes
                0x000000000000158c       0x3b ../../../../install/arm-none-circle/lib/libc.a(lib_a-wsetup.o)
 .ARM.attributes
                0x00000000000015c7       0x3b ../../../../install/arm-none-circle/lib/libc.a(lib_a-dtoa.o)
 .ARM.attributes
                0x0000000000001602       0x3b ../../../../install/arm-none-circle/lib/libc.a(lib_a-fflush.o)
 .ARM.attributes
                0x000000000000163d       0x3b ../../../../install/arm-none-circle/lib/libc.a(lib_a-findfp.o)
 .ARM.attributes
                0x0000000000001678       0x3b ../../../../install/arm-none-circle/lib/libc.a(lib_a-fwalk.o)
 .ARM.attributes
                0x00000000000016b3       0x3b ../../../../install/arm-none-circle/lib/libc.a(lib_a-localeconv.o)
 .ARM.attributes
                0x00000000000016ee       0x3b ../../../../install/arm-none-circle/lib/libc.a(lib_a-locale.o)
 .ARM.attributes
                0x0000000000001729       0x3b ../../../../install/arm-none-circle/lib/libc.a(lib_a-makebuf.o)
 .ARM.attributes
                0x0000000000001764       0x3b ../../../../install/arm-none-circle/lib/libc.a(lib_a-mbtowc_r.o)
 .ARM.attributes
                0x000000000000179f       0x3b ../../../../install/arm-none-circle/lib/libc.a(lib_a-mprec.o)
 .ARM.attributes
                0x00000000000017da       0x3b ../../../../install/arm-none-circle/lib/libc.a(lib_a-reent.o)
 .ARM.attributes
                0x0000000000001815       0x3b ../../../../install/arm-none-circle/lib/libc.a(lib_a-stdio.o)
 .ARM.attributes
                0x0000000000001850       0x3b ../../../../install/arm-none-circle/lib/libc.a(lib_a-svfiprintf.o)
 .ARM.attributes
                0x000000000000188b       0x3b ../../../../install/arm-none-circle/lib/libc.a(lib_a-wctomb_r.o)
 .ARM.attributes
                0x00000000000018c6       0x3b ../../../../install/arm-none-circle/lib/libc.a(lib_a-closer.o)
 .ARM.attributes
                0x0000000000001901       0x41 ../../../../install/arm-none-circle/lib/libc.a(lib_a-ctype_.o)
 .ARM.attributes
                0x0000000000001942       0x3b ../../../../install/arm-none-circle/lib/libc.a(lib_a-fclose.o)
 .ARM.attributes
                0x000000000000197d       0x3b ../../../../install/arm-none-circle/lib/libc.a(lib_a-fstatr.o)
 .ARM.attributes
                0x00000000000019b8       0x3b ../../../../install/arm-none-circle/lib/libc.a(lib_a-isattyr.o)
 .ARM.attributes
                0x00000000000019f3       0x3b ../../../../install/arm-none-circle/lib/libc.a(lib_a-lseekr.o)
 .ARM.attributes
                0x0000000000001a2e       0x3b ../../../../install/arm-none-circle/lib/libc.a(lib_a-readr.o)
 .ARM.attributes
                0x0000000000001a69       0x3b ../../../../install/arm-none-circle/lib/libcirclenewlib.a(fstat.o)
 .ARM.attributes
                0x0000000000001aa4       0x3b ../../../../install/arm-none-circle/lib/libcirclenewlib.a(getpid.o)
 .ARM.attributes
                0x0000000000001adf       0x3b ../../../../install/arm-none-circle/lib/libcirclenewlib.a(io.o)
 .ARM.attributes
                0x0000000000001b1a       0x3b ../../../../install/arm-none-circle/lib/libcirclenewlib.a(isatty.o)
 .ARM.attributes
                0x0000000000001b55       0x3b ../../../../install/arm-none-circle/lib/libcirclenewlib.a(kill.o)
 .ARM.attributes
                0x0000000000001b90       0x3b ../../../../install/arm-none-circle/lib/libcirclenewlib.a(_exit.o)
 .ARM.attributes
                0x0000000000001bcb       0x3b ../../../../install/arm-none-circle/lib/libcirclenewlib.a(mem.o)
 .ARM.attributes
                0x0000000000001c06       0x3b ../../lib/usb/libusb.a(usbhostcontroller.o)
 .ARM.attributes
                0x0000000000001c41       0x3b ../../lib/usb/libusb.a(usbrequest.o)
 .ARM.attributes
                0x0000000000001c7c       0x3b ../../lib/usb/libusb.a(usbstandardhub.o)
 .ARM.attributes
                0x0000000000001cb7       0x3b ../../lib/usb/libusb.a(usbdevice.o)
 .ARM.attributes
                0x0000000000001cf2       0x3b ../../lib/usb/libusb.a(usbdevicefactory.o)
 .ARM.attributes
                0x0000000000001d2d       0x3b ../../lib/usb/libusb.a(usbendpoint.o)
 .ARM.attributes
                0x0000000000001d68       0x3b ../../lib/usb/libusb.a(usbfunction.o)
 .ARM.attributes
                0x0000000000001da3       0x3b ../../lib/usb/libusb.a(usbgamepadps3.o)
 .ARM.attributes
                0x0000000000001dde       0x3b ../../lib/usb/libusb.a(usbgamepadps4.o)
 .ARM.attributes
                0x0000000000001e19       0x3b ../../lib/usb/libusb.a(usbgamepadstandard.o)
 .ARM.attributes
                0x0000000000001e54       0x3b ../../lib/usb/libusb.a(usbgamepadswitchpro.o)
 .ARM.attributes
                0x0000000000001e8f       0x3b ../../lib/usb/libusb.a(usbgamepadxbox360.o)
 .ARM.attributes
                0x0000000000001eca       0x3b ../../lib/usb/libusb.a(usbgamepadxboxone.o)
 .ARM.attributes
                0x0000000000001f05       0x3b ../../lib/usb/libusb.a(usbhiddevice.o)
 .ARM.attributes
                0x0000000000001f40       0x3b ../../lib/usb/libusb.a(usbkeyboard.o)
 .ARM.attributes
                0x0000000000001f7b       0x3b ../../lib/usb/libusb.a(usbmassdevice.o)
 .ARM.attributes
                0x0000000000001fb6       0x3b ../../lib/usb/libusb.a(usbmidi.o)
 .ARM.attributes
                0x0000000000001ff1       0x3b ../../lib/usb/libusb.a(usbmouse.o)
 .ARM.attributes
                0x000000000000202c       0x3b ../../lib/usb/libusb.a(usbprinter.o)
 .ARM.attributes
                0x0000000000002067       0x3b ../../lib/usb/libusb.a(lan7800.o)
 .ARM.attributes
                0x00000000000020a2       0x3b ../../lib/usb/libusb.a(smsc951x.o)
 .ARM.attributes
                0x00000000000020dd       0x3b ../../lib/usb/libusb.a(usbbluetooth.o)
 .ARM.attributes
                0x0000000000002118       0x3b ../../lib/usb/libusb.a(usbcdcethernet.o)
 .ARM.attributes
                0x0000000000002153       0x3b ../../lib/usb/libusb.a(usbconfigparser.o)
 .ARM.attributes
                0x000000000000218e       0x3b ../../lib/usb/libusb.a(usbgamepad.o)
 .ARM.attributes
                0x00000000000021c9       0x3b ../../lib/usb/libusb.a(usbstring.o)
 .ARM.attributes
                0x0000000000002204       0x3b ../../lib/input/libinput.a(keyboardbehaviour.o)
 .ARM.attributes
                0x000000000000223f       0x3b ../../lib/input/libinput.a(keymap.o)
 .ARM.attributes
                0x000000000000227a       0x3b ../../lib/input/libinput.a(mouse.o)
 .ARM.attributes
                0x00000000000022b5       0x3b ../../lib/input/libinput.a(console.o)
 .ARM.attributes
                0x00000000000022f0       0x3b ../../lib/input/libinput.a(keyboardbuffer.o)
 .ARM.attributes
                0x000000000000232b       0x3b ../../lib/input/libinput.a(linediscipline.o)
 .ARM.attributes
                0x0000000000002366       0x3b ../../lib/input/libinput.a(mousebehaviour.o)
 .ARM.attributes
                0x00000000000023a1       0x3b ../../addon/fatfs/libfatfs.a(ff.o)
 .ARM.attributes
                0x00000000000023dc       0x3b ../../addon/fatfs/libfatfs.a(diskio.o)
 .ARM.attributes
                0x0000000000002417       0x3b ../../addon/fatfs/libfatfs.a(ffsystem.o)
 .ARM.attributes
                0x0000000000002452       0x3b ../../addon/fatfs/libfatfs.a(ffunicode.o)
 .ARM.attributes
                0x000000000000248d       0x3b ../../lib/fs/libfs.a(partitionmanager.o)
 .ARM.attributes
                0x00000000000024c8       0x3b ../../lib/fs/libfs.a(partition.o)
 .ARM.attributes
                0x0000000000002503       0x3b ../../lib/sched/libsched.a(scheduler.o)
 .ARM.attributes
                0x000000000000253e       0x27 ../../lib/sched/libsched.a(taskswitch.o)
 .ARM.attributes
                0x0000000000002565       0x3b ../../lib/sched/libsched.a(task.o)
 .ARM.attributes
                0x00000000000025a0       0x3b ../../lib/sched/libsched.a(synchronizationevent.o)
 .ARM.attributes
                0x00000000000025db       0x3b ../../lib/libcircle.a(alloc.o)
 .ARM.attributes
                0x0000000000002616       0x3b ../../lib/libcircle.a(classallocator.o)
 .ARM.attributes
                0x0000000000002651       0x3b ../../lib/libcircle.a(macaddress.o)
 .ARM.attributes
                0x000000000000268c       0x3b ../../lib/libcircle.a(netdevice.o)
 .ARM.attributes
                0x00000000000026c7       0x3b ../../lib/libcircle.a(numberpool.o)
 .ARM.attributes
                0x0000000000002702       0x3b /home/olf/projects/circle/gcc-arm-9.2-2019.12-x86_64-arm-none-eabi/bin/../lib/gcc/arm-none-eabi/9.2.1/../../../../arm-none-eabi/lib/thumb/v7ve+simd/hard/libstdc++.a(vmi_class_type_info.o)

.debug_frame    0x0000000000000000     0x7d0c
 .debug_frame   0x0000000000000000       0x30 main.o
 .debug_frame   0x0000000000000030       0x7c kernel.o
 .debug_frame   0x00000000000000ac       0x90 ../../lib/libcircle.a(actled.o)
 .debug_frame   0x000000000000013c      0x190 ../../lib/libcircle.a(devicenameservice.o)
 .debug_frame   0x00000000000002cc      0x308 ../../lib/libcircle.a(gpiopin.o)
 .debug_frame   0x00000000000005d4      0x150 ../../lib/libcircle.a(koptions.o)
 .debug_frame   0x0000000000000724      0x190 ../../lib/libcircle.a(machineinfo.o)
 .debug_frame   0x00000000000008b4      0x480 ../../lib/libcircle.a(screen.o)
 .debug_frame   0x0000000000000d34      0x2a0 ../../lib/libcircle.a(string.o)
 .debug_frame   0x0000000000000fd4       0x90 ../../lib/libcircle.a(sysinit.o)
 .debug_frame   0x0000000000001064      0x2d8 ../../lib/libcircle.a(timer.o)
 .debug_frame   0x000000000000133c       0x3c ../../lib/libcircle.a(util.o)
 .debug_frame   0x0000000000001378       0xb8 ../../lib/libcircle.a(virtualgpiopin.o)
 .debug_frame   0x0000000000001430       0x58 ../../lib/libcircle.a(chainboot.o)
 .debug_frame   0x0000000000001488       0xd8 ../../lib/libcircle.a(memory.o)
 .debug_frame   0x0000000000001560       0x50 ../../lib/libcircle.a(pagetable.o)
 .debug_frame   0x00000000000015b0       0x68 ../../lib/libcircle.a(synchronize.o)
 .debug_frame   0x0000000000001618      0x18c ../../lib/libcircle.a(interrupt.o)
 .debug_frame   0x00000000000017a4       0x30 ../../lib/libcircle.a(assert.o)
 .debug_frame   0x00000000000017d4      0x1a0 ../../lib/libcircle.a(bcmframebuffer.o)
 .debug_frame   0x0000000000001974       0x7c ../../lib/libcircle.a(bcmpropertytags.o)
 .debug_frame   0x00000000000019f0       0x78 ../../lib/libcircle.a(chargenerator.o)
 .debug_frame   0x0000000000001a68       0x64 ../../lib/libcircle.a(debug.o)
 .debug_frame   0x0000000000001acc       0x90 ../../lib/libcircle.a(device.o)
 .debug_frame   0x0000000000001b5c      0x188 ../../lib/libcircle.a(dmachannel.o)
 .debug_frame   0x0000000000001ce4       0xbc ../../lib/libcircle.a(gpiomanager.o)
 .debug_frame   0x0000000000001da0      0x1b0 ../../lib/libcircle.a(logger.o)
 .debug_frame   0x0000000000001f50       0xe8 ../../lib/libcircle.a(ptrlist.o)
 .debug_frame   0x0000000000002038       0x30 ../../lib/libcircle.a(new.o)
 .debug_frame   0x0000000000002068       0xd8 ../../lib/libcircle.a(heapallocator.o)
 .debug_frame   0x0000000000002140       0xa4 ../../lib/libcircle.a(pageallocator.o)
 .debug_frame   0x00000000000021e4       0xac ../../lib/libcircle.a(bcmmailbox.o)
 .debug_frame   0x0000000000002290       0xc4 ../../lib/libcircle.a(exceptionhandler.o)
 .debug_frame   0x0000000000002354       0xdc /home/olf/projects/circle/gcc-arm-9.2-2019.12-x86_64-arm-none-eabi/bin/../lib/gcc/arm-none-eabi/9.2.1/../../../../arm-none-eabi/lib/thumb/v7ve+simd/hard/libstdc++.a(class_type_info.o)
 .debug_frame   0x0000000000002430       0x20 /home/olf/projects/circle/gcc-arm-9.2-2019.12-x86_64-arm-none-eabi/bin/../lib/gcc/arm-none-eabi/9.2.1/../../../../arm-none-eabi/lib/thumb/v7ve+simd/hard/libstdc++.a(del_ops.o)
 .debug_frame   0x0000000000002450       0x20 /home/olf/projects/circle/gcc-arm-9.2-2019.12-x86_64-arm-none-eabi/bin/../lib/gcc/arm-none-eabi/9.2.1/../../../../arm-none-eabi/lib/thumb/v7ve+simd/hard/libstdc++.a(del_opv.o)
 .debug_frame   0x0000000000002470       0x70 /home/olf/projects/circle/gcc-arm-9.2-2019.12-x86_64-arm-none-eabi/bin/../lib/gcc/arm-none-eabi/9.2.1/../../../../arm-none-eabi/lib/thumb/v7ve+simd/hard/libstdc++.a(eh_arm.o)
 .debug_frame   0x00000000000024e0       0x58 /home/olf/projects/circle/gcc-arm-9.2-2019.12-x86_64-arm-none-eabi/bin/../lib/gcc/arm-none-eabi/9.2.1/../../../../arm-none-eabi/lib/thumb/v7ve+simd/hard/libstdc++.a(eh_aux_runtime.o)
 .debug_frame   0x0000000000002538       0xf0 /home/olf/projects/circle/gcc-arm-9.2-2019.12-x86_64-arm-none-eabi/bin/../lib/gcc/arm-none-eabi/9.2.1/../../../../arm-none-eabi/lib/thumb/v7ve+simd/hard/libstdc++.a(eh_exception.o)
 .debug_frame   0x0000000000002628       0x30 /home/olf/projects/circle/gcc-arm-9.2-2019.12-x86_64-arm-none-eabi/bin/../lib/gcc/arm-none-eabi/9.2.1/../../../../arm-none-eabi/lib/thumb/v7ve+simd/hard/libstdc++.a(eh_globals.o)
 .debug_frame   0x0000000000002658       0xcc /home/olf/projects/circle/gcc-arm-9.2-2019.12-x86_64-arm-none-eabi/bin/../lib/gcc/arm-none-eabi/9.2.1/../../../../arm-none-eabi/lib/thumb/v7ve+simd/hard/libstdc++.a(eh_personality.o)
 .debug_frame   0x0000000000002724       0xb0 /home/olf/projects/circle/gcc-arm-9.2-2019.12-x86_64-arm-none-eabi/bin/../lib/gcc/arm-none-eabi/9.2.1/../../../../arm-none-eabi/lib/thumb/v7ve+simd/hard/libstdc++.a(eh_terminate.o)
 .debug_frame   0x00000000000027d4       0x80 /home/olf/projects/circle/gcc-arm-9.2-2019.12-x86_64-arm-none-eabi/bin/../lib/gcc/arm-none-eabi/9.2.1/../../../../arm-none-eabi/lib/thumb/v7ve+simd/hard/libstdc++.a(eh_throw.o)
 .debug_frame   0x0000000000002854       0x28 /home/olf/projects/circle/gcc-arm-9.2-2019.12-x86_64-arm-none-eabi/bin/../lib/gcc/arm-none-eabi/9.2.1/../../../../arm-none-eabi/lib/thumb/v7ve+simd/hard/libstdc++.a(new_op.o)
 .debug_frame   0x000000000000287c       0x20 /home/olf/projects/circle/gcc-arm-9.2-2019.12-x86_64-arm-none-eabi/bin/../lib/gcc/arm-none-eabi/9.2.1/../../../../arm-none-eabi/lib/thumb/v7ve+simd/hard/libstdc++.a(new_opv.o)
 .debug_frame   0x000000000000289c       0x40 /home/olf/projects/circle/gcc-arm-9.2-2019.12-x86_64-arm-none-eabi/bin/../lib/gcc/arm-none-eabi/9.2.1/../../../../arm-none-eabi/lib/thumb/v7ve+simd/hard/libstdc++.a(pure.o)
 .debug_frame   0x00000000000028dc       0xe4 /home/olf/projects/circle/gcc-arm-9.2-2019.12-x86_64-arm-none-eabi/bin/../lib/gcc/arm-none-eabi/9.2.1/../../../../arm-none-eabi/lib/thumb/v7ve+simd/hard/libstdc++.a(si_class_type_info.o)
 .debug_frame   0x00000000000029c0       0x84 /home/olf/projects/circle/gcc-arm-9.2-2019.12-x86_64-arm-none-eabi/bin/../lib/gcc/arm-none-eabi/9.2.1/../../../../arm-none-eabi/lib/thumb/v7ve+simd/hard/libstdc++.a(tinfo.o)
 .debug_frame   0x0000000000002a44       0x30 /home/olf/projects/circle/gcc-arm-9.2-2019.12-x86_64-arm-none-eabi/bin/../lib/gcc/arm-none-eabi/9.2.1/../../../../arm-none-eabi/lib/thumb/v7ve+simd/hard/libstdc++.a(vterminate.o)
 .debug_frame   0x0000000000002a74       0x50 /home/olf/projects/circle/gcc-arm-9.2-2019.12-x86_64-arm-none-eabi/bin/../lib/gcc/arm-none-eabi/9.2.1/../../../../arm-none-eabi/lib/thumb/v7ve+simd/hard/libstdc++.a(bad_alloc.o)
 .debug_frame   0x0000000000002ac4       0x50 /home/olf/projects/circle/gcc-arm-9.2-2019.12-x86_64-arm-none-eabi/bin/../lib/gcc/arm-none-eabi/9.2.1/../../../../arm-none-eabi/lib/thumb/v7ve+simd/hard/libstdc++.a(bad_array_new.o)
 .debug_frame   0x0000000000002b14       0x50 /home/olf/projects/circle/gcc-arm-9.2-2019.12-x86_64-arm-none-eabi/bin/../lib/gcc/arm-none-eabi/9.2.1/../../../../arm-none-eabi/lib/thumb/v7ve+simd/hard/libstdc++.a(bad_cast.o)
 .debug_frame   0x0000000000002b64       0x50 /home/olf/projects/circle/gcc-arm-9.2-2019.12-x86_64-arm-none-eabi/bin/../lib/gcc/arm-none-eabi/9.2.1/../../../../arm-none-eabi/lib/thumb/v7ve+simd/hard/libstdc++.a(bad_typeid.o)
 .debug_frame   0x0000000000002bb4      0x894 /home/olf/projects/circle/gcc-arm-9.2-2019.12-x86_64-arm-none-eabi/bin/../lib/gcc/arm-none-eabi/9.2.1/../../../../arm-none-eabi/lib/thumb/v7ve+simd/hard/libstdc++.a(cp-demangle.o)
 .debug_frame   0x0000000000003448       0x20 /home/olf/projects/circle/gcc-arm-9.2-2019.12-x86_64-arm-none-eabi/bin/../lib/gcc/arm-none-eabi/9.2.1/../../../../arm-none-eabi/lib/thumb/v7ve+simd/hard/libstdc++.a(del_op.o)
 .debug_frame   0x0000000000003468       0xe8 /home/olf/projects/circle/gcc-arm-9.2-2019.12-x86_64-arm-none-eabi/bin/../lib/gcc/arm-none-eabi/9.2.1/../../../../arm-none-eabi/lib/thumb/v7ve+simd/hard/libstdc++.a(eh_alloc.o)
 .debug_frame   0x0000000000003550       0x60 /home/olf/projects/circle/gcc-arm-9.2-2019.12-x86_64-arm-none-eabi/bin/../lib/gcc/arm-none-eabi/9.2.1/../../../../arm-none-eabi/lib/thumb/v7ve+simd/hard/libstdc++.a(eh_call.o)
 .debug_frame   0x00000000000035b0       0x94 /home/olf/projects/circle/gcc-arm-9.2-2019.12-x86_64-arm-none-eabi/bin/../lib/gcc/arm-none-eabi/9.2.1/../../../../arm-none-eabi/lib/thumb/v7ve+simd/hard/libstdc++.a(eh_catch.o)
 .debug_frame   0x0000000000003644       0x28 /home/olf/projects/circle/gcc-arm-9.2-2019.12-x86_64-arm-none-eabi/bin/../lib/gcc/arm-none-eabi/9.2.1/../../../../arm-none-eabi/lib/thumb/v7ve+simd/hard/libstdc++.a(eh_type.o)
 .debug_frame   0x000000000000366c       0x30 /home/olf/projects/circle/gcc-arm-9.2-2019.12-x86_64-arm-none-eabi/bin/../lib/gcc/arm-none-eabi/9.2.1/../../../../arm-none-eabi/lib/thumb/v7ve+simd/hard/libstdc++.a(new_handler.o)
 .debug_frame   0x000000000000369c       0x44 /home/olf/projects/circle/gcc-arm-9.2-2019.12-x86_64-arm-none-eabi/bin/../lib/gcc/arm-none-eabi/9.2.1/thumb/v7ve+simd/hard/libgcc.a(_aeabi_ldivmod.o)
 .debug_frame   0x00000000000036e0       0x2c /home/olf/projects/circle/gcc-arm-9.2-2019.12-x86_64-arm-none-eabi/bin/../lib/gcc/arm-none-eabi/9.2.1/thumb/v7ve+simd/hard/libgcc.a(_aeabi_uldivmod.o)
 .debug_frame   0x000000000000370c       0x38 /home/olf/projects/circle/gcc-arm-9.2-2019.12-x86_64-arm-none-eabi/bin/../lib/gcc/arm-none-eabi/9.2.1/thumb/v7ve+simd/hard/libgcc.a(_udivmoddi4.o)
 .debug_frame   0x0000000000003744      0x2f4 /home/olf/projects/circle/gcc-arm-9.2-2019.12-x86_64-arm-none-eabi/bin/../lib/gcc/arm-none-eabi/9.2.1/thumb/v7ve+simd/hard/libgcc.a(unwind-arm.o)
 .debug_frame   0x0000000000003a38      0x104 /home/olf/projects/circle/gcc-arm-9.2-2019.12-x86_64-arm-none-eabi/bin/../lib/gcc/arm-none-eabi/9.2.1/thumb/v7ve+simd/hard/libgcc.a(pr-support.o)
 .debug_frame   0x0000000000003b3c       0x34 ../../../../install/arm-none-circle/lib/libc.a(lib_a-memchr.o)
 .debug_frame   0x0000000000003b70       0x68 ../../../../install/arm-none-circle/lib/libc.a(lib_a-strcmp.o)
 .debug_frame   0x0000000000003bd8      0x1b8 ../../lib/usb/libusb.a(usbhostcontroller.o)
 .debug_frame   0x0000000000003d90      0x1d8 ../../lib/usb/libusb.a(usbrequest.o)
 .debug_frame   0x0000000000003f68      0x214 ../../lib/usb/libusb.a(usbstandardhub.o)
 .debug_frame   0x000000000000417c      0x2c4 ../../lib/usb/libusb.a(usbdevice.o)
 .debug_frame   0x0000000000004440       0x2c ../../lib/usb/libusb.a(usbdevicefactory.o)
 .debug_frame   0x000000000000446c      0x11c ../../lib/usb/libusb.a(usbendpoint.o)
 .debug_frame   0x0000000000004588      0x21c ../../lib/usb/libusb.a(usbfunction.o)
 .debug_frame   0x00000000000047a4      0x154 ../../lib/usb/libusb.a(usbgamepadps3.o)
 .debug_frame   0x00000000000048f8      0x148 ../../lib/usb/libusb.a(usbgamepadps4.o)
 .debug_frame   0x0000000000004a40      0x14c ../../lib/usb/libusb.a(usbgamepadstandard.o)
 .debug_frame   0x0000000000004b8c      0x174 ../../lib/usb/libusb.a(usbgamepadswitchpro.o)
 .debug_frame   0x0000000000004d00      0x128 ../../lib/usb/libusb.a(usbgamepadxbox360.o)
 .debug_frame   0x0000000000004e28      0x11c ../../lib/usb/libusb.a(usbgamepadxboxone.o)
 .debug_frame   0x0000000000004f44      0x1c8 ../../lib/usb/libusb.a(usbhiddevice.o)
 .debug_frame   0x000000000000510c      0x1a4 ../../lib/usb/libusb.a(usbkeyboard.o)
 .debug_frame   0x00000000000052b0      0x1e8 ../../lib/usb/libusb.a(usbmassdevice.o)
 .debug_frame   0x0000000000005498      0x180 ../../lib/usb/libusb.a(usbmidi.o)
 .debug_frame   0x0000000000005618       0xac ../../lib/usb/libusb.a(usbmouse.o)
 .debug_frame   0x00000000000056c4       0xd0 ../../lib/usb/libusb.a(usbprinter.o)
 .debug_frame   0x0000000000005794      0x340 ../../lib/usb/libusb.a(lan7800.o)
 .debug_frame   0x0000000000005ad4      0x2dc ../../lib/usb/libusb.a(smsc951x.o)
 .debug_frame   0x0000000000005db0      0x158 ../../lib/usb/libusb.a(usbbluetooth.o)
 .debug_frame   0x0000000000005f08      0x1ac ../../lib/usb/libusb.a(usbcdcethernet.o)
 .debug_frame   0x00000000000060b4       0xbc ../../lib/usb/libusb.a(usbconfigparser.o)
 .debug_frame   0x0000000000006170      0x130 ../../lib/usb/libusb.a(usbgamepad.o)
 .debug_frame   0x00000000000062a0       0xd8 ../../lib/usb/libusb.a(usbstring.o)
 .debug_frame   0x0000000000006378      0x138 ../../lib/input/libinput.a(keyboardbehaviour.o)
 .debug_frame   0x00000000000064b0       0xb4 ../../lib/input/libinput.a(keymap.o)
 .debug_frame   0x0000000000006564      0x114 ../../lib/input/libinput.a(mouse.o)
 .debug_frame   0x0000000000006678      0x144 ../../lib/input/libinput.a(console.o)
 .debug_frame   0x00000000000067bc       0xec ../../lib/input/libinput.a(keyboardbuffer.o)
 .debug_frame   0x00000000000068a8       0xe0 ../../lib/input/libinput.a(linediscipline.o)
 .debug_frame   0x0000000000006988      0x100 ../../lib/input/libinput.a(mousebehaviour.o)
 .debug_frame   0x0000000000006a88      0x7dc ../../addon/fatfs/libfatfs.a(ff.o)
 .debug_frame   0x0000000000007264       0xd0 ../../addon/fatfs/libfatfs.a(diskio.o)
 .debug_frame   0x0000000000007334       0xb8 ../../addon/fatfs/libfatfs.a(ffsystem.o)
 .debug_frame   0x00000000000073ec       0x4c ../../addon/fatfs/libfatfs.a(ffunicode.o)
 .debug_frame   0x0000000000007438       0x8c ../../lib/fs/libfs.a(partitionmanager.o)
 .debug_frame   0x00000000000074c4       0xe8 ../../lib/fs/libfs.a(partition.o)
 .debug_frame   0x00000000000075ac      0x1a4 ../../lib/sched/libsched.a(scheduler.o)
 .debug_frame   0x0000000000007750       0xec ../../lib/sched/libsched.a(task.o)
 .debug_frame   0x000000000000783c       0x8c ../../lib/sched/libsched.a(synchronizationevent.o)
 .debug_frame   0x00000000000078c8       0x7c ../../lib/libcircle.a(alloc.o)
 .debug_frame   0x0000000000007944       0xc0 ../../lib/libcircle.a(classallocator.o)
 .debug_frame   0x0000000000007a04      0x128 ../../lib/libcircle.a(macaddress.o)
 .debug_frame   0x0000000000007b2c       0x74 ../../lib/libcircle.a(netdevice.o)
 .debug_frame   0x0000000000007ba0       0x78 ../../lib/libcircle.a(numberpool.o)
 .debug_frame   0x0000000000007c18       0xf4 /home/olf/projects/circle/gcc-arm-9.2-2019.12-x86_64-arm-none-eabi/bin/../lib/gcc/arm-none-eabi/9.2.1/../../../../arm-none-eabi/lib/thumb/v7ve+simd/hard/libstdc++.a(vmi_class_type_info.o)

.stab           0x0000000000000000       0x6c
 .stab          0x0000000000000000       0x24 ../../../../install/arm-none-circle/lib/libcirclenewlib.a(fstat.o)
 .stab          0x0000000000000024       0x18 ../../../../install/arm-none-circle/lib/libcirclenewlib.a(getpid.o)
                                         0x24 (size before relaxing)
 .stab          0x000000000000003c       0x18 ../../../../install/arm-none-circle/lib/libcirclenewlib.a(isatty.o)
                                         0x24 (size before relaxing)
 .stab          0x0000000000000054       0x18 ../../../../install/arm-none-circle/lib/libcirclenewlib.a(kill.o)
                                         0x24 (size before relaxing)

.stabstr        0x0000000000000000       0xe3
 .stabstr       0x0000000000000000       0xe3 ../../../../install/arm-none-circle/lib/libcirclenewlib.a(fstat.o)
