Archive member included to satisfy reference by file (symbol)

../../../addon/wlan/hostap/wpa_supplicant/libwpa_supplicant.a(wpasupplicant.o)
                              kernel.o (CWPASupplicant::Initialize())
../../../addon/wlan/hostap/wpa_supplicant/libwpa_supplicant.a(eloop_circle.o)
                              ../../../addon/wlan/hostap/wpa_supplicant/libwpa_supplicant.a(wpasupplicant.o) (eloop_terminate)
../../../addon/wlan/hostap/wpa_supplicant/libwpa_supplicant.a(os_circle.o)
                              ../../../addon/wlan/hostap/wpa_supplicant/libwpa_supplicant.a(eloop_circle.o) (os_get_time)
../../../addon/wlan/hostap/wpa_supplicant/libwpa_supplicant.a(main_circle.o)
                              ../../../addon/wlan/hostap/wpa_supplicant/libwpa_supplicant.a(wpasupplicant.o) (wpa_supplicant_main(char const*))
../../../addon/wlan/hostap/wpa_supplicant/libwpa_supplicant.a(wpa_supplicant.o)
                              ../../../addon/wlan/hostap/wpa_supplicant/libwpa_supplicant.a(main_circle.o) (wpa_supplicant_add_iface)
../../../addon/wlan/hostap/wpa_supplicant/libwpa_supplicant.a(wpas_glue.o)
                              ../../../addon/wlan/hostap/wpa_supplicant/libwpa_supplicant.a(wpa_supplicant.o) (wpa_supplicant_init_eapol)
../../../addon/wlan/hostap/wpa_supplicant/libwpa_supplicant.a(drivers.o)
                              ../../../addon/wlan/hostap/wpa_supplicant/libwpa_supplicant.a(wpa_supplicant.o) (wpa_drivers)
../../../addon/wlan/hostap/wpa_supplicant/libwpa_supplicant.a(driver_circle.o)
                              ../../../addon/wlan/hostap/wpa_supplicant/libwpa_supplicant.a(drivers.o) (wpa_driver_circle_ops)
../../../addon/wlan/hostap/wpa_supplicant/libwpa_supplicant.a(scan_helpers.o)
                              ../../../addon/wlan/hostap/wpa_supplicant/libwpa_supplicant.a(wpa_supplicant.o) (wpa_scan_get_ie)
../../../addon/wlan/hostap/wpa_supplicant/libwpa_supplicant.a(eapol_supp_sm.o)
                              ../../../addon/wlan/hostap/wpa_supplicant/libwpa_supplicant.a(wpa_supplicant.o) (eapol_sm_notify_config)
../../../addon/wlan/hostap/wpa_supplicant/libwpa_supplicant.a(eap.o)
                              ../../../addon/wlan/hostap/wpa_supplicant/libwpa_supplicant.a(eapol_supp_sm.o) (eap_peer_sm_init)
../../../addon/wlan/hostap/wpa_supplicant/libwpa_supplicant.a(eap_methods.o)
                              ../../../addon/wlan/hostap/wpa_supplicant/libwpa_supplicant.a(eap.o) (eap_peer_get_eap_method)
../../../addon/wlan/hostap/wpa_supplicant/libwpa_supplicant.a(l2_packet_circle.o)
                              ../../../addon/wlan/hostap/wpa_supplicant/libwpa_supplicant.a(wpa_supplicant.o) (l2_packet_init)
../../../addon/wlan/hostap/wpa_supplicant/libwpa_supplicant.a(pmksa_cache.o)
                              ../../../addon/wlan/hostap/wpa_supplicant/libwpa_supplicant.a(wpas_glue.o) (pmksa_cache_get_current)
../../../addon/wlan/hostap/wpa_supplicant/libwpa_supplicant.a(preauth.o)
                              ../../../addon/wlan/hostap/wpa_supplicant/libwpa_supplicant.a(wpa_supplicant.o) (pmksa_candidate_free)
../../../addon/wlan/hostap/wpa_supplicant/libwpa_supplicant.a(wpa.o)
                              ../../../addon/wlan/hostap/wpa_supplicant/libwpa_supplicant.a(wpas_glue.o) (wpa_sm_aborted_cached)
../../../addon/wlan/hostap/wpa_supplicant/libwpa_supplicant.a(wpa_ie.o)
                              ../../../addon/wlan/hostap/wpa_supplicant/libwpa_supplicant.a(wpa_supplicant.o) (wpa_parse_wpa_ie)
../../../addon/wlan/hostap/wpa_supplicant/libwpa_supplicant.a(common.o)
                              ../../../addon/wlan/hostap/wpa_supplicant/libwpa_supplicant.a(wpa.o) (inc_byte_array)
../../../addon/wlan/hostap/wpa_supplicant/libwpa_supplicant.a(wpa_debug.o)
                              ../../../addon/wlan/hostap/wpa_supplicant/libwpa_supplicant.a(wpa_supplicant.o) (wpa_printf)
../../../addon/wlan/hostap/wpa_supplicant/libwpa_supplicant.a(wpabuf.o)
                              ../../../addon/wlan/hostap/wpa_supplicant/libwpa_supplicant.a(scan_helpers.o) (wpabuf_alloc)
../../../addon/wlan/hostap/wpa_supplicant/libwpa_supplicant.a(blacklist.o)
                              ../../../addon/wlan/hostap/wpa_supplicant/libwpa_supplicant.a(wpa_supplicant.o) (wpa_blacklist_add)
../../../addon/wlan/hostap/wpa_supplicant/libwpa_supplicant.a(config.o)
                              ../../../addon/wlan/hostap/wpa_supplicant/libwpa_supplicant.a(wpa_supplicant.o) (wpa_config_free)
../../../addon/wlan/hostap/wpa_supplicant/libwpa_supplicant.a(config_file_circle.o)
                              ../../../addon/wlan/hostap/wpa_supplicant/libwpa_supplicant.a(wpa_supplicant.o) (wpa_config_read)
../../../addon/wlan/hostap/wpa_supplicant/libwpa_supplicant.a(events.o)
                              ../../../addon/wlan/hostap/wpa_supplicant/libwpa_supplicant.a(wpa_supplicant.o) (wpa_supplicant_mark_disassoc)
../../../addon/wlan/hostap/wpa_supplicant/libwpa_supplicant.a(notify.o)
                              ../../../addon/wlan/hostap/wpa_supplicant/libwpa_supplicant.a(wpa_supplicant.o) (wpas_notify_supplicant_initialized)
../../../addon/wlan/hostap/wpa_supplicant/libwpa_supplicant.a(scan.o)
                              ../../../addon/wlan/hostap/wpa_supplicant/libwpa_supplicant.a(events.o) (wpa_supplicant_enabled_networks)
../../../addon/wlan/hostap/wpa_supplicant/libwpa_supplicant.a(wpa_common.o)
                              ../../../addon/wlan/hostap/wpa_supplicant/libwpa_supplicant.a(wpa.o) (wpa_eapol_key_mic)
../../../addon/wlan/hostap/wpa_supplicant/libwpa_supplicant.a(aes-unwrap.o)
                              ../../../addon/wlan/hostap/wpa_supplicant/libwpa_supplicant.a(wpa.o) (aes_unwrap)
../../../addon/wlan/hostap/wpa_supplicant/libwpa_supplicant.a(md5-internal.o)
                              ../../../addon/wlan/hostap/wpa_supplicant/libwpa_supplicant.a(eap.o) (md5_vector)
../../../addon/wlan/hostap/wpa_supplicant/libwpa_supplicant.a(md5.o)
                              ../../../addon/wlan/hostap/wpa_supplicant/libwpa_supplicant.a(eapol_supp_sm.o) (hmac_md5)
../../../addon/wlan/hostap/wpa_supplicant/libwpa_supplicant.a(rc4.o)
                              ../../../addon/wlan/hostap/wpa_supplicant/libwpa_supplicant.a(eapol_supp_sm.o) (rc4_skip)
../../../addon/wlan/hostap/wpa_supplicant/libwpa_supplicant.a(sha1-pbkdf2.o)
                              ../../../addon/wlan/hostap/wpa_supplicant/libwpa_supplicant.a(config.o) (pbkdf2_sha1)
../../../addon/wlan/hostap/wpa_supplicant/libwpa_supplicant.a(sha1.o)
                              ../../../addon/wlan/hostap/wpa_supplicant/libwpa_supplicant.a(wpa_common.o) (hmac_sha1_vector)
../../../addon/wlan/hostap/wpa_supplicant/libwpa_supplicant.a(tls_none.o)
                              ../../../addon/wlan/hostap/wpa_supplicant/libwpa_supplicant.a(eap.o) (tls_init)
../../../addon/wlan/hostap/wpa_supplicant/libwpa_supplicant.a(eap_common.o)
                              ../../../addon/wlan/hostap/wpa_supplicant/libwpa_supplicant.a(eap.o) (eap_hdr_validate)
../../../addon/wlan/hostap/wpa_supplicant/libwpa_supplicant.a(base64.o)
                              ../../../addon/wlan/hostap/wpa_supplicant/libwpa_supplicant.a(config_file_circle.o) (base64_encode)
../../../addon/wlan/hostap/wpa_supplicant/libwpa_supplicant.a(aes-internal-dec.o)
                              ../../../addon/wlan/hostap/wpa_supplicant/libwpa_supplicant.a(aes-unwrap.o) (aes_decrypt_init)
../../../addon/wlan/hostap/wpa_supplicant/libwpa_supplicant.a(aes-internal.o)
                              ../../../addon/wlan/hostap/wpa_supplicant/libwpa_supplicant.a(aes-internal-dec.o) (rijndaelKeySetupEnc)
../../../addon/wlan/hostap/wpa_supplicant/libwpa_supplicant.a(sha1-internal.o)
                              ../../../addon/wlan/hostap/wpa_supplicant/libwpa_supplicant.a(sha1.o) (sha1_vector)
../../../addon/wlan/libwlan.a(bcm4343.o)
                              kernel.o (CBcm4343Device::Initialize())
../../../addon/wlan/libwlan.a(ether4330.o)
                              ../../../addon/wlan/libwlan.a(bcm4343.o) (ether4330link)
../../../addon/wlan/libwlan.a(emmc.o)
                              ../../../addon/wlan/libwlan.a(ether4330.o) (sdiocardintr)
../../../addon/wlan/libwlan.a(p9arch.o)
                              ../../../addon/wlan/libwlan.a(emmc.o) (__p9m)
../../../addon/wlan/libwlan.a(p9chan.o)
                              ../../../addon/wlan/libwlan.a(ether4330.o) (cclose)
../../../addon/wlan/libwlan.a(p9cmd.o)
                              ../../../addon/wlan/libwlan.a(ether4330.o) (cmderror)
../../../addon/wlan/libwlan.a(p9error.o)
                              ../../../addon/wlan/libwlan.a(ether4330.o) (__p9error)
../../../addon/wlan/libwlan.a(p9ether.o)
                              ../../../addon/wlan/libwlan.a(bcm4343.o) (allocb)
../../../addon/wlan/libwlan.a(p9proc.o)
                              ../../../addon/wlan/libwlan.a(ether4330.o) (__p9lock)
../../../addon/wlan/libwlan.a(p9util.o)
                              ../../../addon/wlan/libwlan.a(ether4330.o) (__p9readstr)
../../../addon/fatfs/libfatfs.a(ff.o)
                              kernel.o (f_mount)
../../../addon/fatfs/libfatfs.a(diskio.o)
                              ../../../addon/fatfs/libfatfs.a(ff.o) (disk_status)
../../../addon/fatfs/libfatfs.a(ffsystem.o)
                              ../../../addon/fatfs/libfatfs.a(ff.o) (ff_cre_syncobj)
../../../addon/fatfs/libfatfs.a(ffunicode.o)
                              ../../../addon/fatfs/libfatfs.a(ff.o) (ff_uni2oem)
../../../addon/SDCard/libsdcard.a(emmc.o)
                              kernel.o (CEMMCDevice::CEMMCDevice(CInterruptSystem*, CTimer*, CActLED*))
../../../lib/net/libnet.a(netsubsystem.o)
                              kernel.o (CNetSubSystem::GetConfig())
../../../lib/net/libnet.a(nettask.o)
                              ../../../lib/net/libnet.a(netsubsystem.o) (CNetTask::CNetTask(CNetSubSystem*))
../../../lib/net/libnet.a(transportlayer.o)
                              ../../../lib/net/libnet.a(netsubsystem.o) (CTransportLayer::Initialize())
../../../lib/net/libnet.a(networklayer.o)
                              ../../../lib/net/libnet.a(netsubsystem.o) (CNetworkLayer::CNetworkLayer(CNetConfig*, CLinkLayer*))
../../../lib/net/libnet.a(linklayer.o)
                              ../../../lib/net/libnet.a(netsubsystem.o) (CLinkLayer::CLinkLayer(CNetConfig*, CNetDeviceLayer*))
../../../lib/net/libnet.a(netdevlayer.o)
                              ../../../lib/net/libnet.a(netsubsystem.o) (CNetDeviceLayer::CNetDeviceLayer(CNetConfig*, TNetDeviceType))
../../../lib/net/libnet.a(phytask.o)
                              ../../../lib/net/libnet.a(netdevlayer.o) (CPHYTask::CPHYTask(CNetDevice*))
../../../lib/net/libnet.a(arphandler.o)
                              ../../../lib/net/libnet.a(linklayer.o) (CARPHandler::CARPHandler(CNetConfig*, CNetDeviceLayer*, CLinkLayer*, CNetQueue*))
../../../lib/net/libnet.a(icmphandler.o)
                              ../../../lib/net/libnet.a(networklayer.o) (CICMPHandler::CICMPHandler(CNetConfig*, CNetworkLayer*, CNetQueue*, CNetQueue*))
../../../lib/net/libnet.a(routecache.o)
                              ../../../lib/net/libnet.a(networklayer.o) (CRouteCache::CRouteCache())
../../../lib/net/libnet.a(netconnection.o)
                              ../../../lib/net/libnet.a(transportlayer.o) (CNetConnection::GetForeignIP() const)
../../../lib/net/libnet.a(udpconnection.o)
                              ../../../lib/net/libnet.a(transportlayer.o) (CUDPConnection::CUDPConnection(CNetConfig*, CNetworkLayer*, CIPAddress&, unsigned short, unsigned short))
../../../lib/net/libnet.a(tcpconnection.o)
                              ../../../lib/net/libnet.a(transportlayer.o) (CTCPConnection::CTCPConnection(CNetConfig*, CNetworkLayer*, unsigned short))
../../../lib/net/libnet.a(retransmissionqueue.o)
                              ../../../lib/net/libnet.a(tcpconnection.o) (CRetransmissionQueue::CRetransmissionQueue(unsigned int))
../../../lib/net/libnet.a(retranstimeoutcalc.o)
                              ../../../lib/net/libnet.a(tcpconnection.o) (CRetransmissionTimeoutCalculator::CRetransmissionTimeoutCalculator())
../../../lib/net/libnet.a(tcprejector.o)
                              ../../../lib/net/libnet.a(transportlayer.o) (CTCPRejector::~CTCPRejector())
../../../lib/net/libnet.a(netconfig.o)
                              ../../../lib/net/libnet.a(netsubsystem.o) (CNetConfig::~CNetConfig())
../../../lib/net/libnet.a(ipaddress.o)
                              ../../../lib/net/libnet.a(transportlayer.o) (CIPAddress::CIPAddress())
../../../lib/net/libnet.a(netqueue.o)
                              ../../../addon/wlan/libwlan.a(bcm4343.o) (CNetQueue::CNetQueue())
../../../lib/net/libnet.a(checksumcalculator.o)
                              ../../../lib/net/libnet.a(netconnection.o) (CChecksumCalculator::CChecksumCalculator(CIPAddress const&, int))
../../../lib/net/libnet.a(dhcpclient.o)
                              ../../../lib/net/libnet.a(netsubsystem.o) (CDHCPClient::IsBound() const)
../../../lib/net/libnet.a(ntpdaemon.o)
                              kernel.o (CNTPDaemon::CNTPDaemon(char const*, CNetSubSystem*))
../../../lib/net/libnet.a(socket.o)
                              ../../../lib/net/libnet.a(dhcpclient.o) (CSocket::Connect(CIPAddress&, unsigned short))
../../../lib/net/libnet.a(dnsclient.o)
                              ../../../lib/net/libnet.a(ntpdaemon.o) (CDNSClient::CDNSClient(CNetSubSystem*))
../../../lib/net/libnet.a(ntpclient.o)
                              ../../../lib/net/libnet.a(ntpdaemon.o) (CNTPClient::CNTPClient(CNetSubSystem*))
../../../lib/net/libnet.a(netsocket.o)
                              ../../../lib/net/libnet.a(socket.o) (CNetSocket::Connect(char const*, char const*))
../../../lib/sched/libsched.a(task.o)
                              ../../../addon/wlan/libwlan.a(p9proc.o) (CTask::~CTask())
../../../lib/sched/libsched.a(scheduler.o)
                              kernel.o (CScheduler::CScheduler())
../../../lib/sched/libsched.a(taskswitch.o)
                              ../../../lib/sched/libsched.a(scheduler.o) (TaskSwitch)
../../../lib/sched/libsched.a(synchronizationevent.o)
                              ../../../addon/wlan/hostap/wpa_supplicant/libwpa_supplicant.a(wpasupplicant.o) (CSynchronizationEvent::CSynchronizationEvent(bool))
../../../lib/usb/libusb.a(xhcidevice.o)
                              kernel.o (CXHCIDevice::CXHCIDevice(CInterruptSystem*, CTimer*, bool))
../../../lib/usb/libusb.a(xhciendpoint.o)
                              ../../../lib/usb/libusb.a(xhcidevice.o) (CXHCIEndpoint::TransferAsync(CUSBRequest*, unsigned int))
../../../lib/usb/libusb.a(xhcieventmanager.o)
                              ../../../lib/usb/libusb.a(xhcidevice.o) (CXHCIEventManager::CXHCIEventManager(CXHCIDevice*))
../../../lib/usb/libusb.a(xhcimmiospace.o)
                              ../../../lib/usb/libusb.a(xhcidevice.o) (CXHCIMMIOSpace::CXHCIMMIOSpace(unsigned int))
../../../lib/usb/libusb.a(xhciring.o)
                              ../../../lib/usb/libusb.a(xhciendpoint.o) (CXHCIRing::CXHCIRing(TXHCIRingType, unsigned int, CXHCIDevice*))
../../../lib/usb/libusb.a(xhciroothub.o)
                              ../../../lib/usb/libusb.a(xhcidevice.o) (CXHCIRootHub::CXHCIRootHub(unsigned int, CXHCIDevice*))
../../../lib/usb/libusb.a(xhcirootport.o)
                              ../../../lib/usb/libusb.a(xhciroothub.o) (CXHCIRootPort::CXHCIRootPort(unsigned char, CXHCIDevice*))
../../../lib/usb/libusb.a(xhcisharedmemallocator.o)
                              ../../../lib/usb/libusb.a(xhcidevice.o) (CXHCISharedMemAllocator::CXHCISharedMemAllocator(unsigned int, unsigned int))
../../../lib/usb/libusb.a(xhcislotmanager.o)
                              ../../../lib/usb/libusb.a(xhcidevice.o) (CXHCISlotManager::CXHCISlotManager(CXHCIDevice*))
../../../lib/usb/libusb.a(xhciusbdevice.o)
                              ../../../lib/usb/libusb.a(xhcirootport.o) (CXHCIUSBDevice::CXHCIUSBDevice(CXHCIDevice*, TUSBSpeed, CXHCIRootPort*))
../../../lib/usb/libusb.a(usbdevice.o)
                              ../../../lib/usb/libusb.a(xhciusbdevice.o) (CUSBDevice::CUSBDevice(CUSBHostController*, TUSBSpeed, CUSBHCIRootPort*))
../../../lib/usb/libusb.a(usbdevicefactory.o)
                              ../../../lib/usb/libusb.a(usbdevice.o) (CUSBDeviceFactory::GetDevice(CUSBFunction*, CString*))
../../../lib/usb/libusb.a(usbendpoint.o)
                              ../../../lib/usb/libusb.a(usbdevice.o) (CUSBEndpoint::CUSBEndpoint(CUSBDevice*))
../../../lib/usb/libusb.a(usbfunction.o)
                              ../../../lib/usb/libusb.a(usbdevice.o) (CUSBFunction::CUSBFunction(CUSBDevice*, CUSBConfigurationParser*))
../../../lib/usb/libusb.a(usbgamepadps3.o)
                              ../../../lib/usb/libusb.a(usbdevicefactory.o) (CUSBGamePadPS3Device::CUSBGamePadPS3Device(CUSBFunction*))
../../../lib/usb/libusb.a(usbgamepadps4.o)
                              ../../../lib/usb/libusb.a(usbdevicefactory.o) (CUSBGamePadPS4Device::CUSBGamePadPS4Device(CUSBFunction*))
../../../lib/usb/libusb.a(usbgamepadstandard.o)
                              ../../../lib/usb/libusb.a(usbgamepadps3.o) (CUSBGamePadStandardDevice::~CUSBGamePadStandardDevice())
../../../lib/usb/libusb.a(usbgamepadswitchpro.o)
                              ../../../lib/usb/libusb.a(usbdevicefactory.o) (CUSBGamePadSwitchProDevice::CUSBGamePadSwitchProDevice(CUSBFunction*))
../../../lib/usb/libusb.a(usbgamepadxbox360.o)
                              ../../../lib/usb/libusb.a(usbdevicefactory.o) (CUSBGamePadXbox360Device::CUSBGamePadXbox360Device(CUSBFunction*))
../../../lib/usb/libusb.a(usbgamepadxboxone.o)
                              ../../../lib/usb/libusb.a(usbdevicefactory.o) (CUSBGamePadXboxOneDevice::CUSBGamePadXboxOneDevice(CUSBFunction*))
../../../lib/usb/libusb.a(usbhiddevice.o)
                              ../../../lib/usb/libusb.a(usbgamepadps4.o) (CUSBHIDDevice::SendToEndpointOut(void const*, unsigned int, unsigned int))
../../../lib/usb/libusb.a(usbhostcontroller.o)
                              ../../../lib/usb/libusb.a(xhcidevice.o) (CUSBHostController::CUSBHostController(bool))
../../../lib/usb/libusb.a(usbkeyboard.o)
                              ../../../lib/usb/libusb.a(usbdevicefactory.o) (CUSBKeyboardDevice::CUSBKeyboardDevice(CUSBFunction*))
../../../lib/usb/libusb.a(usbmassdevice.o)
                              ../../../lib/usb/libusb.a(usbdevicefactory.o) (CUSBBulkOnlyMassStorageDevice::CUSBBulkOnlyMassStorageDevice(CUSBFunction*))
../../../lib/usb/libusb.a(usbmidi.o)
                              ../../../lib/usb/libusb.a(usbdevicefactory.o) (CUSBMIDIDevice::CUSBMIDIDevice(CUSBFunction*))
../../../lib/usb/libusb.a(usbmouse.o)
                              ../../../lib/usb/libusb.a(usbdevicefactory.o) (CUSBMouseDevice::CUSBMouseDevice(CUSBFunction*))
../../../lib/usb/libusb.a(usbprinter.o)
                              ../../../lib/usb/libusb.a(usbdevicefactory.o) (CUSBPrinterDevice::CUSBPrinterDevice(CUSBFunction*))
../../../lib/usb/libusb.a(usbrequest.o)
                              ../../../lib/usb/libusb.a(usbhiddevice.o) (CUSBRequest::CUSBRequest(CUSBEndpoint*, void*, unsigned int, TSetupData*))
../../../lib/usb/libusb.a(usbstandardhub.o)
                              ../../../lib/usb/libusb.a(usbdevicefactory.o) (CUSBStandardHub::CUSBStandardHub(CUSBFunction*))
../../../lib/usb/libusb.a(xhcicommandmanager.o)
                              ../../../lib/usb/libusb.a(xhcidevice.o) (CXHCICommandManager::CXHCICommandManager(CXHCIDevice*))
../../../lib/usb/libusb.a(lan7800.o)
                              ../../../lib/usb/libusb.a(usbdevicefactory.o) (CLAN7800Device::CLAN7800Device(CUSBFunction*))
../../../lib/usb/libusb.a(smsc951x.o)
                              ../../../lib/usb/libusb.a(usbdevicefactory.o) (CSMSC951xDevice::CSMSC951xDevice(CUSBFunction*))
../../../lib/usb/libusb.a(usbbluetooth.o)
                              ../../../lib/usb/libusb.a(usbdevicefactory.o) (CUSBBluetoothDevice::CUSBBluetoothDevice(CUSBFunction*))
../../../lib/usb/libusb.a(usbcdcethernet.o)
                              ../../../lib/usb/libusb.a(usbdevicefactory.o) (CUSBCDCEthernetDevice::CUSBCDCEthernetDevice(CUSBFunction*))
../../../lib/usb/libusb.a(usbconfigparser.o)
                              ../../../lib/usb/libusb.a(usbdevice.o) (CUSBConfigurationParser::CUSBConfigurationParser(void const*, unsigned int))
../../../lib/usb/libusb.a(usbgamepad.o)
                              ../../../lib/usb/libusb.a(usbgamepadps3.o) (CUSBGamePadDevice::GetInitialState())
../../../lib/usb/libusb.a(usbstring.o)
                              ../../../lib/usb/libusb.a(usbcdcethernet.o) (CUSBString::CUSBString(CUSBDevice*))
../../../lib/input/libinput.a(keyboardbehaviour.o)
                              ../../../lib/usb/libusb.a(usbkeyboard.o) (CKeyboardBehaviour::CKeyboardBehaviour())
../../../lib/input/libinput.a(keymap.o)
                              ../../../lib/input/libinput.a(keyboardbehaviour.o) (CKeyMap::~CKeyMap())
../../../lib/input/libinput.a(mouse.o)
                              ../../../lib/usb/libusb.a(usbgamepadps4.o) (CMouseDevice::CMouseDevice())
../../../lib/input/libinput.a(mousebehaviour.o)
                              ../../../lib/input/libinput.a(mouse.o) (CMouseBehaviour::CMouseBehaviour())
../../../lib/fs/libfs.a(partitionmanager.o)
                              ../../../addon/SDCard/libsdcard.a(emmc.o) (CPartitionManager::CPartitionManager(CDevice*, char const*))
../../../lib/fs/libfs.a(partition.o)
                              ../../../lib/fs/libfs.a(partitionmanager.o) (CPartition::CPartition(CDevice*, unsigned int, unsigned int))
../../../lib/libcircle.a(actled.o)
                              ../../../addon/SDCard/libsdcard.a(emmc.o) (CActLED::Off())
../../../lib/libcircle.a(alloc.o)
                              ../../../addon/wlan/hostap/wpa_supplicant/libwpa_supplicant.a(eloop_circle.o) (malloc)
../../../lib/libcircle.a(assert.o)
                              ../../../addon/wlan/hostap/wpa_supplicant/libwpa_supplicant.a(wpasupplicant.o) (assertion_failed)
../../../lib/libcircle.a(bcmpropertytags.o)
                              ../../../addon/SDCard/libsdcard.a(emmc.o) (CBcmPropertyTags::CBcmPropertyTags(bool))
../../../lib/libcircle.a(classallocator.o)
                              ../../../lib/usb/libusb.a(usbrequest.o) (CClassAllocator::CClassAllocator(unsigned int, unsigned int, char const*))
../../../lib/libcircle.a(debug.o)
                              ../../../addon/wlan/hostap/wpa_supplicant/libwpa_supplicant.a(os_circle.o) (debug_hexdump(void const*, unsigned int, char const*))
../../../lib/libcircle.a(device.o)
                              ../../../addon/SDCard/libsdcard.a(emmc.o) (CDevice::~CDevice())
../../../lib/libcircle.a(devicenameservice.o)
                              kernel.o (CDeviceNameService::CDeviceNameService())
../../../lib/libcircle.a(dmachannel.o)
                              ../../../addon/wlan/libwlan.a(p9arch.o) (CDMAChannel::CDMAChannel(unsigned int, CInterruptSystem*))
../../../lib/libcircle.a(gpiopin.o)
                              ../../../addon/SDCard/libsdcard.a(emmc.o) (CGPIOPin::CGPIOPin())
../../../lib/libcircle.a(koptions.o)
                              kernel.o (CKernelOptions::~CKernelOptions())
../../../lib/libcircle.a(logger.o)
                              kernel.o (CLogger::CLogger(unsigned int, CTimer*))
../../../lib/libcircle.a(machineinfo.o)
                              ../../../addon/SDCard/libsdcard.a(emmc.o) (CMachineInfo::GetMachineModel() const)
../../../lib/libcircle.a(ptrarray.o)
                              ../../../lib/net/libnet.a(transportlayer.o) (CPtrArray::CPtrArray(unsigned int, unsigned int))
../../../lib/libcircle.a(ptrlist.o)
                              ../../../lib/usb/libusb.a(usbhostcontroller.o) (CPtrList::CPtrList())
../../../lib/libcircle.a(screen.o)
                              kernel.o (CScreenDevice::CScreenDevice(unsigned int, unsigned int, unsigned int, unsigned int, bool))
../../../lib/libcircle.a(serial.o)
                              kernel.o (CSerialDevice::CSerialDevice(CInterruptSystem*, bool, unsigned int))
../../../lib/libcircle.a(string.o)
                              kernel.o (CString::~CString())
../../../lib/libcircle.a(sysinit.o)
                              ../../../lib/usb/libusb.a(usbkeyboard.o) (__dso_handle)
../../../lib/libcircle.a(timer.o)
                              kernel.o (CTimer::CTimer(CInterruptSystem*))
../../../lib/libcircle.a(util.o)
                              ../../../addon/wlan/hostap/wpa_supplicant/libwpa_supplicant.a(eloop_circle.o) (memset)
../../../lib/libcircle.a(util_fast.o)
                              ../../../addon/wlan/hostap/wpa_supplicant/libwpa_supplicant.a(os_circle.o) (memcpy)
../../../lib/libcircle.a(virtualgpiopin.o)
                              ../../../lib/libcircle.a(actled.o) (CVirtualGPIOPin::Write(unsigned int))
../../../lib/libcircle.a(chainboot.o)
                              ../../../lib/libcircle.a(sysinit.o) (IsChainBootEnabled)
../../../lib/libcircle.a(macaddress.o)
                              ../../../addon/wlan/hostap/wpa_supplicant/libwpa_supplicant.a(l2_packet_circle.o) (CMACAddress::CMACAddress())
../../../lib/libcircle.a(netdevice.o)
                              ../../../addon/wlan/libwlan.a(bcm4343.o) (CNetDevice::AddNetDevice())
../../../lib/libcircle.a(new.o)
                              ../../../lib/usb/libusb.a(usbmassdevice.o) (operator new[](unsigned int, int))
../../../lib/libcircle.a(heapallocator.o)
                              ../../../lib/libcircle.a(alloc.o) (CHeapAllocator::Allocate(unsigned int))
../../../lib/libcircle.a(pageallocator.o)
                              ../../../lib/libcircle.a(alloc.o) (CPageAllocator::Allocate())
../../../lib/libcircle.a(setjmp.o)
                              ../../../addon/wlan/libwlan.a(bcm4343.o) (setjmp)
../../../lib/libcircle.a(numberpool.o)
                              ../../../lib/usb/libusb.a(usbkeyboard.o) (CNumberPool::CNumberPool(unsigned int, unsigned int))
../../../lib/libcircle.a(cache-v7.o)
                              ../../../lib/libcircle.a(sysinit.o) (InvalidateDataCacheL1Only)
../../../lib/libcircle.a(exceptionhandler.o)
                              kernel.o (CExceptionHandler::CExceptionHandler())
../../../lib/libcircle.a(exceptionstub.o)
                              ../../../lib/libcircle.a(exceptionhandler.o) (PrefetchAbortStub)
../../../lib/libcircle.a(memory.o)
                              ../../../lib/libcircle.a(alloc.o) (CMemorySystem::s_pThis)
../../../lib/libcircle.a(pagetable.o)
                              ../../../lib/libcircle.a(memory.o) (CPageTable::GetBaseAddress() const)
../../../lib/libcircle.a(startup.o)
                              (_start)
../../../lib/libcircle.a(synchronize.o)
                              ../../../addon/wlan/libwlan.a(p9proc.o) (EnterCritical)
../../../lib/libcircle.a(bcm54213.o)
                              ../../../lib/net/libnet.a(netdevlayer.o) (CBcm54213Device::CBcm54213Device())
../../../lib/libcircle.a(bcmpciehostbridge.o)
                              ../../../lib/usb/libusb.a(xhcidevice.o) (CBcmPCIeHostBridge::s_nDMAAddress)
../../../lib/libcircle.a(bcmrandom200.o)
                              ../../../addon/wlan/hostap/wpa_supplicant/libwpa_supplicant.a(os_circle.o) (CBcmRandomNumberGenerator::CBcmRandomNumberGenerator())
../../../lib/libcircle.a(interruptgic.o)
                              kernel.o (CInterruptSystem::CInterruptSystem())
../../../lib/libcircle.a(dma4channel.o)
                              ../../../lib/libcircle.a(dmachannel.o) (CDMA4Channel::CDMA4Channel(unsigned int, CInterruptSystem*))
../../../lib/libcircle.a(devicetreeblob.o)
                              ../../../lib/libcircle.a(machineinfo.o) (CDeviceTreeBlob::CDeviceTreeBlob(void const*))
../../../lib/libcircle.a(bcmframebuffer.o)
                              ../../../lib/libcircle.a(screen.o) (CBcmFrameBuffer::CBcmFrameBuffer(unsigned int, unsigned int, unsigned int, unsigned int, unsigned int))
../../../lib/libcircle.a(bcmmailbox.o)
                              ../../../lib/libcircle.a(bcmpropertytags.o) (CBcmMailBox::CBcmMailBox(unsigned int, bool))
../../../lib/libcircle.a(chargenerator.o)
                              ../../../lib/libcircle.a(screen.o) (CCharGenerator::CCharGenerator())
../../../lib/libcircle.a(delayloop.o)
                              ../../../lib/libcircle.a(timer.o) (DelayLoop)
../../../lib/libcircle.a(gpiomanager.o)
                              ../../../lib/libcircle.a(gpiopin.o) (CGPIOManager::ConnectInterrupt(CGPIOPin*))
/home/olf/projects/circle/gcc-arm-9.2-2019.12-x86_64-arm-none-eabi/bin/../lib/gcc/arm-none-eabi/9.2.1/../../../../arm-none-eabi/lib/thumb/v8-a+simd/hard/libstdc++.a(class_type_info.o)
                              ../../../addon/wlan/libwlan.a(bcm4343.o) (vtable for __cxxabiv1::__class_type_info)
/home/olf/projects/circle/gcc-arm-9.2-2019.12-x86_64-arm-none-eabi/bin/../lib/gcc/arm-none-eabi/9.2.1/../../../../arm-none-eabi/lib/thumb/v8-a+simd/hard/libstdc++.a(del_ops.o)
                              kernel.o (operator delete(void*, unsigned int))
/home/olf/projects/circle/gcc-arm-9.2-2019.12-x86_64-arm-none-eabi/bin/../lib/gcc/arm-none-eabi/9.2.1/../../../../arm-none-eabi/lib/thumb/v8-a+simd/hard/libstdc++.a(del_opv.o)
                              ../../../addon/wlan/libwlan.a(p9ether.o) (operator delete[](void*))
/home/olf/projects/circle/gcc-arm-9.2-2019.12-x86_64-arm-none-eabi/bin/../lib/gcc/arm-none-eabi/9.2.1/../../../../arm-none-eabi/lib/thumb/v8-a+simd/hard/libstdc++.a(eh_arm.o)
                              main.o (__cxa_end_cleanup)
/home/olf/projects/circle/gcc-arm-9.2-2019.12-x86_64-arm-none-eabi/bin/../lib/gcc/arm-none-eabi/9.2.1/../../../../arm-none-eabi/lib/thumb/v8-a+simd/hard/libstdc++.a(eh_aux_runtime.o)
                              ../../../lib/libcircle.a(ptrarray.o) (__cxa_throw_bad_array_new_length)
/home/olf/projects/circle/gcc-arm-9.2-2019.12-x86_64-arm-none-eabi/bin/../lib/gcc/arm-none-eabi/9.2.1/../../../../arm-none-eabi/lib/thumb/v8-a+simd/hard/libstdc++.a(eh_exception.o)
                              /home/olf/projects/circle/gcc-arm-9.2-2019.12-x86_64-arm-none-eabi/bin/../lib/gcc/arm-none-eabi/9.2.1/../../../../arm-none-eabi/lib/thumb/v8-a+simd/hard/libstdc++.a(eh_arm.o) (typeinfo for __cxxabiv1::__forced_unwind)
/home/olf/projects/circle/gcc-arm-9.2-2019.12-x86_64-arm-none-eabi/bin/../lib/gcc/arm-none-eabi/9.2.1/../../../../arm-none-eabi/lib/thumb/v8-a+simd/hard/libstdc++.a(eh_globals.o)
                              /home/olf/projects/circle/gcc-arm-9.2-2019.12-x86_64-arm-none-eabi/bin/../lib/gcc/arm-none-eabi/9.2.1/../../../../arm-none-eabi/lib/thumb/v8-a+simd/hard/libstdc++.a(eh_arm.o) (__cxa_get_globals)
/home/olf/projects/circle/gcc-arm-9.2-2019.12-x86_64-arm-none-eabi/bin/../lib/gcc/arm-none-eabi/9.2.1/../../../../arm-none-eabi/lib/thumb/v8-a+simd/hard/libstdc++.a(eh_personality.o)
                              main.o (__gxx_personality_v0)
/home/olf/projects/circle/gcc-arm-9.2-2019.12-x86_64-arm-none-eabi/bin/../lib/gcc/arm-none-eabi/9.2.1/../../../../arm-none-eabi/lib/thumb/v8-a+simd/hard/libstdc++.a(eh_terminate.o)
                              /home/olf/projects/circle/gcc-arm-9.2-2019.12-x86_64-arm-none-eabi/bin/../lib/gcc/arm-none-eabi/9.2.1/../../../../arm-none-eabi/lib/thumb/v8-a+simd/hard/libstdc++.a(eh_arm.o) (std::terminate())
/home/olf/projects/circle/gcc-arm-9.2-2019.12-x86_64-arm-none-eabi/bin/../lib/gcc/arm-none-eabi/9.2.1/../../../../arm-none-eabi/lib/thumb/v8-a+simd/hard/libstdc++.a(eh_throw.o)
                              /home/olf/projects/circle/gcc-arm-9.2-2019.12-x86_64-arm-none-eabi/bin/../lib/gcc/arm-none-eabi/9.2.1/../../../../arm-none-eabi/lib/thumb/v8-a+simd/hard/libstdc++.a(eh_aux_runtime.o) (__cxa_throw)
/home/olf/projects/circle/gcc-arm-9.2-2019.12-x86_64-arm-none-eabi/bin/../lib/gcc/arm-none-eabi/9.2.1/../../../../arm-none-eabi/lib/thumb/v8-a+simd/hard/libstdc++.a(eh_unex_handler.o)
                              /home/olf/projects/circle/gcc-arm-9.2-2019.12-x86_64-arm-none-eabi/bin/../lib/gcc/arm-none-eabi/9.2.1/../../../../arm-none-eabi/lib/thumb/v8-a+simd/hard/libstdc++.a(eh_terminate.o) (__cxxabiv1::__unexpected_handler)
/home/olf/projects/circle/gcc-arm-9.2-2019.12-x86_64-arm-none-eabi/bin/../lib/gcc/arm-none-eabi/9.2.1/../../../../arm-none-eabi/lib/thumb/v8-a+simd/hard/libstdc++.a(new_op.o)
                              kernel.o (operator new(unsigned int))
/home/olf/projects/circle/gcc-arm-9.2-2019.12-x86_64-arm-none-eabi/bin/../lib/gcc/arm-none-eabi/9.2.1/../../../../arm-none-eabi/lib/thumb/v8-a+simd/hard/libstdc++.a(new_opv.o)
                              ../../../addon/wlan/libwlan.a(p9ether.o) (operator new[](unsigned int))
/home/olf/projects/circle/gcc-arm-9.2-2019.12-x86_64-arm-none-eabi/bin/../lib/gcc/arm-none-eabi/9.2.1/../../../../arm-none-eabi/lib/thumb/v8-a+simd/hard/libstdc++.a(pure.o)
                              ../../../lib/net/libnet.a(netconnection.o) (__cxa_pure_virtual)
/home/olf/projects/circle/gcc-arm-9.2-2019.12-x86_64-arm-none-eabi/bin/../lib/gcc/arm-none-eabi/9.2.1/../../../../arm-none-eabi/lib/thumb/v8-a+simd/hard/libstdc++.a(si_class_type_info.o)
                              ../../../addon/wlan/libwlan.a(bcm4343.o) (vtable for __cxxabiv1::__si_class_type_info)
/home/olf/projects/circle/gcc-arm-9.2-2019.12-x86_64-arm-none-eabi/bin/../lib/gcc/arm-none-eabi/9.2.1/../../../../arm-none-eabi/lib/thumb/v8-a+simd/hard/libstdc++.a(tinfo.o)
                              /home/olf/projects/circle/gcc-arm-9.2-2019.12-x86_64-arm-none-eabi/bin/../lib/gcc/arm-none-eabi/9.2.1/../../../../arm-none-eabi/lib/thumb/v8-a+simd/hard/libstdc++.a(class_type_info.o) (std::type_info::~type_info())
/home/olf/projects/circle/gcc-arm-9.2-2019.12-x86_64-arm-none-eabi/bin/../lib/gcc/arm-none-eabi/9.2.1/../../../../arm-none-eabi/lib/thumb/v8-a+simd/hard/libstdc++.a(vmi_class_type_info.o)
                              ../../../lib/usb/libusb.a(lan7800.o) (vtable for __cxxabiv1::__vmi_class_type_info)
/home/olf/projects/circle/gcc-arm-9.2-2019.12-x86_64-arm-none-eabi/bin/../lib/gcc/arm-none-eabi/9.2.1/../../../../arm-none-eabi/lib/thumb/v8-a+simd/hard/libstdc++.a(vterminate.o)
                              /home/olf/projects/circle/gcc-arm-9.2-2019.12-x86_64-arm-none-eabi/bin/../lib/gcc/arm-none-eabi/9.2.1/../../../../arm-none-eabi/lib/thumb/v8-a+simd/hard/libstdc++.a(eh_terminate.o) (__gnu_cxx::__verbose_terminate_handler())
/home/olf/projects/circle/gcc-arm-9.2-2019.12-x86_64-arm-none-eabi/bin/../lib/gcc/arm-none-eabi/9.2.1/../../../../arm-none-eabi/lib/thumb/v8-a+simd/hard/libstdc++.a(bad_alloc.o)
                              /home/olf/projects/circle/gcc-arm-9.2-2019.12-x86_64-arm-none-eabi/bin/../lib/gcc/arm-none-eabi/9.2.1/../../../../arm-none-eabi/lib/thumb/v8-a+simd/hard/libstdc++.a(new_op.o) (std::bad_alloc::~bad_alloc())
/home/olf/projects/circle/gcc-arm-9.2-2019.12-x86_64-arm-none-eabi/bin/../lib/gcc/arm-none-eabi/9.2.1/../../../../arm-none-eabi/lib/thumb/v8-a+simd/hard/libstdc++.a(bad_array_new.o)
                              /home/olf/projects/circle/gcc-arm-9.2-2019.12-x86_64-arm-none-eabi/bin/../lib/gcc/arm-none-eabi/9.2.1/../../../../arm-none-eabi/lib/thumb/v8-a+simd/hard/libstdc++.a(eh_aux_runtime.o) (std::bad_array_new_length::~bad_array_new_length())
/home/olf/projects/circle/gcc-arm-9.2-2019.12-x86_64-arm-none-eabi/bin/../lib/gcc/arm-none-eabi/9.2.1/../../../../arm-none-eabi/lib/thumb/v8-a+simd/hard/libstdc++.a(bad_cast.o)
                              /home/olf/projects/circle/gcc-arm-9.2-2019.12-x86_64-arm-none-eabi/bin/../lib/gcc/arm-none-eabi/9.2.1/../../../../arm-none-eabi/lib/thumb/v8-a+simd/hard/libstdc++.a(eh_aux_runtime.o) (std::bad_cast::~bad_cast())
/home/olf/projects/circle/gcc-arm-9.2-2019.12-x86_64-arm-none-eabi/bin/../lib/gcc/arm-none-eabi/9.2.1/../../../../arm-none-eabi/lib/thumb/v8-a+simd/hard/libstdc++.a(bad_typeid.o)
                              /home/olf/projects/circle/gcc-arm-9.2-2019.12-x86_64-arm-none-eabi/bin/../lib/gcc/arm-none-eabi/9.2.1/../../../../arm-none-eabi/lib/thumb/v8-a+simd/hard/libstdc++.a(eh_aux_runtime.o) (std::bad_typeid::~bad_typeid())
/home/olf/projects/circle/gcc-arm-9.2-2019.12-x86_64-arm-none-eabi/bin/../lib/gcc/arm-none-eabi/9.2.1/../../../../arm-none-eabi/lib/thumb/v8-a+simd/hard/libstdc++.a(cp-demangle.o)
                              /home/olf/projects/circle/gcc-arm-9.2-2019.12-x86_64-arm-none-eabi/bin/../lib/gcc/arm-none-eabi/9.2.1/../../../../arm-none-eabi/lib/thumb/v8-a+simd/hard/libstdc++.a(vterminate.o) (__cxa_demangle)
/home/olf/projects/circle/gcc-arm-9.2-2019.12-x86_64-arm-none-eabi/bin/../lib/gcc/arm-none-eabi/9.2.1/../../../../arm-none-eabi/lib/thumb/v8-a+simd/hard/libstdc++.a(del_op.o)
                              /home/olf/projects/circle/gcc-arm-9.2-2019.12-x86_64-arm-none-eabi/bin/../lib/gcc/arm-none-eabi/9.2.1/../../../../arm-none-eabi/lib/thumb/v8-a+simd/hard/libstdc++.a(del_ops.o) (operator delete(void*))
/home/olf/projects/circle/gcc-arm-9.2-2019.12-x86_64-arm-none-eabi/bin/../lib/gcc/arm-none-eabi/9.2.1/../../../../arm-none-eabi/lib/thumb/v8-a+simd/hard/libstdc++.a(eh_alloc.o)
                              /home/olf/projects/circle/gcc-arm-9.2-2019.12-x86_64-arm-none-eabi/bin/../lib/gcc/arm-none-eabi/9.2.1/../../../../arm-none-eabi/lib/thumb/v8-a+simd/hard/libstdc++.a(eh_aux_runtime.o) (__cxa_allocate_exception)
/home/olf/projects/circle/gcc-arm-9.2-2019.12-x86_64-arm-none-eabi/bin/../lib/gcc/arm-none-eabi/9.2.1/../../../../arm-none-eabi/lib/thumb/v8-a+simd/hard/libstdc++.a(eh_call.o)
                              /home/olf/projects/circle/gcc-arm-9.2-2019.12-x86_64-arm-none-eabi/bin/../lib/gcc/arm-none-eabi/9.2.1/../../../../arm-none-eabi/lib/thumb/v8-a+simd/hard/libstdc++.a(eh_personality.o) (__cxa_call_terminate)
/home/olf/projects/circle/gcc-arm-9.2-2019.12-x86_64-arm-none-eabi/bin/../lib/gcc/arm-none-eabi/9.2.1/../../../../arm-none-eabi/lib/thumb/v8-a+simd/hard/libstdc++.a(eh_catch.o)
                              /home/olf/projects/circle/gcc-arm-9.2-2019.12-x86_64-arm-none-eabi/bin/../lib/gcc/arm-none-eabi/9.2.1/../../../../arm-none-eabi/lib/thumb/v8-a+simd/hard/libstdc++.a(eh_personality.o) (__cxa_begin_catch)
/home/olf/projects/circle/gcc-arm-9.2-2019.12-x86_64-arm-none-eabi/bin/../lib/gcc/arm-none-eabi/9.2.1/../../../../arm-none-eabi/lib/thumb/v8-a+simd/hard/libstdc++.a(eh_term_handler.o)
                              /home/olf/projects/circle/gcc-arm-9.2-2019.12-x86_64-arm-none-eabi/bin/../lib/gcc/arm-none-eabi/9.2.1/../../../../arm-none-eabi/lib/thumb/v8-a+simd/hard/libstdc++.a(eh_terminate.o) (__cxxabiv1::__terminate_handler)
/home/olf/projects/circle/gcc-arm-9.2-2019.12-x86_64-arm-none-eabi/bin/../lib/gcc/arm-none-eabi/9.2.1/../../../../arm-none-eabi/lib/thumb/v8-a+simd/hard/libstdc++.a(eh_type.o)
                              /home/olf/projects/circle/gcc-arm-9.2-2019.12-x86_64-arm-none-eabi/bin/../lib/gcc/arm-none-eabi/9.2.1/../../../../arm-none-eabi/lib/thumb/v8-a+simd/hard/libstdc++.a(vterminate.o) (__cxa_current_exception_type)
/home/olf/projects/circle/gcc-arm-9.2-2019.12-x86_64-arm-none-eabi/bin/../lib/gcc/arm-none-eabi/9.2.1/../../../../arm-none-eabi/lib/thumb/v8-a+simd/hard/libstdc++.a(new_handler.o)
                              /home/olf/projects/circle/gcc-arm-9.2-2019.12-x86_64-arm-none-eabi/bin/../lib/gcc/arm-none-eabi/9.2.1/../../../../arm-none-eabi/lib/thumb/v8-a+simd/hard/libstdc++.a(new_op.o) (std::get_new_handler())
/home/olf/projects/circle/gcc-arm-9.2-2019.12-x86_64-arm-none-eabi/bin/../lib/gcc/arm-none-eabi/9.2.1/thumb/v8-a+simd/hard/libgcc.a(_aeabi_ldivmod.o)
                              ../../../lib/libcircle.a(string.o) (__aeabi_ldivmod)
/home/olf/projects/circle/gcc-arm-9.2-2019.12-x86_64-arm-none-eabi/bin/../lib/gcc/arm-none-eabi/9.2.1/thumb/v8-a+simd/hard/libgcc.a(_aeabi_uldivmod.o)
                              ../../../lib/libcircle.a(string.o) (__aeabi_uldivmod)
/home/olf/projects/circle/gcc-arm-9.2-2019.12-x86_64-arm-none-eabi/bin/../lib/gcc/arm-none-eabi/9.2.1/thumb/v8-a+simd/hard/libgcc.a(_udivmoddi4.o)
                              /home/olf/projects/circle/gcc-arm-9.2-2019.12-x86_64-arm-none-eabi/bin/../lib/gcc/arm-none-eabi/9.2.1/thumb/v8-a+simd/hard/libgcc.a(_aeabi_ldivmod.o) (__udivmoddi4)
/home/olf/projects/circle/gcc-arm-9.2-2019.12-x86_64-arm-none-eabi/bin/../lib/gcc/arm-none-eabi/9.2.1/thumb/v8-a+simd/hard/libgcc.a(unwind-arm.o)
                              kernel.o (__aeabi_unwind_cpp_pr0)
/home/olf/projects/circle/gcc-arm-9.2-2019.12-x86_64-arm-none-eabi/bin/../lib/gcc/arm-none-eabi/9.2.1/thumb/v8-a+simd/hard/libgcc.a(libunwind.o)
                              /home/olf/projects/circle/gcc-arm-9.2-2019.12-x86_64-arm-none-eabi/bin/../lib/gcc/arm-none-eabi/9.2.1/thumb/v8-a+simd/hard/libgcc.a(unwind-arm.o) (restore_core_regs)
/home/olf/projects/circle/gcc-arm-9.2-2019.12-x86_64-arm-none-eabi/bin/../lib/gcc/arm-none-eabi/9.2.1/thumb/v8-a+simd/hard/libgcc.a(pr-support.o)
                              /home/olf/projects/circle/gcc-arm-9.2-2019.12-x86_64-arm-none-eabi/bin/../lib/gcc/arm-none-eabi/9.2.1/thumb/v8-a+simd/hard/libgcc.a(unwind-arm.o) (__gnu_unwind_execute)
/home/olf/projects/circle/gcc-arm-9.2-2019.12-x86_64-arm-none-eabi/bin/../lib/gcc/arm-none-eabi/9.2.1/thumb/v8-a+simd/hard/libgcc.a(_dvmd_tls.o)
                              /home/olf/projects/circle/gcc-arm-9.2-2019.12-x86_64-arm-none-eabi/bin/../lib/gcc/arm-none-eabi/9.2.1/thumb/v8-a+simd/hard/libgcc.a(_aeabi_ldivmod.o) (__aeabi_ldiv0)

Discarded input sections

 .group         0x0000000000000000       0x14 ../../../addon/wlan/libwlan.a(bcm4343.o)
 .group         0x0000000000000000       0x14 ../../../addon/wlan/libwlan.a(bcm4343.o)
 .group         0x0000000000000000       0x14 ../../../addon/wlan/libwlan.a(bcm4343.o)
 .group         0x0000000000000000       0x14 ../../../addon/wlan/libwlan.a(bcm4343.o)
 .group         0x0000000000000000       0x14 ../../../addon/wlan/libwlan.a(bcm4343.o)
 .group         0x0000000000000000        0x8 ../../../addon/wlan/libwlan.a(bcm4343.o)
 .group         0x0000000000000000        0xc ../../../addon/wlan/libwlan.a(bcm4343.o)
 .group         0x0000000000000000       0x18 ../../../addon/wlan/libwlan.a(p9proc.o)
 .group         0x0000000000000000       0x2c ../../../addon/wlan/libwlan.a(p9proc.o)
 .group         0x0000000000000000        0x8 ../../../addon/wlan/libwlan.a(p9proc.o)
 .group         0x0000000000000000        0xc ../../../addon/wlan/libwlan.a(p9proc.o)
 .group         0x0000000000000000        0xc ../../../addon/wlan/libwlan.a(p9proc.o)
 .group         0x0000000000000000       0x14 ../../../lib/net/libnet.a(transportlayer.o)
 .group         0x0000000000000000       0x14 ../../../lib/net/libnet.a(transportlayer.o)
 .group         0x0000000000000000       0x14 ../../../lib/net/libnet.a(transportlayer.o)
 .group         0x0000000000000000       0x14 ../../../lib/net/libnet.a(transportlayer.o)
 .group         0x0000000000000000       0x14 ../../../lib/net/libnet.a(transportlayer.o)
 .group         0x0000000000000000       0x14 ../../../lib/net/libnet.a(transportlayer.o)
 .group         0x0000000000000000       0x14 ../../../lib/net/libnet.a(transportlayer.o)
 .group         0x0000000000000000       0x14 ../../../lib/net/libnet.a(transportlayer.o)
 .group         0x0000000000000000       0x14 ../../../lib/net/libnet.a(transportlayer.o)
 .group         0x0000000000000000       0x14 ../../../lib/net/libnet.a(transportlayer.o)
 .group         0x0000000000000000       0x14 ../../../lib/net/libnet.a(transportlayer.o)
 .group         0x0000000000000000       0x14 ../../../lib/net/libnet.a(transportlayer.o)
 .group         0x0000000000000000       0x14 ../../../lib/net/libnet.a(phytask.o)
 .text._ZN10CNetDevice9UpdatePHYEv
                0x0000000000000000        0x8 ../../../lib/net/libnet.a(phytask.o)
 .ARM.extab.text._ZN10CNetDevice9UpdatePHYEv
                0x0000000000000000        0x0 ../../../lib/net/libnet.a(phytask.o)
 .ARM.exidx.text._ZN10CNetDevice9UpdatePHYEv
                0x0000000000000000        0x8 ../../../lib/net/libnet.a(phytask.o)
 .group         0x0000000000000000       0x14 ../../../lib/net/libnet.a(tcprejector.o)
 .group         0x0000000000000000       0x14 ../../../lib/net/libnet.a(tcprejector.o)
 .group         0x0000000000000000       0x14 ../../../lib/net/libnet.a(tcprejector.o)
 .group         0x0000000000000000       0x14 ../../../lib/net/libnet.a(tcprejector.o)
 .group         0x0000000000000000       0x14 ../../../lib/net/libnet.a(tcprejector.o)
 .group         0x0000000000000000       0x14 ../../../lib/net/libnet.a(tcprejector.o)
 .group         0x0000000000000000       0x14 ../../../lib/net/libnet.a(tcprejector.o)
 .group         0x0000000000000000       0x14 ../../../lib/net/libnet.a(tcprejector.o)
 .group         0x0000000000000000       0x14 ../../../lib/net/libnet.a(tcprejector.o)
 .group         0x0000000000000000       0x14 ../../../lib/net/libnet.a(tcprejector.o)
 .group         0x0000000000000000       0x14 ../../../lib/net/libnet.a(tcprejector.o)
 .group         0x0000000000000000       0x14 ../../../lib/net/libnet.a(tcprejector.o)
 .text._ZN12CTCPRejector7ConnectEv
                0x0000000000000000        0x8 ../../../lib/net/libnet.a(tcprejector.o)
 .ARM.extab.text._ZN12CTCPRejector7ConnectEv
                0x0000000000000000        0x0 ../../../lib/net/libnet.a(tcprejector.o)
 .ARM.exidx.text._ZN12CTCPRejector7ConnectEv
                0x0000000000000000        0x8 ../../../lib/net/libnet.a(tcprejector.o)
 .text._ZN12CTCPRejector6AcceptEP10CIPAddressPt
                0x0000000000000000        0x8 ../../../lib/net/libnet.a(tcprejector.o)
 .ARM.extab.text._ZN12CTCPRejector6AcceptEP10CIPAddressPt
                0x0000000000000000        0x0 ../../../lib/net/libnet.a(tcprejector.o)
 .ARM.exidx.text._ZN12CTCPRejector6AcceptEP10CIPAddressPt
                0x0000000000000000        0x8 ../../../lib/net/libnet.a(tcprejector.o)
 .text._ZN12CTCPRejector5CloseEv
                0x0000000000000000        0x8 ../../../lib/net/libnet.a(tcprejector.o)
 .ARM.extab.text._ZN12CTCPRejector5CloseEv
                0x0000000000000000        0x0 ../../../lib/net/libnet.a(tcprejector.o)
 .ARM.exidx.text._ZN12CTCPRejector5CloseEv
                0x0000000000000000        0x8 ../../../lib/net/libnet.a(tcprejector.o)
 .text._ZN12CTCPRejector4SendEPKvji
                0x0000000000000000        0x8 ../../../lib/net/libnet.a(tcprejector.o)
 .ARM.extab.text._ZN12CTCPRejector4SendEPKvji
                0x0000000000000000        0x0 ../../../lib/net/libnet.a(tcprejector.o)
 .ARM.exidx.text._ZN12CTCPRejector4SendEPKvji
                0x0000000000000000        0x8 ../../../lib/net/libnet.a(tcprejector.o)
 .text._ZN12CTCPRejector7ReceiveEPvi
                0x0000000000000000        0x8 ../../../lib/net/libnet.a(tcprejector.o)
 .ARM.extab.text._ZN12CTCPRejector7ReceiveEPvi
                0x0000000000000000        0x0 ../../../lib/net/libnet.a(tcprejector.o)
 .ARM.exidx.text._ZN12CTCPRejector7ReceiveEPvi
                0x0000000000000000        0x8 ../../../lib/net/libnet.a(tcprejector.o)
 .text._ZN12CTCPRejector6SendToEPKvjiR10CIPAddresst
                0x0000000000000000        0x8 ../../../lib/net/libnet.a(tcprejector.o)
 .ARM.extab.text._ZN12CTCPRejector6SendToEPKvjiR10CIPAddresst
                0x0000000000000000        0x0 ../../../lib/net/libnet.a(tcprejector.o)
 .ARM.exidx.text._ZN12CTCPRejector6SendToEPKvjiR10CIPAddresst
                0x0000000000000000        0x8 ../../../lib/net/libnet.a(tcprejector.o)
 .text._ZN12CTCPRejector11ReceiveFromEPviP10CIPAddressPt
                0x0000000000000000        0x8 ../../../lib/net/libnet.a(tcprejector.o)
 .ARM.extab.text._ZN12CTCPRejector11ReceiveFromEPviP10CIPAddressPt
                0x0000000000000000        0x0 ../../../lib/net/libnet.a(tcprejector.o)
 .ARM.exidx.text._ZN12CTCPRejector11ReceiveFromEPviP10CIPAddressPt
                0x0000000000000000        0x8 ../../../lib/net/libnet.a(tcprejector.o)
 .text._ZN12CTCPRejector18SetOptionBroadcastEb
                0x0000000000000000        0x8 ../../../lib/net/libnet.a(tcprejector.o)
 .ARM.extab.text._ZN12CTCPRejector18SetOptionBroadcastEb
                0x0000000000000000        0x0 ../../../lib/net/libnet.a(tcprejector.o)
 .ARM.exidx.text._ZN12CTCPRejector18SetOptionBroadcastEb
                0x0000000000000000        0x8 ../../../lib/net/libnet.a(tcprejector.o)
 .text._ZNK12CTCPRejector11IsConnectedEv
                0x0000000000000000        0x8 ../../../lib/net/libnet.a(tcprejector.o)
 .ARM.extab.text._ZNK12CTCPRejector11IsConnectedEv
                0x0000000000000000        0x0 ../../../lib/net/libnet.a(tcprejector.o)
 .ARM.exidx.text._ZNK12CTCPRejector11IsConnectedEv
                0x0000000000000000        0x8 ../../../lib/net/libnet.a(tcprejector.o)
 .text._ZNK12CTCPRejector12IsTerminatedEv
                0x0000000000000000        0x8 ../../../lib/net/libnet.a(tcprejector.o)
 .ARM.extab.text._ZNK12CTCPRejector12IsTerminatedEv
                0x0000000000000000        0x0 ../../../lib/net/libnet.a(tcprejector.o)
 .ARM.exidx.text._ZNK12CTCPRejector12IsTerminatedEv
                0x0000000000000000        0x8 ../../../lib/net/libnet.a(tcprejector.o)
 .text._ZN12CTCPRejector7ProcessEv
                0x0000000000000000        0x4 ../../../lib/net/libnet.a(tcprejector.o)
 .ARM.extab.text._ZN12CTCPRejector7ProcessEv
                0x0000000000000000        0x0 ../../../lib/net/libnet.a(tcprejector.o)
 .ARM.exidx.text._ZN12CTCPRejector7ProcessEv
                0x0000000000000000        0x8 ../../../lib/net/libnet.a(tcprejector.o)
 .text._ZN12CTCPRejector20NotificationReceivedE21TICMPNotificationTypeR10CIPAddressS2_tti
                0x0000000000000000        0x8 ../../../lib/net/libnet.a(tcprejector.o)
 .ARM.extab.text._ZN12CTCPRejector20NotificationReceivedE21TICMPNotificationTypeR10CIPAddressS2_tti
                0x0000000000000000        0x0 ../../../lib/net/libnet.a(tcprejector.o)
 .ARM.exidx.text._ZN12CTCPRejector20NotificationReceivedE21TICMPNotificationTypeR10CIPAddressS2_tti
                0x0000000000000000        0x8 ../../../lib/net/libnet.a(tcprejector.o)
 .group         0x0000000000000000       0x14 ../../../lib/net/libnet.a(netsocket.o)
 .group         0x0000000000000000       0x14 ../../../lib/net/libnet.a(netsocket.o)
 .group         0x0000000000000000       0x14 ../../../lib/net/libnet.a(netsocket.o)
 .group         0x0000000000000000       0x14 ../../../lib/net/libnet.a(netsocket.o)
 .group         0x0000000000000000       0x14 ../../../lib/net/libnet.a(netsocket.o)
 .group         0x0000000000000000       0x14 ../../../lib/net/libnet.a(netsocket.o)
 .group         0x0000000000000000       0x14 ../../../lib/usb/libusb.a(xhcidevice.o)
 .group         0x0000000000000000        0x8 ../../../lib/usb/libusb.a(xhcirootport.o)
 .group         0x0000000000000000        0xc ../../../lib/usb/libusb.a(xhcirootport.o)
 .group         0x0000000000000000       0x14 ../../../lib/usb/libusb.a(xhciusbdevice.o)
 .group         0x0000000000000000       0x14 ../../../lib/usb/libusb.a(usbdevice.o)
 .text._ZN18CUSBHostController24CancelDeviceTransactionsEP10CUSBDevice
                0x0000000000000000        0x4 ../../../lib/usb/libusb.a(usbdevice.o)
 .ARM.extab.text._ZN18CUSBHostController24CancelDeviceTransactionsEP10CUSBDevice
                0x0000000000000000        0x0 ../../../lib/usb/libusb.a(usbdevice.o)
 .ARM.exidx.text._ZN18CUSBHostController24CancelDeviceTransactionsEP10CUSBDevice
                0x0000000000000000        0x8 ../../../lib/usb/libusb.a(usbdevice.o)
 .group         0x0000000000000000       0x14 ../../../lib/usb/libusb.a(usbfunction.o)
 .text._ZNK12CUSBFunction10GetHubInfoEv
                0x0000000000000000        0x8 ../../../lib/usb/libusb.a(usbfunction.o)
 .ARM.extab.text._ZNK12CUSBFunction10GetHubInfoEv
                0x0000000000000000        0x0 ../../../lib/usb/libusb.a(usbfunction.o)
 .ARM.exidx.text._ZNK12CUSBFunction10GetHubInfoEv
                0x0000000000000000        0x8 ../../../lib/usb/libusb.a(usbfunction.o)
 .group         0x0000000000000000       0x14 ../../../lib/usb/libusb.a(usbgamepadps3.o)
 .group         0x0000000000000000       0x14 ../../../lib/usb/libusb.a(usbgamepadps3.o)
 .group         0x0000000000000000       0x14 ../../../lib/usb/libusb.a(usbgamepadps3.o)
 .text._ZNK12CUSBFunction10GetHubInfoEv
                0x0000000000000000        0x8 ../../../lib/usb/libusb.a(usbgamepadps3.o)
 .ARM.extab.text._ZNK12CUSBFunction10GetHubInfoEv
                0x0000000000000000        0x0 ../../../lib/usb/libusb.a(usbgamepadps3.o)
 .ARM.exidx.text._ZNK12CUSBFunction10GetHubInfoEv
                0x0000000000000000        0x8 ../../../lib/usb/libusb.a(usbgamepadps3.o)
 .group         0x0000000000000000       0x14 ../../../lib/usb/libusb.a(usbgamepadps4.o)
 .group         0x0000000000000000       0x14 ../../../lib/usb/libusb.a(usbgamepadps4.o)
 .text._ZNK12CUSBFunction10GetHubInfoEv
                0x0000000000000000        0x8 ../../../lib/usb/libusb.a(usbgamepadps4.o)
 .ARM.extab.text._ZNK12CUSBFunction10GetHubInfoEv
                0x0000000000000000        0x0 ../../../lib/usb/libusb.a(usbgamepadps4.o)
 .ARM.exidx.text._ZNK12CUSBFunction10GetHubInfoEv
                0x0000000000000000        0x8 ../../../lib/usb/libusb.a(usbgamepadps4.o)
 .group         0x0000000000000000       0x14 ../../../lib/usb/libusb.a(usbgamepadstandard.o)
 .group         0x0000000000000000       0x14 ../../../lib/usb/libusb.a(usbgamepadstandard.o)
 .group         0x0000000000000000       0x14 ../../../lib/usb/libusb.a(usbgamepadstandard.o)
 .group         0x0000000000000000       0x14 ../../../lib/usb/libusb.a(usbgamepadstandard.o)
 .group         0x0000000000000000       0x14 ../../../lib/usb/libusb.a(usbgamepadstandard.o)
 .text._ZNK12CUSBFunction10GetHubInfoEv
                0x0000000000000000        0x8 ../../../lib/usb/libusb.a(usbgamepadstandard.o)
 .ARM.extab.text._ZNK12CUSBFunction10GetHubInfoEv
                0x0000000000000000        0x0 ../../../lib/usb/libusb.a(usbgamepadstandard.o)
 .ARM.exidx.text._ZNK12CUSBFunction10GetHubInfoEv
                0x0000000000000000        0x8 ../../../lib/usb/libusb.a(usbgamepadstandard.o)
 .text._ZN17CUSBGamePadDevice10SetLEDModeEjhh
                0x0000000000000000        0x8 ../../../lib/usb/libusb.a(usbgamepadstandard.o)
 .ARM.extab.text._ZN17CUSBGamePadDevice10SetLEDModeEjhh
                0x0000000000000000        0x0 ../../../lib/usb/libusb.a(usbgamepadstandard.o)
 .ARM.exidx.text._ZN17CUSBGamePadDevice10SetLEDModeEjhh
                0x0000000000000000        0x8 ../../../lib/usb/libusb.a(usbgamepadstandard.o)
 .group         0x0000000000000000       0x14 ../../../lib/usb/libusb.a(usbgamepadswitchpro.o)
 .group         0x0000000000000000       0x14 ../../../lib/usb/libusb.a(usbgamepadswitchpro.o)
 .group         0x0000000000000000       0x14 ../../../lib/usb/libusb.a(usbgamepadswitchpro.o)
 .text._ZNK12CUSBFunction10GetHubInfoEv
                0x0000000000000000        0x8 ../../../lib/usb/libusb.a(usbgamepadswitchpro.o)
 .ARM.extab.text._ZNK12CUSBFunction10GetHubInfoEv
                0x0000000000000000        0x0 ../../../lib/usb/libusb.a(usbgamepadswitchpro.o)
 .ARM.exidx.text._ZNK12CUSBFunction10GetHubInfoEv
                0x0000000000000000        0x8 ../../../lib/usb/libusb.a(usbgamepadswitchpro.o)
 .text._ZN17CUSBGamePadDevice10SetLEDModeEjhh
                0x0000000000000000        0x8 ../../../lib/usb/libusb.a(usbgamepadswitchpro.o)
 .ARM.extab.text._ZN17CUSBGamePadDevice10SetLEDModeEjhh
                0x0000000000000000        0x0 ../../../lib/usb/libusb.a(usbgamepadswitchpro.o)
 .ARM.exidx.text._ZN17CUSBGamePadDevice10SetLEDModeEjhh
                0x0000000000000000        0x8 ../../../lib/usb/libusb.a(usbgamepadswitchpro.o)
 .group         0x0000000000000000       0x14 ../../../lib/usb/libusb.a(usbgamepadxbox360.o)
 .group         0x0000000000000000       0x14 ../../../lib/usb/libusb.a(usbgamepadxbox360.o)
 .group         0x0000000000000000       0x14 ../../../lib/usb/libusb.a(usbgamepadxbox360.o)
 .text._ZNK12CUSBFunction10GetHubInfoEv
                0x0000000000000000        0x8 ../../../lib/usb/libusb.a(usbgamepadxbox360.o)
 .ARM.extab.text._ZNK12CUSBFunction10GetHubInfoEv
                0x0000000000000000        0x0 ../../../lib/usb/libusb.a(usbgamepadxbox360.o)
 .ARM.exidx.text._ZNK12CUSBFunction10GetHubInfoEv
                0x0000000000000000        0x8 ../../../lib/usb/libusb.a(usbgamepadxbox360.o)
 .text._ZN17CUSBGamePadDevice10SetLEDModeEjhh
                0x0000000000000000        0x8 ../../../lib/usb/libusb.a(usbgamepadxbox360.o)
 .ARM.extab.text._ZN17CUSBGamePadDevice10SetLEDModeEjhh
                0x0000000000000000        0x0 ../../../lib/usb/libusb.a(usbgamepadxbox360.o)
 .ARM.exidx.text._ZN17CUSBGamePadDevice10SetLEDModeEjhh
                0x0000000000000000        0x8 ../../../lib/usb/libusb.a(usbgamepadxbox360.o)
 .group         0x0000000000000000       0x14 ../../../lib/usb/libusb.a(usbgamepadxboxone.o)
 .group         0x0000000000000000       0x14 ../../../lib/usb/libusb.a(usbgamepadxboxone.o)
 .group         0x0000000000000000       0x14 ../../../lib/usb/libusb.a(usbgamepadxboxone.o)
 .group         0x0000000000000000       0x14 ../../../lib/usb/libusb.a(usbgamepadxboxone.o)
 .text._ZNK12CUSBFunction10GetHubInfoEv
                0x0000000000000000        0x8 ../../../lib/usb/libusb.a(usbgamepadxboxone.o)
 .ARM.extab.text._ZNK12CUSBFunction10GetHubInfoEv
                0x0000000000000000        0x0 ../../../lib/usb/libusb.a(usbgamepadxboxone.o)
 .ARM.exidx.text._ZNK12CUSBFunction10GetHubInfoEv
                0x0000000000000000        0x8 ../../../lib/usb/libusb.a(usbgamepadxboxone.o)
 .text._ZN17CUSBGamePadDevice10SetLEDModeE15TGamePadLEDMode
                0x0000000000000000        0x8 ../../../lib/usb/libusb.a(usbgamepadxboxone.o)
 .ARM.extab.text._ZN17CUSBGamePadDevice10SetLEDModeE15TGamePadLEDMode
                0x0000000000000000        0x0 ../../../lib/usb/libusb.a(usbgamepadxboxone.o)
 .ARM.exidx.text._ZN17CUSBGamePadDevice10SetLEDModeE15TGamePadLEDMode
                0x0000000000000000        0x8 ../../../lib/usb/libusb.a(usbgamepadxboxone.o)
 .text._ZN17CUSBGamePadDevice10SetLEDModeEjhh
                0x0000000000000000        0x8 ../../../lib/usb/libusb.a(usbgamepadxboxone.o)
 .ARM.extab.text._ZN17CUSBGamePadDevice10SetLEDModeEjhh
                0x0000000000000000        0x0 ../../../lib/usb/libusb.a(usbgamepadxboxone.o)
 .ARM.exidx.text._ZN17CUSBGamePadDevice10SetLEDModeEjhh
                0x0000000000000000        0x8 ../../../lib/usb/libusb.a(usbgamepadxboxone.o)
 .group         0x0000000000000000       0x14 ../../../lib/usb/libusb.a(usbhiddevice.o)
 .text._ZNK12CUSBFunction10GetHubInfoEv
                0x0000000000000000        0x8 ../../../lib/usb/libusb.a(usbhiddevice.o)
 .ARM.extab.text._ZNK12CUSBFunction10GetHubInfoEv
                0x0000000000000000        0x0 ../../../lib/usb/libusb.a(usbhiddevice.o)
 .ARM.exidx.text._ZNK12CUSBFunction10GetHubInfoEv
                0x0000000000000000        0x8 ../../../lib/usb/libusb.a(usbhiddevice.o)
 .group         0x0000000000000000       0x14 ../../../lib/usb/libusb.a(usbhostcontroller.o)
 .text._ZN18CUSBHostController24CancelDeviceTransactionsEP10CUSBDevice
                0x0000000000000000        0x4 ../../../lib/usb/libusb.a(usbhostcontroller.o)
 .ARM.extab.text._ZN18CUSBHostController24CancelDeviceTransactionsEP10CUSBDevice
                0x0000000000000000        0x0 ../../../lib/usb/libusb.a(usbhostcontroller.o)
 .ARM.exidx.text._ZN18CUSBHostController24CancelDeviceTransactionsEP10CUSBDevice
                0x0000000000000000        0x8 ../../../lib/usb/libusb.a(usbhostcontroller.o)
 .group         0x0000000000000000       0x14 ../../../lib/usb/libusb.a(usbkeyboard.o)
 .text._ZNK12CUSBFunction10GetHubInfoEv
                0x0000000000000000        0x8 ../../../lib/usb/libusb.a(usbkeyboard.o)
 .ARM.extab.text._ZNK12CUSBFunction10GetHubInfoEv
                0x0000000000000000        0x0 ../../../lib/usb/libusb.a(usbkeyboard.o)
 .ARM.exidx.text._ZNK12CUSBFunction10GetHubInfoEv
                0x0000000000000000        0x8 ../../../lib/usb/libusb.a(usbkeyboard.o)
 .group         0x0000000000000000       0x14 ../../../lib/usb/libusb.a(usbmassdevice.o)
 .text._ZNK12CUSBFunction10GetHubInfoEv
                0x0000000000000000        0x8 ../../../lib/usb/libusb.a(usbmassdevice.o)
 .ARM.extab.text._ZNK12CUSBFunction10GetHubInfoEv
                0x0000000000000000        0x0 ../../../lib/usb/libusb.a(usbmassdevice.o)
 .ARM.exidx.text._ZNK12CUSBFunction10GetHubInfoEv
                0x0000000000000000        0x8 ../../../lib/usb/libusb.a(usbmassdevice.o)
 .group         0x0000000000000000       0x14 ../../../lib/usb/libusb.a(usbmidi.o)
 .text._ZNK12CUSBFunction10GetHubInfoEv
                0x0000000000000000        0x8 ../../../lib/usb/libusb.a(usbmidi.o)
 .ARM.extab.text._ZNK12CUSBFunction10GetHubInfoEv
                0x0000000000000000        0x0 ../../../lib/usb/libusb.a(usbmidi.o)
 .ARM.exidx.text._ZNK12CUSBFunction10GetHubInfoEv
                0x0000000000000000        0x8 ../../../lib/usb/libusb.a(usbmidi.o)
 .group         0x0000000000000000       0x14 ../../../lib/usb/libusb.a(usbmouse.o)
 .text._ZNK12CUSBFunction10GetHubInfoEv
                0x0000000000000000        0x8 ../../../lib/usb/libusb.a(usbmouse.o)
 .ARM.extab.text._ZNK12CUSBFunction10GetHubInfoEv
                0x0000000000000000        0x0 ../../../lib/usb/libusb.a(usbmouse.o)
 .ARM.exidx.text._ZNK12CUSBFunction10GetHubInfoEv
                0x0000000000000000        0x8 ../../../lib/usb/libusb.a(usbmouse.o)
 .group         0x0000000000000000       0x14 ../../../lib/usb/libusb.a(usbprinter.o)
 .text._ZNK12CUSBFunction10GetHubInfoEv
                0x0000000000000000        0x8 ../../../lib/usb/libusb.a(usbprinter.o)
 .ARM.extab.text._ZNK12CUSBFunction10GetHubInfoEv
                0x0000000000000000        0x0 ../../../lib/usb/libusb.a(usbprinter.o)
 .ARM.exidx.text._ZNK12CUSBFunction10GetHubInfoEv
                0x0000000000000000        0x8 ../../../lib/usb/libusb.a(usbprinter.o)
 .group         0x0000000000000000       0x14 ../../../lib/usb/libusb.a(lan7800.o)
 .group         0x0000000000000000       0x14 ../../../lib/usb/libusb.a(lan7800.o)
 .group         0x0000000000000000       0x14 ../../../lib/usb/libusb.a(lan7800.o)
 .group         0x0000000000000000       0x14 ../../../lib/usb/libusb.a(lan7800.o)
 .group         0x0000000000000000        0x8 ../../../lib/usb/libusb.a(lan7800.o)
 .group         0x0000000000000000        0xc ../../../lib/usb/libusb.a(lan7800.o)
 .text._ZN10CNetDevice20IsSendFrameAdvisableEv
                0x0000000000000000        0x8 ../../../lib/usb/libusb.a(lan7800.o)
 .ARM.extab.text._ZN10CNetDevice20IsSendFrameAdvisableEv
                0x0000000000000000        0x0 ../../../lib/usb/libusb.a(lan7800.o)
 .ARM.exidx.text._ZN10CNetDevice20IsSendFrameAdvisableEv
                0x0000000000000000        0x8 ../../../lib/usb/libusb.a(lan7800.o)
 .text._ZN10CNetDevice9UpdatePHYEv
                0x0000000000000000        0x8 ../../../lib/usb/libusb.a(lan7800.o)
 .ARM.extab.text._ZN10CNetDevice9UpdatePHYEv
                0x0000000000000000        0x0 ../../../lib/usb/libusb.a(lan7800.o)
 .ARM.exidx.text._ZN10CNetDevice9UpdatePHYEv
                0x0000000000000000        0x8 ../../../lib/usb/libusb.a(lan7800.o)
 .text._ZNK12CUSBFunction10GetHubInfoEv
                0x0000000000000000        0x8 ../../../lib/usb/libusb.a(lan7800.o)
 .ARM.extab.text._ZNK12CUSBFunction10GetHubInfoEv
                0x0000000000000000        0x0 ../../../lib/usb/libusb.a(lan7800.o)
 .ARM.exidx.text._ZNK12CUSBFunction10GetHubInfoEv
                0x0000000000000000        0x8 ../../../lib/usb/libusb.a(lan7800.o)
 .rodata._ZTS10CNetDevice
                0x0000000000000000        0xd ../../../lib/usb/libusb.a(lan7800.o)
 .rodata._ZTI10CNetDevice
                0x0000000000000000        0x8 ../../../lib/usb/libusb.a(lan7800.o)
 .group         0x0000000000000000       0x14 ../../../lib/usb/libusb.a(smsc951x.o)
 .group         0x0000000000000000       0x14 ../../../lib/usb/libusb.a(smsc951x.o)
 .group         0x0000000000000000       0x14 ../../../lib/usb/libusb.a(smsc951x.o)
 .group         0x0000000000000000       0x14 ../../../lib/usb/libusb.a(smsc951x.o)
 .group         0x0000000000000000        0x8 ../../../lib/usb/libusb.a(smsc951x.o)
 .group         0x0000000000000000        0xc ../../../lib/usb/libusb.a(smsc951x.o)
 .text._ZN10CNetDevice7GetTypeEv
                0x0000000000000000        0x8 ../../../lib/usb/libusb.a(smsc951x.o)
 .ARM.extab.text._ZN10CNetDevice7GetTypeEv
                0x0000000000000000        0x0 ../../../lib/usb/libusb.a(smsc951x.o)
 .ARM.exidx.text._ZN10CNetDevice7GetTypeEv
                0x0000000000000000        0x8 ../../../lib/usb/libusb.a(smsc951x.o)
 .text._ZN10CNetDevice20IsSendFrameAdvisableEv
                0x0000000000000000        0x8 ../../../lib/usb/libusb.a(smsc951x.o)
 .ARM.extab.text._ZN10CNetDevice20IsSendFrameAdvisableEv
                0x0000000000000000        0x0 ../../../lib/usb/libusb.a(smsc951x.o)
 .ARM.exidx.text._ZN10CNetDevice20IsSendFrameAdvisableEv
                0x0000000000000000        0x8 ../../../lib/usb/libusb.a(smsc951x.o)
 .text._ZN10CNetDevice9UpdatePHYEv
                0x0000000000000000        0x8 ../../../lib/usb/libusb.a(smsc951x.o)
 .ARM.extab.text._ZN10CNetDevice9UpdatePHYEv
                0x0000000000000000        0x0 ../../../lib/usb/libusb.a(smsc951x.o)
 .ARM.exidx.text._ZN10CNetDevice9UpdatePHYEv
                0x0000000000000000        0x8 ../../../lib/usb/libusb.a(smsc951x.o)
 .text._ZNK12CUSBFunction10GetHubInfoEv
                0x0000000000000000        0x8 ../../../lib/usb/libusb.a(smsc951x.o)
 .ARM.extab.text._ZNK12CUSBFunction10GetHubInfoEv
                0x0000000000000000        0x0 ../../../lib/usb/libusb.a(smsc951x.o)
 .ARM.exidx.text._ZNK12CUSBFunction10GetHubInfoEv
                0x0000000000000000        0x8 ../../../lib/usb/libusb.a(smsc951x.o)
 .rodata._ZTS10CNetDevice
                0x0000000000000000        0xd ../../../lib/usb/libusb.a(smsc951x.o)
 .rodata._ZTI10CNetDevice
                0x0000000000000000        0x8 ../../../lib/usb/libusb.a(smsc951x.o)
 .group         0x0000000000000000       0x14 ../../../lib/usb/libusb.a(usbbluetooth.o)
 .text._ZNK12CUSBFunction10GetHubInfoEv
                0x0000000000000000        0x8 ../../../lib/usb/libusb.a(usbbluetooth.o)
 .ARM.extab.text._ZNK12CUSBFunction10GetHubInfoEv
                0x0000000000000000        0x0 ../../../lib/usb/libusb.a(usbbluetooth.o)
 .ARM.exidx.text._ZNK12CUSBFunction10GetHubInfoEv
                0x0000000000000000        0x8 ../../../lib/usb/libusb.a(usbbluetooth.o)
 .group         0x0000000000000000       0x14 ../../../lib/usb/libusb.a(usbcdcethernet.o)
 .group         0x0000000000000000       0x14 ../../../lib/usb/libusb.a(usbcdcethernet.o)
 .group         0x0000000000000000       0x14 ../../../lib/usb/libusb.a(usbcdcethernet.o)
 .group         0x0000000000000000       0x14 ../../../lib/usb/libusb.a(usbcdcethernet.o)
 .group         0x0000000000000000       0x14 ../../../lib/usb/libusb.a(usbcdcethernet.o)
 .group         0x0000000000000000       0x14 ../../../lib/usb/libusb.a(usbcdcethernet.o)
 .group         0x0000000000000000        0x8 ../../../lib/usb/libusb.a(usbcdcethernet.o)
 .group         0x0000000000000000        0xc ../../../lib/usb/libusb.a(usbcdcethernet.o)
 .text._ZN10CNetDevice7GetTypeEv
                0x0000000000000000        0x8 ../../../lib/usb/libusb.a(usbcdcethernet.o)
 .ARM.extab.text._ZN10CNetDevice7GetTypeEv
                0x0000000000000000        0x0 ../../../lib/usb/libusb.a(usbcdcethernet.o)
 .ARM.exidx.text._ZN10CNetDevice7GetTypeEv
                0x0000000000000000        0x8 ../../../lib/usb/libusb.a(usbcdcethernet.o)
 .text._ZN10CNetDevice20IsSendFrameAdvisableEv
                0x0000000000000000        0x8 ../../../lib/usb/libusb.a(usbcdcethernet.o)
 .ARM.extab.text._ZN10CNetDevice20IsSendFrameAdvisableEv
                0x0000000000000000        0x0 ../../../lib/usb/libusb.a(usbcdcethernet.o)
 .ARM.exidx.text._ZN10CNetDevice20IsSendFrameAdvisableEv
                0x0000000000000000        0x8 ../../../lib/usb/libusb.a(usbcdcethernet.o)
 .text._ZN10CNetDevice8IsLinkUpEv
                0x0000000000000000        0x8 ../../../lib/usb/libusb.a(usbcdcethernet.o)
 .ARM.extab.text._ZN10CNetDevice8IsLinkUpEv
                0x0000000000000000        0x0 ../../../lib/usb/libusb.a(usbcdcethernet.o)
 .ARM.exidx.text._ZN10CNetDevice8IsLinkUpEv
                0x0000000000000000        0x8 ../../../lib/usb/libusb.a(usbcdcethernet.o)
 .text._ZN10CNetDevice12GetLinkSpeedEv
                0x0000000000000000        0x8 ../../../lib/usb/libusb.a(usbcdcethernet.o)
 .ARM.extab.text._ZN10CNetDevice12GetLinkSpeedEv
                0x0000000000000000        0x0 ../../../lib/usb/libusb.a(usbcdcethernet.o)
 .ARM.exidx.text._ZN10CNetDevice12GetLinkSpeedEv
                0x0000000000000000        0x8 ../../../lib/usb/libusb.a(usbcdcethernet.o)
 .text._ZN10CNetDevice9UpdatePHYEv
                0x0000000000000000        0x8 ../../../lib/usb/libusb.a(usbcdcethernet.o)
 .ARM.extab.text._ZN10CNetDevice9UpdatePHYEv
                0x0000000000000000        0x0 ../../../lib/usb/libusb.a(usbcdcethernet.o)
 .ARM.exidx.text._ZN10CNetDevice9UpdatePHYEv
                0x0000000000000000        0x8 ../../../lib/usb/libusb.a(usbcdcethernet.o)
 .text._ZNK12CUSBFunction10GetHubInfoEv
                0x0000000000000000        0x8 ../../../lib/usb/libusb.a(usbcdcethernet.o)
 .ARM.extab.text._ZNK12CUSBFunction10GetHubInfoEv
                0x0000000000000000        0x0 ../../../lib/usb/libusb.a(usbcdcethernet.o)
 .ARM.exidx.text._ZNK12CUSBFunction10GetHubInfoEv
                0x0000000000000000        0x8 ../../../lib/usb/libusb.a(usbcdcethernet.o)
 .rodata._ZTS10CNetDevice
                0x0000000000000000        0xd ../../../lib/usb/libusb.a(usbcdcethernet.o)
 .rodata._ZTI10CNetDevice
                0x0000000000000000        0x8 ../../../lib/usb/libusb.a(usbcdcethernet.o)
 .group         0x0000000000000000       0x14 ../../../lib/usb/libusb.a(usbgamepad.o)
 .group         0x0000000000000000       0x14 ../../../lib/usb/libusb.a(usbgamepad.o)
 .group         0x0000000000000000       0x14 ../../../lib/usb/libusb.a(usbgamepad.o)
 .group         0x0000000000000000       0x14 ../../../lib/usb/libusb.a(usbgamepad.o)
 .group         0x0000000000000000       0x14 ../../../lib/usb/libusb.a(usbgamepad.o)
 .text._ZNK12CUSBFunction10GetHubInfoEv
                0x0000000000000000        0x8 ../../../lib/usb/libusb.a(usbgamepad.o)
 .ARM.extab.text._ZNK12CUSBFunction10GetHubInfoEv
                0x0000000000000000        0x0 ../../../lib/usb/libusb.a(usbgamepad.o)
 .ARM.exidx.text._ZNK12CUSBFunction10GetHubInfoEv
                0x0000000000000000        0x8 ../../../lib/usb/libusb.a(usbgamepad.o)
 .text._ZN17CUSBGamePadDevice13GetPropertiesEv
                0x0000000000000000        0x8 ../../../lib/usb/libusb.a(usbgamepad.o)
 .ARM.extab.text._ZN17CUSBGamePadDevice13GetPropertiesEv
                0x0000000000000000        0x0 ../../../lib/usb/libusb.a(usbgamepad.o)
 .ARM.exidx.text._ZN17CUSBGamePadDevice13GetPropertiesEv
                0x0000000000000000        0x8 ../../../lib/usb/libusb.a(usbgamepad.o)
 .text._ZN17CUSBGamePadDevice10SetLEDModeE15TGamePadLEDMode
                0x0000000000000000        0x8 ../../../lib/usb/libusb.a(usbgamepad.o)
 .ARM.extab.text._ZN17CUSBGamePadDevice10SetLEDModeE15TGamePadLEDMode
                0x0000000000000000        0x0 ../../../lib/usb/libusb.a(usbgamepad.o)
 .ARM.exidx.text._ZN17CUSBGamePadDevice10SetLEDModeE15TGamePadLEDMode
                0x0000000000000000        0x8 ../../../lib/usb/libusb.a(usbgamepad.o)
 .text._ZN17CUSBGamePadDevice10SetLEDModeEjhh
                0x0000000000000000        0x8 ../../../lib/usb/libusb.a(usbgamepad.o)
 .ARM.extab.text._ZN17CUSBGamePadDevice10SetLEDModeEjhh
                0x0000000000000000        0x0 ../../../lib/usb/libusb.a(usbgamepad.o)
 .ARM.exidx.text._ZN17CUSBGamePadDevice10SetLEDModeEjhh
                0x0000000000000000        0x8 ../../../lib/usb/libusb.a(usbgamepad.o)
 .text._ZN17CUSBGamePadDevice13SetRumbleModeE18TGamePadRumbleMode
                0x0000000000000000        0x8 ../../../lib/usb/libusb.a(usbgamepad.o)
 .ARM.extab.text._ZN17CUSBGamePadDevice13SetRumbleModeE18TGamePadRumbleMode
                0x0000000000000000        0x0 ../../../lib/usb/libusb.a(usbgamepad.o)
 .ARM.exidx.text._ZN17CUSBGamePadDevice13SetRumbleModeE18TGamePadRumbleMode
                0x0000000000000000        0x8 ../../../lib/usb/libusb.a(usbgamepad.o)
 .group         0x0000000000000000       0x14 ../../../lib/libcircle.a(netdevice.o)
 .text._ZN10CNetDevice7GetTypeEv
                0x0000000000000000        0x8 ../../../lib/libcircle.a(netdevice.o)
 .ARM.extab.text._ZN10CNetDevice7GetTypeEv
                0x0000000000000000        0x0 ../../../lib/libcircle.a(netdevice.o)
 .ARM.exidx.text._ZN10CNetDevice7GetTypeEv
                0x0000000000000000        0x8 ../../../lib/libcircle.a(netdevice.o)
 .group         0x0000000000000000       0x14 ../../../lib/libcircle.a(bcm54213.o)
 .group         0x0000000000000000        0x8 ../../../lib/libcircle.a(bcm54213.o)
 .group         0x0000000000000000        0xc ../../../lib/libcircle.a(bcm54213.o)
 .text._ZN10CNetDevice7GetTypeEv
                0x0000000000000000        0x8 ../../../lib/libcircle.a(bcm54213.o)
 .ARM.extab.text._ZN10CNetDevice7GetTypeEv
                0x0000000000000000        0x0 ../../../lib/libcircle.a(bcm54213.o)
 .ARM.exidx.text._ZN10CNetDevice7GetTypeEv
                0x0000000000000000        0x8 ../../../lib/libcircle.a(bcm54213.o)
 .rodata._ZTS10CNetDevice
                0x0000000000000000        0xd ../../../lib/libcircle.a(bcm54213.o)
 .rodata._ZTI10CNetDevice
                0x0000000000000000        0x8 ../../../lib/libcircle.a(bcm54213.o)

Memory Configuration

Name             Origin             Length             Attributes
*default*        0x0000000000000000 0xffffffffffffffff

Linker script and memory map

Address of section .init set to 0x8000

.init           0x0000000000008000       0x70
 *(.init)
 .init          0x0000000000008000       0x70 ../../../lib/libcircle.a(startup.o)
                0x0000000000008000                _start
                0x0000000000008064                _start_secondary

.text           0x0000000000008070    0x66fe8
 *(.text*)
 .text          0x0000000000008070        0x0 main.o
 .text.startup  0x0000000000008070       0x4c main.o
                0x0000000000008070                main
 .text          0x00000000000080bc      0x628 kernel.o
                0x00000000000080bc                CKernel::CKernel()
                0x00000000000080bc                CKernel::CKernel()
                0x0000000000008384                CKernel::~CKernel()
                0x0000000000008384                CKernel::~CKernel()
                0x0000000000008450                CKernel::Initialize()
                0x00000000000085d4                CKernel::Run()
 .text          0x00000000000086e4      0x110 ../../../addon/wlan/hostap/wpa_supplicant/libwpa_supplicant.a(wpasupplicant.o)
                0x00000000000086e4                CWPASupplicant::ProcEntry(void*)
                0x0000000000008728                CWPASupplicant::Initialize()
                0x0000000000008758                CWPASupplicant::CWPASupplicant(char const*)
                0x0000000000008758                CWPASupplicant::CWPASupplicant(char const*)
                0x00000000000087b0                CWPASupplicant::~CWPASupplicant()
                0x00000000000087b0                CWPASupplicant::~CWPASupplicant()
 .text          0x00000000000087f4      0x560 ../../../addon/wlan/hostap/wpa_supplicant/libwpa_supplicant.a(eloop_circle.o)
                0x00000000000087f4                eloop_init
                0x0000000000008834                eloop_register_read_sock
                0x00000000000088cc                eloop_unregister_read_sock
                0x000000000000896c                eloop_register_timeout
                0x0000000000008a94                eloop_cancel_timeout
                0x0000000000008b54                eloop_is_timeout_registered
                0x0000000000008bac                eloop_register_signal_terminate
                0x0000000000008bb4                eloop_register_signal_reconfig
                0x0000000000008bbc                eloop_run
                0x0000000000008cd4                eloop_terminate
                0x0000000000008ce8                eloop_destroy
                0x0000000000008d34                eloop_terminated
                0x0000000000008d44                eloop_get_user_data
 .text          0x0000000000008d54      0x688 ../../../addon/wlan/hostap/wpa_supplicant/libwpa_supplicant.a(os_circle.o)
                0x0000000000008d54                __wpa_abs
                0x0000000000008d60                __wpa_isprint
                0x0000000000008d74                __wpa_strrchr
                0x0000000000008db8                __wpa_strdup
                0x0000000000008e04                __wpa_qsort
                0x0000000000008f6c                __wpa_abort
                0x0000000000008f78                os_get_random
                0x0000000000009060                os_get_time
                0x000000000000909c                os_sleep
                0x00000000000090fc                os_strlcpy
                0x0000000000009154                os_zalloc
                0x00000000000091a8                os_hexdump
                0x00000000000091c0                __wpa_vsnprintf
                0x0000000000009268                __wpa_snprintf
                0x0000000000009294                __wpa_vprintf
                0x00000000000093b0                __wpa_printf
 .text          0x00000000000093dc       0xac ../../../addon/wlan/hostap/wpa_supplicant/libwpa_supplicant.a(main_circle.o)
                0x00000000000093dc                wpa_supplicant_main(char const*)
 .text          0x0000000000009488     0x3a3c ../../../addon/wlan/hostap/wpa_supplicant/libwpa_supplicant.a(wpa_supplicant.o)
                0x0000000000009624                wpa_set_wep_keys
                0x00000000000096fc                wpa_supplicant_req_auth_timeout
                0x00000000000097a4                wpa_supplicant_rx_eapol
                0x0000000000009a4c                wpa_supplicant_cancel_auth_timeout
                0x0000000000009a94                wpa_supplicant_initiate_eapol
                0x0000000000009bb0                wpa_supplicant_set_non_wpa_policy
                0x0000000000009cc8                wpa_clear_keys
                0x0000000000009e9c                wpa_supplicant_state_txt
                0x0000000000009ec0                wpa_supplicant_set_state
                0x000000000000a0c4                wpa_supplicant_reload_configuration
                0x000000000000a304                wpa_supplicant_set_suites
                0x000000000000a8f0                wpa_supplicant_associate
                0x000000000000b180                wpa_supplicant_disassociate
                0x000000000000b348                wpa_supplicant_deauthenticate
                0x000000000000b5fc                wpa_supplicant_enable_network
                0x000000000000b720                wpa_supplicant_disable_network
                0x000000000000b7f4                wpa_supplicant_select_network
                0x000000000000b920                wpa_supplicant_set_ap_scan
                0x000000000000b968                wpa_supplicant_set_debug_params
                0x000000000000ba04                wpa_supplicant_get_scan_results
                0x000000000000bf30                wpa_supplicant_get_ssid
                0x000000000000c0b8                wpa_supplicant_sta_rx
                0x000000000000c0bc                wpa_supplicant_driver_init
                0x000000000000c360                wpa_supplicant_add_iface
                0x000000000000ca18                wpa_supplicant_remove_iface
                0x000000000000cb90                wpa_supplicant_get_iface
                0x000000000000cbec                wpa_supplicant_init
                0x000000000000ce30                wpa_supplicant_run
                0x000000000000ceb4                wpa_supplicant_deinit
 .text          0x000000000000cec4      0xe8c ../../../addon/wlan/hostap/wpa_supplicant/libwpa_supplicant.a(wpas_glue.o)
                0x000000000000da98                wpa_supplicant_init_eapol
                0x000000000000db94                wpa_supplicant_init_wpa
                0x000000000000dcc8                wpa_supplicant_rsn_supp_set_config
 .text          0x000000000000dd50        0x0 ../../../addon/wlan/hostap/wpa_supplicant/libwpa_supplicant.a(drivers.o)
 .text          0x000000000000dd50      0xf20 ../../../addon/wlan/hostap/wpa_supplicant/libwpa_supplicant.a(driver_circle.o)
 .text          0x000000000000ec70      0x634 ../../../addon/wlan/hostap/wpa_supplicant/libwpa_supplicant.a(scan_helpers.o)
                0x000000000000ec70                wpa_scan_get_ie
                0x000000000000ece0                wpa_scan_get_vendor_ie
                0x000000000000ed78                wpa_scan_get_vendor_ie_multi
                0x000000000000ee7c                wpa_scan_get_max_rate
                0x000000000000f220                wpa_scan_results_free
                0x000000000000f290                wpa_scan_sort_results
 .text          0x000000000000f2a4     0x1ec0 ../../../addon/wlan/hostap/wpa_supplicant/libwpa_supplicant.a(eapol_supp_sm.o)
                0x000000000000f8a8                eapol_sm_configure
                0x000000000000f8d8                eapol_sm_notify_tx_eapol_key
                0x000000000000f8f0                eapol_sm_notify_config
                0x000000000000f978                eapol_sm_get_key
                0x000000000000fedc                eapol_sm_step
                0x0000000000010934                eapol_sm_rx_eapol
                0x0000000000010b98                eapol_sm_notify_portEnabled
                0x0000000000010bf0                eapol_sm_notify_portValid
                0x0000000000010c48                eapol_sm_notify_eap_success
                0x0000000000010cb8                eapol_sm_notify_eap_fail
                0x0000000000010d78                eapol_sm_notify_logoff
                0x0000000000010d8c                eapol_sm_notify_cached
                0x0000000000010e04                eapol_sm_notify_pmkid_attempt
                0x0000000000010e70                eapol_sm_register_scard_ctx
                0x0000000000010e8c                eapol_sm_notify_portControl
                0x0000000000010f00                eapol_sm_notify_ctrl_attached
                0x0000000000010f14                eapol_sm_notify_ctrl_response
                0x0000000000010f78                eapol_sm_request_reauth
                0x0000000000010f94                eapol_sm_notify_lower_layer_success
                0x0000000000010fe4                eapol_sm_invalidate_cached_session
                0x0000000000010ff8                eapol_sm_init
                0x00000000000110ec                eapol_sm_deinit
 .text          0x0000000000011164     0x232c ../../../addon/wlan/hostap/wpa_supplicant/libwpa_supplicant.a(eap.o)
                0x0000000000011a14                eap_allowed_method
                0x0000000000011a98                eap_sm_buildIdentity
                0x0000000000011c2c                eap_peer_sm_init
                0x0000000000011ce8                eap_peer_sm_step
                0x0000000000012cbc                eap_sm_abort
                0x0000000000012d1c                eap_peer_sm_deinit
                0x0000000000012d68                eap_sm_request_identity
                0x0000000000012d78                eap_sm_request_password
                0x0000000000012d88                eap_sm_request_new_password
                0x0000000000012d98                eap_sm_request_pin
                0x0000000000012da8                eap_sm_request_otp
                0x0000000000012db8                eap_sm_request_passphrase
                0x0000000000012dc8                eap_sm_notify_ctrl_attached
                0x0000000000012ee0                eap_get_phase2_type
                0x0000000000012f34                eap_get_phase2_types
                0x0000000000013024                eap_set_fast_reauth
                0x000000000001302c                eap_set_workaround
                0x0000000000013034                eap_get_config
                0x0000000000013044                eap_get_config_identity
                0x0000000000013078                eap_get_config_password
                0x00000000000130b4                eap_get_config_password2
                0x0000000000013110                eap_get_config_new_password
                0x000000000001314c                eap_get_config_otp
                0x0000000000013188                eap_clear_config_otp
                0x00000000000131d8                eap_get_config_phase1
                0x0000000000013204                eap_get_config_phase2
                0x0000000000013230                eap_key_available
                0x000000000001323c                eap_notify_success
                0x0000000000013258                eap_notify_lower_layer_success
                0x00000000000132f4                eap_get_eapKeyData
                0x0000000000013324                eap_get_eapRespData
                0x000000000001334c                eap_register_scard_ctx
                0x0000000000013358                eap_set_config_blob
                0x0000000000013368                eap_get_config_blob
                0x0000000000013378                eap_set_force_disabled
                0x0000000000013380                eap_notify_pending
                0x0000000000013390                eap_invalidate_cached_session
                0x00000000000133a8                eap_is_wps_pbc_enrollee
                0x000000000001341c                eap_is_wps_pin_enrollee
 .text          0x0000000000013490      0x4d4 ../../../addon/wlan/hostap/wpa_supplicant/libwpa_supplicant.a(eap_methods.o)
                0x0000000000013490                eap_peer_get_eap_method
                0x00000000000134d4                eap_peer_get_type
                0x0000000000013558                eap_get_name
                0x00000000000135a0                eap_get_names
                0x0000000000013688                eap_get_names_as_string_array
                0x0000000000013794                eap_peer_get_methods
                0x00000000000137e0                eap_peer_method_alloc
                0x0000000000013834                eap_peer_method_free
                0x0000000000013838                eap_peer_method_register
                0x0000000000013908                eap_peer_register_methods
                0x0000000000013910                eap_peer_unregister_methods
 .text          0x0000000000013964      0x4e0 ../../../addon/wlan/hostap/wpa_supplicant/libwpa_supplicant.a(l2_packet_circle.o)
                0x0000000000013a90                l2_packet_init
                0x0000000000013bf4                l2_packet_deinit
                0x0000000000013c2c                l2_packet_get_own_addr
                0x0000000000013c94                l2_packet_send
                0x0000000000013db0                l2_packet_notify_auth_start
                0x0000000000013e2c                l2_packet_get_ip_addr
                0x0000000000013e34                l2_packet_auth_active
 .text          0x0000000000013e44      0x9f4 ../../../addon/wlan/hostap/wpa_supplicant/libwpa_supplicant.a(pmksa_cache.o)
                0x0000000000013e58                pmksa_cache_get
                0x0000000000013fc4                pmksa_cache_add
                0x000000000001441c                pmksa_cache_deinit
                0x0000000000014488                pmksa_cache_notify_reconfig
                0x00000000000144ac                pmksa_cache_get_opportunistic
                0x0000000000014580                pmksa_cache_get_current
                0x000000000001458c                pmksa_cache_clear_current
                0x000000000001459c                pmksa_cache_set_current
                0x0000000000014670                pmksa_cache_list
                0x00000000000147f4                pmksa_cache_init
 .text          0x0000000000014838      0xcc4 ../../../addon/wlan/hostap/wpa_supplicant/libwpa_supplicant.a(preauth.o)
                0x0000000000014a94                pmksa_candidate_free
                0x0000000000014ad8                rsn_preauth_init
                0x0000000000015168                rsn_preauth_deinit
                0x0000000000015184                rsn_preauth_candidate_process
                0x0000000000015198                pmksa_candidate_add
                0x0000000000015388                rsn_preauth_scan_results
                0x00000000000154ec                rsn_preauth_in_progress
 .text          0x00000000000154fc     0x3034 ../../../addon/wlan/hostap/wpa_supplicant/libwpa_supplicant.a(wpa.o)
                0x0000000000015bc8                wpa_eapol_key_send
                0x0000000000015d78                wpa_sm_key_request
                0x0000000000015f5c                wpa_supplicant_send_2_of_4
                0x0000000000016114                wpa_supplicant_send_4_of_4
                0x00000000000162c0                wpa_sm_aborted_cached
                0x0000000000016300                wpa_sm_init
                0x000000000001639c                wpa_sm_deinit
                0x000000000001641c                wpa_sm_notify_assoc
                0x00000000000164c4                wpa_sm_notify_disassoc
                0x0000000000016504                wpa_sm_set_pmk
                0x0000000000016518                wpa_sm_set_pmk_from_pmksa
                0x000000000001654c                wpa_sm_rx_eapol
                0x0000000000017edc                wpa_sm_set_fast_reauth
                0x0000000000017ee8                wpa_sm_set_scard_ctx
                0x0000000000017f08                wpa_sm_set_config
                0x0000000000017fdc                wpa_sm_set_own_addr
                0x0000000000017ff4                wpa_sm_set_ifname
                0x0000000000018004                wpa_sm_set_eapol
                0x0000000000018010                wpa_sm_set_param
                0x00000000000180d4                wpa_sm_get_param
                0x0000000000018154                wpa_sm_get_status
                0x00000000000181e4                wpa_sm_set_assoc_wpa_ie_default
                0x0000000000018288                wpa_sm_set_assoc_wpa_ie
                0x000000000001834c                wpa_sm_set_ap_wpa_ie
                0x0000000000018410                wpa_sm_set_ap_rsn_ie
                0x00000000000184d4                wpa_sm_parse_own_wpa_ie
                0x0000000000018528                wpa_sm_pmksa_cache_list
 .text          0x0000000000018530      0xacc ../../../addon/wlan/hostap/wpa_supplicant/libwpa_supplicant.a(wpa_ie.o)
                0x00000000000185b0                wpa_parse_wpa_ie
                0x0000000000018968                wpa_gen_wpa_ie
                0x0000000000018d9c                wpa_supplicant_parse_ies
 .text          0x0000000000018ffc      0x450 ../../../addon/wlan/hostap/wpa_supplicant/libwpa_supplicant.a(common.o)
                0x0000000000018ffc                hwaddr_aton
                0x00000000000190c0                hexstr2bin
                0x0000000000019184                inc_byte_array
                0x00000000000191c0                wpa_get_ntp_timestamp
                0x0000000000019240                wpa_snprintf_hex
                0x0000000000019304                wpa_snprintf_hex_uppercase
                0x00000000000193c8                wpa_ssid_txt
                0x0000000000019448                __hide_aliasing_typecast
 .text          0x000000000001944c      0x65c ../../../addon/wlan/hostap/wpa_supplicant/libwpa_supplicant.a(wpa_debug.o)
                0x0000000000019714                wpa_debug_print_timestamp
                0x0000000000019730                wpa_printf
                0x000000000001979c                wpa_hexdump
                0x00000000000197d4                wpa_hexdump_key
                0x0000000000019814                wpa_hexdump_ascii
                0x0000000000019830                wpa_hexdump_ascii_key
                0x0000000000019854                wpa_debug_open_file
                0x000000000001985c                wpa_debug_close_file
                0x0000000000019860                wpa_msg_register_cb
                0x0000000000019870                wpa_msg
                0x0000000000019930                wpa_msg_ctrl
                0x00000000000199d4                hostapd_logger_register_cb
                0x00000000000199e4                hostapd_logger
 .text          0x0000000000019aa8      0x510 ../../../addon/wlan/hostap/wpa_supplicant/libwpa_supplicant.a(wpabuf.o)
                0x0000000000019ad0                wpabuf_resize
                0x0000000000019b98                wpabuf_alloc
                0x0000000000019bc0                wpabuf_alloc_ext_data
                0x0000000000019bf8                wpabuf_free
                0x0000000000019c08                wpabuf_put
                0x0000000000019c70                wpabuf_alloc_copy
                0x0000000000019cc8                wpabuf_dup
                0x0000000000019d34                wpabuf_concat
                0x0000000000019e78                wpabuf_zeropad
                0x0000000000019f1c                wpabuf_printf
 .text          0x0000000000019fb8      0x2d0 ../../../addon/wlan/hostap/wpa_supplicant/libwpa_supplicant.a(blacklist.o)
                0x0000000000019fb8                wpa_blacklist_get
                0x000000000001a018                wpa_blacklist_add
                0x000000000001a138                wpa_blacklist_del
                0x000000000001a1fc                wpa_blacklist_clear
 .text          0x000000000001a288     0x2dc0 ../../../addon/wlan/hostap/wpa_supplicant/libwpa_supplicant.a(config.o)
                0x000000000001c4b8                wpa_config_add_prio_network
                0x000000000001c668                wpa_config_free_ssid
                0x000000000001c7d8                wpa_config_free
                0x000000000001c890                wpa_config_get_network
                0x000000000001c8ac                wpa_config_add_network
                0x000000000001c948                wpa_config_remove_network
                0x000000000001c9c8                wpa_config_set_network_defaults
                0x000000000001ca00                wpa_config_set
                0x000000000001cb14                wpa_config_get_all
                0x000000000001cbf0                wpa_config_get
                0x000000000001cc98                wpa_config_get_no_key
                0x000000000001cda0                wpa_config_update_psk
                0x000000000001ce0c                wpa_config_get_blob
                0x000000000001ce68                wpa_config_free_blob
                0x000000000001ce78                wpa_config_remove_blob
                0x000000000001cefc                wpa_config_set_blob
                0x000000000001cf34                wpa_config_alloc_empty
                0x000000000001cfa4                wpa_config_debug_dump_networks
 .text          0x000000000001d048     0x1448 ../../../addon/wlan/hostap/wpa_supplicant/libwpa_supplicant.a(config_file_circle.o)
                0x000000000001d464                wpa_config_read
                0x000000000001dadc                wpa_config_write
 .text          0x000000000001e490     0x1b90 ../../../addon/wlan/hostap/wpa_supplicant/libwpa_supplicant.a(events.o)
                0x000000000001ea5c                wpa_supplicant_mark_disassoc
                0x000000000001eb34                wpa_supplicant_scard_init
                0x000000000001eb58                wpa_supplicant_event
 .text          0x0000000000020020       0x78 ../../../addon/wlan/hostap/wpa_supplicant/libwpa_supplicant.a(notify.o)
                0x0000000000020020                wpas_notify_supplicant_initialized
                0x0000000000020038                wpas_notify_supplicant_deinitialized
                0x000000000002003c                wpas_notify_iface_added
                0x0000000000020044                wpas_notify_iface_removed
                0x0000000000020048                wpas_notify_state_changed
                0x000000000002004c                wpas_notify_network_changed
                0x0000000000020050                wpas_notify_ap_scan_changed
                0x0000000000020054                wpas_notify_bssid_changed
                0x0000000000020058                wpas_notify_network_enabled_changed
                0x000000000002005c                wpas_notify_network_selected
                0x0000000000020060                wpas_notify_scanning
                0x0000000000020064                wpas_notify_scan_done
                0x0000000000020068                wpas_notify_scan_results
                0x000000000002006c                wpas_notify_wps_credential
                0x0000000000020070                wpas_notify_wps_event_m2d
                0x0000000000020074                wpas_notify_wps_event_fail
                0x0000000000020078                wpas_notify_wps_event_success
                0x000000000002007c                wpas_notify_network_added
                0x0000000000020080                wpas_notify_network_removed
                0x0000000000020084                wpas_notify_bss_added
                0x0000000000020088                wpas_notify_bss_removed
                0x000000000002008c                wpas_notify_blob_added
                0x0000000000020090                wpas_notify_blob_removed
                0x0000000000020094                wpas_notify_debug_params_changed
 .text          0x0000000000020098      0x934 ../../../addon/wlan/hostap/wpa_supplicant/libwpa_supplicant.a(scan.o)
                0x00000000000200c8                wpa_supplicant_enabled_networks
                0x00000000000200fc                wpa_supplicant_trigger_scan
                0x0000000000020210                wpa_supplicant_req_scan
                0x0000000000020978                wpa_supplicant_cancel_scan
                0x00000000000209b4                wpa_supplicant_notify_scanning
 .text          0x00000000000209cc      0x7a8 ../../../addon/wlan/hostap/wpa_supplicant/libwpa_supplicant.a(wpa_common.o)
                0x0000000000020a4c                wpa_eapol_key_mic
                0x0000000000020ac4                wpa_pmk_to_ptk
                0x0000000000020c7c                wpa_parse_wpa_ie_rsn
                0x0000000000021020                rsn_pmkid
                0x0000000000021094                wpa_cipher_txt
                0x00000000000210c0                wpa_key_mgmt_txt
 .text          0x0000000000021174      0x150 ../../../addon/wlan/hostap/wpa_supplicant/libwpa_supplicant.a(aes-unwrap.o)
                0x0000000000021174                aes_unwrap
 .text          0x00000000000212c4      0xd30 ../../../addon/wlan/hostap/wpa_supplicant/libwpa_supplicant.a(md5-internal.o)
                0x0000000000021d64                MD5Init
                0x0000000000021d9c                MD5Update
                0x0000000000021e90                MD5Final
                0x0000000000021f44                md5_vector
 .text          0x0000000000021ff4      0x1b8 ../../../addon/wlan/hostap/wpa_supplicant/libwpa_supplicant.a(md5.o)
                0x0000000000021ff4                hmac_md5_vector
                0x0000000000022178                hmac_md5
 .text          0x00000000000221ac      0x154 ../../../addon/wlan/hostap/wpa_supplicant/libwpa_supplicant.a(rc4.o)
                0x00000000000221ac                rc4_skip
 .text          0x0000000000022300      0x174 ../../../addon/wlan/hostap/wpa_supplicant/libwpa_supplicant.a(sha1-pbkdf2.o)
                0x0000000000022300                pbkdf2_sha1
 .text          0x0000000000022474      0x2f8 ../../../addon/wlan/hostap/wpa_supplicant/libwpa_supplicant.a(sha1.o)
                0x0000000000022474                hmac_sha1_vector
                0x00000000000225f8                hmac_sha1
                0x000000000002262c                sha1_prf
 .text          0x000000000002276c        0xc ../../../addon/wlan/hostap/wpa_supplicant/libwpa_supplicant.a(tls_none.o)
                0x000000000002276c                tls_init
                0x0000000000022774                tls_deinit
 .text          0x0000000000022778      0x2ec ../../../addon/wlan/hostap/wpa_supplicant/libwpa_supplicant.a(eap_common.o)
                0x0000000000022778                eap_hdr_validate
                0x00000000000228dc                eap_msg_alloc
                0x00000000000229f0                eap_update_len
                0x0000000000022a14                eap_get_id
                0x0000000000022a3c                eap_get_type
 .text          0x0000000000022a64      0x368 ../../../addon/wlan/hostap/wpa_supplicant/libwpa_supplicant.a(base64.o)
                0x0000000000022a64                base64_encode
                0x0000000000022c44                base64_decode
 .text          0x0000000000022dcc      0x58c ../../../addon/wlan/hostap/wpa_supplicant/libwpa_supplicant.a(aes-internal-dec.o)
                0x0000000000022dcc                rijndaelKeySetupDec
                0x0000000000022ed8                aes_decrypt_init
                0x0000000000022f20                aes_decrypt
                0x000000000002332c                aes_decrypt_deinit
 .text          0x0000000000023358      0x158 ../../../addon/wlan/hostap/wpa_supplicant/libwpa_supplicant.a(aes-internal.o)
                0x0000000000023358                rijndaelKeySetupEnc
 .text          0x00000000000234b0     0x181c ../../../addon/wlan/hostap/wpa_supplicant/libwpa_supplicant.a(sha1-internal.o)
                0x00000000000234b0                SHA1Transform
                0x00000000000249c4                SHA1Init
                0x0000000000024a04                SHA1Update
                0x0000000000024ae0                SHA1Final
                0x0000000000024c14                sha1_vector
 .text          0x0000000000024ccc      0x850 ../../../addon/wlan/libwlan.a(bcm4343.o)
                0x0000000000024ccc                CBcm4343Device::GetMACAddress() const
                0x0000000000024cd4                CBcm4343Device::SendFrame(void const*, unsigned int)
                0x0000000000024e0c                CBcm4343Device::ReceiveFrame(void*, unsigned int*)
                0x0000000000024e90                CBcm4343Device::Initialize()
                0x0000000000024f90                CBcm4343Device::RegisterEventHandler(void (*)(ether_event_type_t, ether_event_params_t const*, void*), void*)
                0x0000000000024fc8                CBcm4343Device::ReceiveScanResult(void*, unsigned int*)
                0x000000000002504c                CBcm4343Device::GetBSSID()
                0x00000000000250b8                CBcm4343Device::DumpStatus()
                0x0000000000025128                CBcm4343Device::FrameReceived(void const*, unsigned int)
                0x0000000000025170                CBcm4343Device::ScanResultReceived(void const*, unsigned int)
                0x00000000000251b8                etheriq
                0x0000000000025204                etherscanresult
                0x0000000000025234                addethercard
                0x000000000002526c                CBcm4343Device::CBcm4343Device(char const*)
                0x000000000002526c                CBcm4343Device::CBcm4343Device(char const*)
                0x0000000000025318                CBcm4343Device::~CBcm4343Device()
                0x0000000000025318                CBcm4343Device::~CBcm4343Device()
                0x00000000000253c0                CBcm4343Device::~CBcm4343Device()
                0x00000000000253ec                CBcm4343Device::Control(char const*, ...)
                0x00000000000254e0                CBcm4343Device::JoinOpenNet(char const*)
 .text._ZN10CNetDevice20IsSendFrameAdvisableEv
                0x000000000002551c        0x8 ../../../addon/wlan/libwlan.a(bcm4343.o)
                0x000000000002551c                CNetDevice::IsSendFrameAdvisable()
 .text._ZN10CNetDevice8IsLinkUpEv
                0x0000000000025524        0x8 ../../../addon/wlan/libwlan.a(bcm4343.o)
                0x0000000000025524                CNetDevice::IsLinkUp()
 .text._ZN10CNetDevice12GetLinkSpeedEv
                0x000000000002552c        0x8 ../../../addon/wlan/libwlan.a(bcm4343.o)
                0x000000000002552c                CNetDevice::GetLinkSpeed()
 .text._ZN10CNetDevice9UpdatePHYEv
                0x0000000000025534        0x8 ../../../addon/wlan/libwlan.a(bcm4343.o)
                0x0000000000025534                CNetDevice::UpdatePHY()
 .text._ZN14CBcm4343Device7GetTypeEv
                0x000000000002553c        0x8 ../../../addon/wlan/libwlan.a(bcm4343.o)
                0x000000000002553c                CBcm4343Device::GetType()
 .text          0x0000000000025544     0x43a4 ../../../addon/wlan/libwlan.a(ether4330.o)
                0x00000000000298d4                ether4330link
 .text          0x00000000000298e8      0xe3c ../../../addon/wlan/libwlan.a(emmc.o)
                0x000000000002a638                sdiocardintr
 .text          0x000000000002a724      0x2a8 ../../../addon/wlan/libwlan.a(p9arch.o)
                0x000000000002a724                gpiosel
                0x000000000002a794                gpiopulloff
                0x000000000002a7c0                gpiopullup
                0x000000000002a7f4                getclkrate
                0x000000000002a818                __p9delay
                0x000000000002a83c                __p9microdelay
                0x000000000002a860                coherence
                0x000000000002a880                intrenable
                0x000000000002a8c8                dmastart
                0x000000000002a924                dmawait
                0x000000000002a954                cachedinvse
                0x000000000002a974                p9arch_init
 .text          0x000000000002a9cc      0x2bc ../../../addon/wlan/libwlan.a(p9chan.o)
                0x000000000002aab0                cclose
                0x000000000002ab00                p9chan_init
                0x000000000002ab74                namec
 .text          0x000000000002ac88      0x28c ../../../addon/wlan/libwlan.a(p9cmd.o)
                0x000000000002ac88                cmderror
                0x000000000002ad54                lookupcmd
                0x000000000002adf0                parsecmd
 .text          0x000000000002af14      0x1c4 ../../../addon/wlan/libwlan.a(p9error.o)
                0x000000000002af14                __p9error
                0x000000000002afac                pusherror
                0x000000000002aff8                nexterror
                0x000000000002b06c                poperror
                0x000000000002b0d4                okay
 .text          0x000000000002b0d8      0x374 ../../../addon/wlan/libwlan.a(p9ether.o)
                0x000000000002b0d8                allocb
                0x000000000002b118                freeb
                0x000000000002b128                padblock
                0x000000000002b1b0                qlen
                0x000000000002b1b8                qget
                0x000000000002b25c                qpass
                0x000000000002b320                __p9nhgets
                0x000000000002b330                __p9nhgetl
                0x000000000002b33c                parseether
 .text          0x000000000002b44c      0x2c4 ../../../addon/wlan/libwlan.a(p9proc.o)
                0x000000000002b44c                __p9lock
                0x000000000002b454                __p9unlock
                0x000000000002b458                qlock
                0x000000000002b48c                qunlock
                0x000000000002b4d4                canqlock
                0x000000000002b514                __p9sleep
                0x000000000002b550                tsleep
                0x000000000002b5d4                __p9wakeup
                0x000000000002b5d8                return0
                0x000000000002b5e0                __p9kproc
                0x000000000002b63c                p9proc_init
                0x000000000002b6a8                get_error_stack
 .text._ZN6CKProc3RunEv
                0x000000000002b710       0x38 ../../../addon/wlan/libwlan.a(p9proc.o)
                0x000000000002b710                CKProc::Run()
 .text._ZN6CKProcD2Ev
                0x000000000002b748       0x2c ../../../addon/wlan/libwlan.a(p9proc.o)
                0x000000000002b748                CKProc::~CKProc()
                0x000000000002b748                CKProc::~CKProc()
 .text._ZN6CKProcD0Ev
                0x000000000002b774       0x38 ../../../addon/wlan/libwlan.a(p9proc.o)
                0x000000000002b774                CKProc::~CKProc()
 .text          0x000000000002b7ac      0x3bc ../../../addon/wlan/libwlan.a(p9util.o)
                0x000000000002b7ac                __p9readstr
                0x000000000002b840                __p9hexdump
                0x000000000002b844                __p9print
                0x000000000002b960                __p9sprint
                0x000000000002b9e4                __p9snprint
                0x000000000002ba90                __p9seprint
 .text          0x000000000002bb68     0x5dd8 ../../../addon/fatfs/libfatfs.a(ff.o)
                0x000000000002e5c0                f_mount
                0x000000000002e6bc                f_open
                0x000000000002eb2c                f_read
                0x000000000002ee38                f_write
                0x000000000002f288                f_sync
                0x000000000002f438                f_close
                0x000000000002f498                f_chdrive
                0x000000000002f4d0                f_chdir
                0x000000000002f628                f_getcwd
                0x000000000002f9a0                f_lseek
                0x000000000002fcc8                f_opendir
                0x000000000002fe50                f_closedir
                0x000000000002fe9c                f_readdir
                0x000000000002ffa0                f_findnext
                0x0000000000030068                f_findfirst
                0x00000000000300bc                f_stat
                0x00000000000301bc                f_getfree
                0x00000000000303b8                f_truncate
                0x0000000000030594                f_unlink
                0x0000000000030764                f_mkdir
                0x0000000000030a38                f_rename
                0x0000000000030cc4                f_chmod
                0x0000000000030de4                f_utime
                0x0000000000030f0c                f_getlabel
                0x00000000000310a0                f_setlabel
                0x000000000003132c                f_gets
                0x00000000000313cc                f_putc
                0x0000000000031410                f_puts
                0x0000000000031478                f_printf
                0x0000000000031920                f_getldn
 .text          0x0000000000031940      0x378 ../../../addon/fatfs/libfatfs.a(diskio.o)
                0x0000000000031940                disk_removed(CDevice*, void*)
                0x000000000003194c                disk_status
                0x0000000000031974                disk_initialize
                0x00000000000319e0                disk_read
                0x0000000000031af0                disk_write
                0x0000000000031bd0                disk_ioctl
 .text          0x0000000000031cb8      0x234 ../../../addon/fatfs/libfatfs.a(ffsystem.o)
                0x0000000000031cb8                ff_cre_syncobj
                0x0000000000031cec                ff_del_syncobj
                0x0000000000031d1c                ff_req_grant
                0x0000000000031d74                ff_rel_grant
                0x0000000000031dac                ff_memalloc
                0x0000000000031db0                ff_memfree
                0x0000000000031db4                get_fattime
 .text          0x0000000000031eec      0x1fc ../../../addon/fatfs/libfatfs.a(ffunicode.o)
                0x0000000000031eec                ff_uni2oem
                0x0000000000031f58                ff_oem2uni
                0x0000000000031f9c                ff_wtoupper
 .text          0x00000000000320e8     0x1e54 ../../../addon/SDCard/libsdcard.a(emmc.o)
                0x00000000000320e8                CEMMCDevice::CEMMCDevice(CInterruptSystem*, CTimer*, CActLED*)
                0x00000000000320e8                CEMMCDevice::CEMMCDevice(CInterruptSystem*, CTimer*, CActLED*)
                0x0000000000032340                CEMMCDevice::~CEMMCDevice()
                0x0000000000032340                CEMMCDevice::~CEMMCDevice()
                0x0000000000032400                CEMMCDevice::~CEMMCDevice()
                0x000000000003242c                CEMMCDevice::Initialize()
                0x0000000000032560                CEMMCDevice::Read(void*, unsigned int)
                0x000000000003261c                CEMMCDevice::Write(void const*, unsigned int)
                0x00000000000326d8                CEMMCDevice::Seek(unsigned long long)
                0x00000000000326f0                CEMMCDevice::PowerOn()
                0x0000000000032790                CEMMCDevice::PowerOff()
                0x00000000000327a8                CEMMCDevice::GetBaseClock()
                0x000000000003283c                CEMMCDevice::GetClockDivider(unsigned int, unsigned int)
                0x00000000000328c8                CEMMCDevice::SwitchClockRate(unsigned int, unsigned int)
                0x00000000000329c8                CEMMCDevice::ResetCmd()
                0x0000000000032a3c                CEMMCDevice::ResetDat()
                0x0000000000032ab0                CEMMCDevice::IssueCommandInt(unsigned int, unsigned int, int)
                0x0000000000032db0                CEMMCDevice::HandleCardInterrupt()
                0x0000000000032e14                CEMMCDevice::HandleInterrupts()
                0x0000000000032ed8                CEMMCDevice::IssueCommand(unsigned int, unsigned int, int)
                0x000000000003301c                CEMMCDevice::CardReset()
                0x000000000003393c                CEMMCDevice::CardInit()
                0x00000000000339f4                CEMMCDevice::EnsureDataMode()
                0x0000000000033b98                CEMMCDevice::DoDataCommand(int, unsigned char*, unsigned int, unsigned int)
                0x0000000000033d10                CEMMCDevice::DoRead(unsigned char*, unsigned int, unsigned int)
                0x0000000000033d78                CEMMCDevice::DoWrite(unsigned char*, unsigned int, unsigned int)
                0x0000000000033de4                CEMMCDevice::TimeoutWait(unsigned int, unsigned int, int, unsigned int)
                0x0000000000033e7c                CEMMCDevice::usDelay(unsigned int)
                0x0000000000033e9c                CEMMCDevice::LogWrite(TLogSeverity, char const*, ...)
                0x0000000000033f14                CEMMCDevice::GetID()
 .text          0x0000000000033f3c      0x4a8 ../../../lib/net/libnet.a(netsubsystem.o)
                0x0000000000033f3c                CNetSubSystem::Process()
                0x0000000000033f94                CNetSubSystem::GetConfig()
                0x0000000000033f9c                CNetSubSystem::GetNetDeviceLayer()
                0x0000000000033fa4                CNetSubSystem::GetLinkLayer()
                0x0000000000033fb0                CNetSubSystem::GetTransportLayer()
                0x0000000000033fbc                CNetSubSystem::IsRunning() const
                0x0000000000034024                CNetSubSystem::Initialize(bool)
                0x0000000000034190                CNetSubSystem::Get()
                0x00000000000341c4                CNetSubSystem::CNetSubSystem(unsigned char const*, unsigned char const*, unsigned char const*, unsigned char const*, char const*, TNetDeviceType)
                0x00000000000341c4                CNetSubSystem::CNetSubSystem(unsigned char const*, unsigned char const*, unsigned char const*, unsigned char const*, char const*, TNetDeviceType)
                0x000000000003437c                CNetSubSystem::~CNetSubSystem()
                0x000000000003437c                CNetSubSystem::~CNetSubSystem()
 .text          0x00000000000343e4       0xfc ../../../lib/net/libnet.a(nettask.o)
                0x00000000000343e4                CNetTask::~CNetTask()
                0x00000000000343e4                CNetTask::~CNetTask()
                0x0000000000034418                CNetTask::~CNetTask()
                0x0000000000034458                CNetTask::Run()
                0x00000000000344a0                CNetTask::CNetTask(CNetSubSystem*)
                0x00000000000344a0                CNetTask::CNetTask(CNetSubSystem*)
 .text          0x00000000000344e0     0x122c ../../../lib/net/libnet.a(transportlayer.o)
                0x00000000000344e0                CTransportLayer::Initialize()
                0x00000000000344e8                CTransportLayer::Bind(unsigned short, int)
                0x0000000000034684                CTransportLayer::Connect(CIPAddress&, unsigned short, unsigned short, int)
                0x0000000000034948                CTransportLayer::Listen(unsigned short, int)
                0x0000000000034ae0                CTransportLayer::Accept(CIPAddress*, unsigned short*, int)
                0x0000000000034be8                CTransportLayer::Disconnect(int)
                0x0000000000034c90                CTransportLayer::Send(void const*, unsigned int, int, int)
                0x0000000000034da4                CTransportLayer::Receive(void*, int, int)
                0x0000000000034e8c                CTransportLayer::SendTo(void const*, unsigned int, int, CIPAddress&, unsigned short, int)
                0x0000000000034fbc                CTransportLayer::ReceiveFrom(void*, int, CIPAddress*, unsigned short*, int)
                0x00000000000350c4                CTransportLayer::SetOptionBroadcast(bool, int)
                0x0000000000035174                CTransportLayer::IsConnected(int) const
                0x0000000000035214                CTransportLayer::GetForeignIP(int) const
                0x000000000003529c                CTransportLayer::CTransportLayer(CNetConfig*, CNetworkLayer*)
                0x000000000003529c                CTransportLayer::CTransportLayer(CNetConfig*, CNetworkLayer*)
                0x0000000000035374                CTransportLayer::~CTransportLayer()
                0x0000000000035374                CTransportLayer::~CTransportLayer()
                0x00000000000353a8                CTransportLayer::Process()
 .text._ZN12CTCPRejector7ConnectEv
                0x000000000003570c        0x8 ../../../lib/net/libnet.a(transportlayer.o)
                0x000000000003570c                CTCPRejector::Connect()
 .text._ZN12CTCPRejector6AcceptEP10CIPAddressPt
                0x0000000000035714        0x8 ../../../lib/net/libnet.a(transportlayer.o)
                0x0000000000035714                CTCPRejector::Accept(CIPAddress*, unsigned short*)
 .text._ZN12CTCPRejector5CloseEv
                0x000000000003571c        0x8 ../../../lib/net/libnet.a(transportlayer.o)
                0x000000000003571c                CTCPRejector::Close()
 .text._ZN12CTCPRejector4SendEPKvji
                0x0000000000035724        0x8 ../../../lib/net/libnet.a(transportlayer.o)
                0x0000000000035724                CTCPRejector::Send(void const*, unsigned int, int)
 .text._ZN12CTCPRejector7ReceiveEPvi
                0x000000000003572c        0x8 ../../../lib/net/libnet.a(transportlayer.o)
                0x000000000003572c                CTCPRejector::Receive(void*, int)
 .text._ZN12CTCPRejector6SendToEPKvjiR10CIPAddresst
                0x0000000000035734        0x8 ../../../lib/net/libnet.a(transportlayer.o)
                0x0000000000035734                CTCPRejector::SendTo(void const*, unsigned int, int, CIPAddress&, unsigned short)
 .text._ZN12CTCPRejector11ReceiveFromEPviP10CIPAddressPt
                0x000000000003573c        0x8 ../../../lib/net/libnet.a(transportlayer.o)
                0x000000000003573c                CTCPRejector::ReceiveFrom(void*, int, CIPAddress*, unsigned short*)
 .text._ZN12CTCPRejector18SetOptionBroadcastEb
                0x0000000000035744        0x8 ../../../lib/net/libnet.a(transportlayer.o)
                0x0000000000035744                CTCPRejector::SetOptionBroadcast(bool)
 .text._ZNK12CTCPRejector11IsConnectedEv
                0x000000000003574c        0x8 ../../../lib/net/libnet.a(transportlayer.o)
                0x000000000003574c                CTCPRejector::IsConnected() const
 .text._ZNK12CTCPRejector12IsTerminatedEv
                0x0000000000035754        0x8 ../../../lib/net/libnet.a(transportlayer.o)
                0x0000000000035754                CTCPRejector::IsTerminated() const
 .text._ZN12CTCPRejector7ProcessEv
                0x000000000003575c        0x4 ../../../lib/net/libnet.a(transportlayer.o)
                0x000000000003575c                CTCPRejector::Process()
 .text._ZN12CTCPRejector20NotificationReceivedE21TICMPNotificationTypeR10CIPAddressS2_tti
                0x0000000000035760        0x8 ../../../lib/net/libnet.a(transportlayer.o)
                0x0000000000035760                CTCPRejector::NotificationReceived(TICMPNotificationType, CIPAddress&, CIPAddress&, unsigned short, unsigned short, int)
 .text          0x0000000000035768      0xa44 ../../../lib/net/libnet.a(networklayer.o)
                0x0000000000035788                CNetworkLayer::CNetworkLayer(CNetConfig*, CLinkLayer*)
                0x0000000000035788                CNetworkLayer::CNetworkLayer(CNetConfig*, CLinkLayer*)
                0x0000000000035868                CNetworkLayer::~CNetworkLayer()
                0x0000000000035868                CNetworkLayer::~CNetworkLayer()
                0x00000000000358dc                CNetworkLayer::Initialize()
                0x000000000003595c                CNetworkLayer::Process()
                0x0000000000035bb4                CNetworkLayer::Send(CIPAddress const&, void const*, unsigned int, int)
                0x0000000000035e54                CNetworkLayer::Receive(void*, unsigned int*, CIPAddress*, CIPAddress*, int*)
                0x0000000000035f90                CNetworkLayer::ReceiveNotification(TICMPNotificationType*, CIPAddress*, CIPAddress*, unsigned short*, unsigned short*, int*)
                0x0000000000036108                CNetworkLayer::AddRoute(unsigned char const*, unsigned char const*)
                0x0000000000036110                CNetworkLayer::GetGateway(unsigned char const*) const
                0x0000000000036190                CNetworkLayer::SendFailed(unsigned int, void const*, unsigned int)
 .text          0x00000000000361ac      0x8c4 ../../../lib/net/libnet.a(linklayer.o)
                0x00000000000361ac                CLinkLayer::CLinkLayer(CNetConfig*, CNetDeviceLayer*)
                0x00000000000361ac                CLinkLayer::CLinkLayer(CNetConfig*, CNetDeviceLayer*)
                0x0000000000036280                CLinkLayer::~CLinkLayer()
                0x0000000000036280                CLinkLayer::~CLinkLayer()
                0x00000000000362f0                CLinkLayer::Initialize()
                0x0000000000036370                CLinkLayer::AttachLayer(CNetworkLayer*)
                0x00000000000363cc                CLinkLayer::Process()
                0x00000000000365e4                CLinkLayer::Send(CIPAddress const&, void const*, unsigned int)
                0x00000000000367c4                CLinkLayer::Receive(void*, unsigned int*)
                0x0000000000036838                CLinkLayer::SendRaw(void const*, unsigned int)
                0x00000000000368b8                CLinkLayer::ReceiveRaw(void*, unsigned int*, CMACAddress*)
                0x0000000000036998                CLinkLayer::EnableReceiveRaw(unsigned short)
                0x00000000000369e8                CLinkLayer::ResolveFailed(void const*, unsigned int)
 .text          0x0000000000036a70      0x440 ../../../lib/net/libnet.a(netdevlayer.o)
                0x0000000000036a70                CNetDeviceLayer::CNetDeviceLayer(CNetConfig*, TNetDeviceType)
                0x0000000000036a70                CNetDeviceLayer::CNetDeviceLayer(CNetConfig*, TNetDeviceType)
                0x0000000000036ad8                CNetDeviceLayer::Initialize(bool)
                0x0000000000036c64                CNetDeviceLayer::Process()
                0x0000000000036db8                CNetDeviceLayer::GetMACAddress() const
                0x0000000000036df0                CNetDeviceLayer::Send(void const*, unsigned int)
                0x0000000000036dfc                CNetDeviceLayer::Receive(void*, unsigned int*)
                0x0000000000036e60                CNetDeviceLayer::IsRunning() const
                0x0000000000036e70                CNetDeviceLayer::~CNetDeviceLayer()
                0x0000000000036e70                CNetDeviceLayer::~CNetDeviceLayer()
 .text          0x0000000000036eb0      0x134 ../../../lib/net/libnet.a(phytask.o)
                0x0000000000036eb0                CPHYTask::~CPHYTask()
                0x0000000000036eb0                CPHYTask::~CPHYTask()
                0x0000000000036ee4                CPHYTask::~CPHYTask()
                0x0000000000036f24                CPHYTask::Run()
                0x0000000000036fa4                CPHYTask::CPHYTask(CNetDevice*)
                0x0000000000036fa4                CPHYTask::CPHYTask(CNetDevice*)
 .text          0x0000000000036fe4      0xdc0 ../../../lib/net/libnet.a(arphandler.o)
                0x0000000000036fe4                CARPHandler::TimerHandler(unsigned int, void*, void*)
                0x00000000000370ac                CARPHandler::CARPHandler(CNetConfig*, CNetDeviceLayer*, CLinkLayer*, CNetQueue*)
                0x00000000000370ac                CARPHandler::CARPHandler(CNetConfig*, CNetDeviceLayer*, CLinkLayer*, CNetQueue*)
                0x0000000000037164                CARPHandler::~CARPHandler()
                0x0000000000037164                CARPHandler::~CARPHandler()
                0x00000000000371dc                CARPHandler::ReplyReceived(CIPAddress const&, CMACAddress const&)
                0x00000000000372f8                CARPHandler::RequestReceived(CIPAddress const&, CMACAddress const&)
                0x000000000003747c                CARPHandler::SendPacket(bool, CIPAddress const&, CMACAddress const&)
                0x00000000000375c4                CARPHandler::Process()
                0x0000000000037a40                CARPHandler::Resolve(CIPAddress const&, CMACAddress*, void const*, unsigned int)
 .text          0x0000000000037da4      0x7a0 ../../../lib/net/libnet.a(icmphandler.o)
                0x0000000000037da4                CICMPHandler::CICMPHandler(CNetConfig*, CNetworkLayer*, CNetQueue*, CNetQueue*)
                0x0000000000037da4                CICMPHandler::CICMPHandler(CNetConfig*, CNetworkLayer*, CNetQueue*, CNetQueue*)
                0x0000000000037e48                CICMPHandler::~CICMPHandler()
                0x0000000000037e48                CICMPHandler::~CICMPHandler()
                0x0000000000037e4c                CICMPHandler::EnqueueNotification(TICMPNotificationType, TIPHeader*, TICMPDataDatagramHeader*)
                0x0000000000037f54                CICMPHandler::Process()
                0x000000000003835c                CICMPHandler::DestinationUnreachable(unsigned int, void const*, unsigned int)
 .text          0x0000000000038544      0x278 ../../../lib/net/libnet.a(routecache.o)
                0x0000000000038544                CRouteCache::CRouteCache()
                0x0000000000038544                CRouteCache::CRouteCache()
                0x000000000003856c                CRouteCache::Flush()
                0x00000000000385d0                CRouteCache::~CRouteCache()
                0x00000000000385d0                CRouteCache::~CRouteCache()
                0x00000000000385f8                CRouteCache::AddRoute(unsigned char const*, unsigned char const*)
                0x0000000000038708                CRouteCache::GetRoute(unsigned char const*) const
 .text          0x00000000000387bc      0x2a4 ../../../lib/net/libnet.a(netconnection.o)
                0x00000000000387bc                CNetConnection::CNetConnection(CNetConfig*, CNetworkLayer*, CIPAddress&, unsigned short, unsigned short, int)
                0x00000000000387bc                CNetConnection::CNetConnection(CNetConfig*, CNetworkLayer*, CIPAddress&, unsigned short, unsigned short, int)
                0x00000000000388bc                CNetConnection::CNetConnection(CNetConfig*, CNetworkLayer*, unsigned short, int)
                0x00000000000388bc                CNetConnection::CNetConnection(CNetConfig*, CNetworkLayer*, unsigned short, int)
                0x0000000000038998                CNetConnection::~CNetConnection()
                0x0000000000038998                CNetConnection::~CNetConnection()
                0x00000000000389d8                CNetConnection::~CNetConnection()
                0x0000000000038a24                CNetConnection::GetForeignIP() const
                0x0000000000038a2c                CNetConnection::GetOwnPort() const
                0x0000000000038a58                CNetConnection::GetProtocol() const
 .text          0x0000000000038a60      0xac4 ../../../lib/net/libnet.a(udpconnection.o)
                0x0000000000038a60                CUDPConnection::Accept(CIPAddress*, unsigned short*)
                0x0000000000038a68                CUDPConnection::Close()
                0x0000000000038a88                CUDPConnection::SetOptionBroadcast(bool)
                0x0000000000038a98                CUDPConnection::IsConnected() const
                0x0000000000038aa0                CUDPConnection::IsTerminated() const
                0x0000000000038aac                CUDPConnection::Process()
                0x0000000000038ab0                CUDPConnection::Send(void const*, unsigned int, int)
                0x0000000000038c8c                CUDPConnection::SendTo(void const*, unsigned int, int, CIPAddress&, unsigned short)
                0x0000000000038e7c                CUDPConnection::Receive(void*, int)
                0x0000000000038f70                CUDPConnection::ReceiveFrom(void*, int, CIPAddress*, unsigned short*)
                0x0000000000039098                CUDPConnection::Connect()
                0x00000000000390cc                CUDPConnection::~CUDPConnection()
                0x00000000000390cc                CUDPConnection::~CUDPConnection()
                0x0000000000039130                CUDPConnection::~CUDPConnection()
                0x000000000003915c                CUDPConnection::PacketReceived(void const*, unsigned int, CIPAddress&, CIPAddress&, int)
                0x0000000000039334                CUDPConnection::NotificationReceived(TICMPNotificationType, CIPAddress&, CIPAddress&, unsigned short, unsigned short, int)
                0x0000000000039408                CUDPConnection::CUDPConnection(CNetConfig*, CNetworkLayer*, CIPAddress&, unsigned short, unsigned short)
                0x0000000000039408                CUDPConnection::CUDPConnection(CNetConfig*, CNetworkLayer*, CIPAddress&, unsigned short, unsigned short)
                0x000000000003949c                CUDPConnection::CUDPConnection(CNetConfig*, CNetworkLayer*, unsigned short)
                0x000000000003949c                CUDPConnection::CUDPConnection(CNetConfig*, CNetworkLayer*, unsigned short)
 .text          0x0000000000039524     0x23d8 ../../../lib/net/libnet.a(tcpconnection.o)
                0x0000000000039524                CTCPConnection::SendTo(void const*, unsigned int, int, CIPAddress&, unsigned short)
                0x000000000003953c                CTCPConnection::SetOptionBroadcast(bool)
                0x0000000000039544                CTCPConnection::IsConnected() const
                0x0000000000039568                CTCPConnection::IsTerminated() const
                0x0000000000039578                CTCPConnection::ReceiveFrom(void*, int, CIPAddress*, unsigned short*)
                0x00000000000395f8                CTCPConnection::Send(void const*, unsigned int, int)
                0x0000000000039728                CTCPConnection::Receive(void*, int)
                0x00000000000397f0                CTCPConnection::CTCPConnection(CNetConfig*, CNetworkLayer*, unsigned short)
                0x00000000000397f0                CTCPConnection::CTCPConnection(CNetConfig*, CNetworkLayer*, unsigned short)
                0x0000000000039950                CTCPConnection::SendSegment(unsigned int, unsigned int, unsigned int, void const*, unsigned int)
                0x0000000000039acc                CTCPConnection::ScanOptions(TTCPHeader*)
                0x0000000000039b9c                CTCPConnection::CalculateISN()
                0x0000000000039c14                CTCPConnection::StopTimer(unsigned int)
                0x0000000000039ce4                CTCPConnection::~CTCPConnection()
                0x0000000000039ce4                CTCPConnection::~CTCPConnection()
                0x0000000000039dd8                CTCPConnection::~CTCPConnection()
                0x0000000000039e04                CTCPConnection::Close()
                0x0000000000039f34                CTCPConnection::StartTimer(unsigned int, unsigned int)
                0x0000000000039ff0                CTCPConnection::CTCPConnection(CNetConfig*, CNetworkLayer*, CIPAddress&, unsigned short, unsigned short)
                0x0000000000039ff0                CTCPConnection::CTCPConnection(CNetConfig*, CNetworkLayer*, CIPAddress&, unsigned short, unsigned short)
                0x000000000003a1fc                CTCPConnection::Process()
                0x000000000003a540                CTCPConnection::NotificationReceived(TICMPNotificationType, CIPAddress&, CIPAddress&, unsigned short, unsigned short, int)
                0x000000000003a634                CTCPConnection::DumpStatus()
                0x000000000003a6c4                CTCPConnection::NewState(TTCPState, unsigned int)
                0x000000000003a77c                CTCPConnection::UnexpectedState(unsigned int)
                0x000000000003a7cc                CTCPConnection::Connect()
                0x000000000003a870                CTCPConnection::Accept(CIPAddress*, unsigned short*)
                0x000000000003a974                CTCPConnection::PacketReceived(void const*, unsigned int, CIPAddress&, CIPAddress&, int)
                0x000000000003b6b8                CTCPConnection::TimerHandler(unsigned int)
                0x000000000003b8a4                CTCPConnection::TimerStub(unsigned int, void*, void*)
 .text          0x000000000003b8fc      0x44c ../../../lib/net/libnet.a(retransmissionqueue.o)
                0x000000000003b8fc                CRetransmissionQueue::CRetransmissionQueue(unsigned int)
                0x000000000003b8fc                CRetransmissionQueue::CRetransmissionQueue(unsigned int)
                0x000000000003b95c                CRetransmissionQueue::~CRetransmissionQueue()
                0x000000000003b95c                CRetransmissionQueue::~CRetransmissionQueue()
                0x000000000003b98c                CRetransmissionQueue::IsEmpty() const
                0x000000000003b9a4                CRetransmissionQueue::GetFreeSpace() const
                0x000000000003ba38                CRetransmissionQueue::Write(void const*, unsigned int)
                0x000000000003bb20                CRetransmissionQueue::GetBytesAvailable() const
                0x000000000003bbb0                CRetransmissionQueue::Read(void*, unsigned int)
                0x000000000003bc98                CRetransmissionQueue::Advance(unsigned int)
                0x000000000003bd28                CRetransmissionQueue::Reset()
                0x000000000003bd34                CRetransmissionQueue::Flush()
 .text          0x000000000003bd48      0x360 ../../../lib/net/libnet.a(retranstimeoutcalc.o)
                0x000000000003bd48                CRetransmissionTimeoutCalculator::CRetransmissionTimeoutCalculator()
                0x000000000003bd48                CRetransmissionTimeoutCalculator::CRetransmissionTimeoutCalculator()
                0x000000000003bdac                CRetransmissionTimeoutCalculator::~CRetransmissionTimeoutCalculator()
                0x000000000003bdac                CRetransmissionTimeoutCalculator::~CRetransmissionTimeoutCalculator()
                0x000000000003bdb0                CRetransmissionTimeoutCalculator::GetRTO() const
                0x000000000003bdb8                CRetransmissionTimeoutCalculator::Initialize(unsigned int)
                0x000000000003be48                CRetransmissionTimeoutCalculator::SegmentSent(unsigned int, unsigned int)
                0x000000000003bef4                CRetransmissionTimeoutCalculator::RetransmissionTimerExpired()
                0x000000000003bf74                CRetransmissionTimeoutCalculator::Calculate(unsigned int)
                0x000000000003c000                CRetransmissionTimeoutCalculator::SegmentAcknowledged(unsigned int)
 .text          0x000000000003c0a8      0x308 ../../../lib/net/libnet.a(tcprejector.o)
                0x000000000003c0a8                CTCPRejector::~CTCPRejector()
                0x000000000003c0a8                CTCPRejector::~CTCPRejector()
                0x000000000003c0d4                CTCPRejector::~CTCPRejector()
                0x000000000003c10c                CTCPRejector::CTCPRejector(CNetConfig*, CNetworkLayer*)
                0x000000000003c10c                CTCPRejector::CTCPRejector(CNetConfig*, CNetworkLayer*)
                0x000000000003c14c                CTCPRejector::SendSegment(unsigned int, unsigned int, unsigned int)
                0x000000000003c228                CTCPRejector::PacketReceived(void const*, unsigned int, CIPAddress&, CIPAddress&, int)
 .text          0x000000000003c3b0      0x2a4 ../../../lib/net/libnet.a(netconfig.o)
                0x000000000003c3b0                CNetConfig::~CNetConfig()
                0x000000000003c3b0                CNetConfig::~CNetConfig()
                0x000000000003c3f4                CNetConfig::SetDHCP(bool)
                0x000000000003c3fc                CNetConfig::SetDefaultGateway(unsigned int)
                0x000000000003c404                CNetConfig::SetDNSServer(unsigned int)
                0x000000000003c40c                CNetConfig::SetDefaultGateway(unsigned char const*)
                0x000000000003c414                CNetConfig::SetDNSServer(unsigned char const*)
                0x000000000003c41c                CNetConfig::GetIPAddress() const
                0x000000000003c424                CNetConfig::IsDHCPUsed() const
                0x000000000003c42c                CNetConfig::GetNetMask() const
                0x000000000003c434                CNetConfig::GetDefaultGateway() const
                0x000000000003c43c                CNetConfig::GetDNSServer() const
                0x000000000003c444                CNetConfig::GetBroadcastAddress() const
                0x000000000003c44c                CNetConfig::UpdateBroadcastAddress()
                0x000000000003c498                CNetConfig::Reset()
                0x000000000003c4f8                CNetConfig::CNetConfig()
                0x000000000003c4f8                CNetConfig::CNetConfig()
                0x000000000003c5b4                CNetConfig::SetIPAddress(unsigned int)
                0x000000000003c5dc                CNetConfig::SetNetMask(unsigned int)
                0x000000000003c604                CNetConfig::SetIPAddress(unsigned char const*)
                0x000000000003c62c                CNetConfig::SetNetMask(unsigned char const*)
 .text          0x000000000003c654      0x5c8 ../../../lib/net/libnet.a(ipaddress.o)
                0x000000000003c654                CIPAddress::CIPAddress()
                0x000000000003c654                CIPAddress::CIPAddress()
                0x000000000003c660                CIPAddress::CIPAddress(unsigned int)
                0x000000000003c660                CIPAddress::CIPAddress(unsigned int)
                0x000000000003c670                CIPAddress::CIPAddress(CIPAddress const&)
                0x000000000003c670                CIPAddress::CIPAddress(CIPAddress const&)
                0x000000000003c6b0                CIPAddress::~CIPAddress()
                0x000000000003c6b0                CIPAddress::~CIPAddress()
                0x000000000003c6b4                CIPAddress::operator==(CIPAddress const&) const
                0x000000000003c724                CIPAddress::operator!=(CIPAddress const&) const
                0x000000000003c790                CIPAddress::operator==(unsigned char const*) const
                0x000000000003c7fc                CIPAddress::operator!=(unsigned char const*) const
                0x000000000003c81c                CIPAddress::operator==(unsigned int) const
                0x000000000003c85c                CIPAddress::operator!=(unsigned int) const
                0x000000000003c898                CIPAddress::operator=(unsigned int)
                0x000000000003c8a8                CIPAddress::Set(unsigned int)
                0x000000000003c8b8                CIPAddress::Set(unsigned char const*)
                0x000000000003c904                CIPAddress::CIPAddress(unsigned char const*)
                0x000000000003c904                CIPAddress::CIPAddress(unsigned char const*)
                0x000000000003c924                CIPAddress::Set(CIPAddress const&)
                0x000000000003c964                CIPAddress::SetBroadcast()
                0x000000000003c978                CIPAddress::operator unsigned int() const
                0x000000000003c9ac                CIPAddress::Get() const
                0x000000000003c9e0                CIPAddress::CopyTo(unsigned char*) const
                0x000000000003ca4c                CIPAddress::IsNull() const
                0x000000000003ca88                CIPAddress::IsBroadcast() const
                0x000000000003cac8                CIPAddress::GetSize() const
                0x000000000003cad0                CIPAddress::Format(CString*) const
                0x000000000003cb50                CIPAddress::OnSameNetwork(CIPAddress const&, unsigned char const*) const
 .text          0x000000000003cc1c      0x3b4 ../../../lib/net/libnet.a(netqueue.o)
                0x000000000003cc1c                CNetQueue::CNetQueue()
                0x000000000003cc1c                CNetQueue::CNetQueue()
                0x000000000003cc30                CNetQueue::IsEmpty() const
                0x000000000003cc40                CNetQueue::Flush()
                0x000000000003cd1c                CNetQueue::~CNetQueue()
                0x000000000003cd1c                CNetQueue::~CNetQueue()
                0x000000000003cd3c                CNetQueue::Enqueue(void const*, unsigned int, void*)
                0x000000000003ce94                CNetQueue::Dequeue(void*, void**)
 .text          0x000000000003cfd0      0x2f4 ../../../lib/net/libnet.a(checksumcalculator.o)
                0x000000000003cfd0                CChecksumCalculator::CChecksumCalculator(CIPAddress const&, int)
                0x000000000003cfd0                CChecksumCalculator::CChecksumCalculator(CIPAddress const&, int)
                0x000000000003d014                CChecksumCalculator::CChecksumCalculator(CIPAddress const&, CIPAddress const&, int)
                0x000000000003d014                CChecksumCalculator::CChecksumCalculator(CIPAddress const&, CIPAddress const&, int)
                0x000000000003d06c                CChecksumCalculator::~CChecksumCalculator()
                0x000000000003d06c                CChecksumCalculator::~CChecksumCalculator()
                0x000000000003d070                CChecksumCalculator::SetSourceAddress(CIPAddress const&)
                0x000000000003d080                CChecksumCalculator::SetDestinationAddress(CIPAddress const&)
                0x000000000003d0ac                CChecksumCalculator::CalculateChunk(void const*, unsigned int, unsigned int)
                0x000000000003d150                CChecksumCalculator::Calculate(void const*, unsigned int)
                0x000000000003d220                CChecksumCalculator::SimpleCalculate(void const*, unsigned int)
                0x000000000003d2a0                CChecksumCalculator::FoldResult(unsigned int)
 .text          0x000000000003d2c4     0x15d4 ../../../lib/net/libnet.a(dhcpclient.o)
                0x000000000003d2e4                CDHCPClient::IsBound() const
                0x000000000003d2ec                CDHCPClient::HaltNetwork()
                0x000000000003d314                CDHCPClient::CheckConfig()
                0x000000000003d4ac                CDHCPClient::GetUnaligned(void const*)
                0x000000000003d4dc                CDHCPClient::ScanOptions(unsigned char const*, unsigned int)
                0x000000000003d7e4                CDHCPClient::GetXID() const
                0x000000000003d860                CDHCPClient::SetUnaligned(void*, unsigned int)
                0x000000000003d8a8                CDHCPClient::CDHCPClient(CNetSubSystem*, char const*)
                0x000000000003d8a8                CDHCPClient::CDHCPClient(CNetSubSystem*, char const*)
                0x000000000003d9cc                CDHCPClient::~CDHCPClient()
                0x000000000003d9cc                CDHCPClient::~CDHCPClient()
                0x000000000003da14                CDHCPClient::~CDHCPClient()
                0x000000000003da40                CDHCPClient::ReceiveMessage()
                0x000000000003dbf4                CDHCPClient::SendMessage(unsigned char const*, unsigned int)
                0x000000000003dd38                CDHCPClient::SendDiscover()
                0x000000000003dd50                CDHCPClient::SendRequest(unsigned int)
                0x000000000003dea8                CDHCPClient::SendAndReceive(bool, unsigned int)
                0x000000000003e078                CDHCPClient::SelectAndRequest()
                0x000000000003e380                CDHCPClient::RenewOrRebind(bool, unsigned int)
                0x000000000003e704                CDHCPClient::Run()
 .text          0x000000000003e898      0x2f8 ../../../lib/net/libnet.a(ntpdaemon.o)
                0x000000000003e898                CNTPDaemon::UpdateTime()
                0x000000000003ea44                CNTPDaemon::Run()
                0x000000000003ea70                CNTPDaemon::CNTPDaemon(char const*, CNetSubSystem*)
                0x000000000003ea70                CNTPDaemon::CNTPDaemon(char const*, CNetSubSystem*)
                0x000000000003eb04                CNTPDaemon::~CNTPDaemon()
                0x000000000003eb04                CNTPDaemon::~CNTPDaemon()
                0x000000000003eb44                CNTPDaemon::~CNTPDaemon()
 .text          0x000000000003eb90      0xab0 ../../../lib/net/libnet.a(socket.o)
                0x000000000003eb90                CSocket::Connect(CIPAddress&, unsigned short)
                0x000000000003ec8c                CSocket::SendTo(void const*, unsigned int, int, CIPAddress&, unsigned short)
                0x000000000003ed88                CSocket::~CSocket()
                0x000000000003ed88                CSocket::~CSocket()
                0x000000000003ee60                CSocket::~CSocket()
                0x000000000003ee8c                CSocket::Bind(unsigned short)
                0x000000000003ef04                CSocket::Listen(unsigned int)
                0x000000000003f004                CSocket::Send(void const*, unsigned int, int)
                0x000000000003f08c                CSocket::Receive(void*, unsigned int, int)
                0x000000000003f154                CSocket::ReceiveFrom(void*, unsigned int, int, CIPAddress*, unsigned short*)
                0x000000000003f224                CSocket::SetOptionBroadcast(bool)
                0x000000000003f27c                CSocket::GetForeignIP() const
                0x000000000003f2c0                CSocket::CSocket(CNetSubSystem*, int)
                0x000000000003f2c0                CSocket::CSocket(CNetSubSystem*, int)
                0x000000000003f380                CSocket::CSocket(CSocket&, int)
                0x000000000003f380                CSocket::CSocket(CSocket&, int)
                0x000000000003f444                CSocket::Accept(CIPAddress*, unsigned short*)
 .text          0x000000000003f640      0x588 ../../../lib/net/libnet.a(dnsclient.o)
                0x000000000003f640                CDNSClient::CDNSClient(CNetSubSystem*)
                0x000000000003f640                CDNSClient::CDNSClient(CNetSubSystem*)
                0x000000000003f66c                CDNSClient::~CDNSClient()
                0x000000000003f66c                CDNSClient::~CDNSClient()
                0x000000000003f670                CDNSClient::ConvertIPString(char const*, CIPAddress*)
                0x000000000003f79c                CDNSClient::Resolve(char const*, CIPAddress*)
 .text          0x000000000003fbc8      0x1c4 ../../../lib/net/libnet.a(ntpclient.o)
                0x000000000003fbc8                CNTPClient::CNTPClient(CNetSubSystem*)
                0x000000000003fbc8                CNTPClient::CNTPClient(CNetSubSystem*)
                0x000000000003fbf4                CNTPClient::~CNTPClient()
                0x000000000003fbf4                CNTPClient::~CNTPClient()
                0x000000000003fbf8                CNTPClient::GetTime(CIPAddress&)
 .text          0x000000000003fd8c      0x224 ../../../lib/net/libnet.a(netsocket.o)
                0x000000000003fd8c                CNetSocket::Connect(char const*, char const*)
                0x000000000003ff24                CNetSocket::CNetSocket(CNetSubSystem*)
                0x000000000003ff24                CNetSocket::CNetSocket(CNetSubSystem*)
                0x000000000003ff5c                CNetSocket::~CNetSocket()
                0x000000000003ff5c                CNetSocket::~CNetSocket()
                0x000000000003ff60                CNetSocket::~CNetSocket()
                0x000000000003ff84                CNetSocket::GetNetSubSystem()
 .text._ZN10CNetSocket4BindEt
                0x000000000003ffb0        0x8 ../../../lib/net/libnet.a(netsocket.o)
                0x000000000003ffb0                CNetSocket::Bind(unsigned short)
 .text._ZN10CNetSocket6ListenEj
                0x000000000003ffb8        0x8 ../../../lib/net/libnet.a(netsocket.o)
                0x000000000003ffb8                CNetSocket::Listen(unsigned int)
 .text._ZN10CNetSocket6AcceptEP10CIPAddressPt
                0x000000000003ffc0        0x8 ../../../lib/net/libnet.a(netsocket.o)
                0x000000000003ffc0                CNetSocket::Accept(CIPAddress*, unsigned short*)
 .text._ZN10CNetSocket6SendToEPKvjiR10CIPAddresst
                0x000000000003ffc8        0x8 ../../../lib/net/libnet.a(netsocket.o)
                0x000000000003ffc8                CNetSocket::SendTo(void const*, unsigned int, int, CIPAddress&, unsigned short)
 .text._ZN10CNetSocket11ReceiveFromEPvjiP10CIPAddressPt
                0x000000000003ffd0        0x8 ../../../lib/net/libnet.a(netsocket.o)
                0x000000000003ffd0                CNetSocket::ReceiveFrom(void*, unsigned int, int, CIPAddress*, unsigned short*)
 .text._ZN10CNetSocket18SetOptionBroadcastEb
                0x000000000003ffd8        0x8 ../../../lib/net/libnet.a(netsocket.o)
                0x000000000003ffd8                CNetSocket::SetOptionBroadcast(bool)
 .text          0x000000000003ffe0      0x2cc ../../../lib/sched/libsched.a(task.o)
                0x000000000003ffe0                CTask::Run()
                0x0000000000040000                CTask::TaskEntry(void*)
                0x0000000000040064                CTask::~CTask()
                0x0000000000040064                CTask::~CTask()
                0x00000000000400d8                CTask::~CTask()
                0x0000000000040104                CTask::Terminate()
                0x0000000000040140                CTask::WaitForTermination()
                0x0000000000040148                CTask::SetUserData(void*, unsigned int)
                0x0000000000040154                CTask::GetUserData(unsigned int)
                0x0000000000040160                CTask::InitializeRegs()
                0x00000000000401d8                CTask::CTask(unsigned int)
                0x00000000000401d8                CTask::CTask(unsigned int)
 .text          0x00000000000402ac      0x6dc ../../../lib/sched/libsched.a(scheduler.o)
                0x00000000000402ac                CScheduler::CScheduler()
                0x00000000000402ac                CScheduler::CScheduler()
                0x0000000000040340                CScheduler::~CScheduler()
                0x0000000000040340                CScheduler::~CScheduler()
                0x0000000000040354                CScheduler::GetCurrentTask()
                0x000000000004035c                CScheduler::RegisterTaskSwitchHandler(void (*)(CTask*))
                0x00000000000403b8                CScheduler::RegisterTaskTerminationHandler(void (*)(CTask*))
                0x0000000000040414                CScheduler::AddTask(CTask*)
                0x00000000000404cc                CScheduler::RemoveTask(CTask*)
                0x000000000004053c                CScheduler::WakeTask(CTask**)
                0x00000000000405c4                CScheduler::GetNextTask()
                0x00000000000406c0                CScheduler::Yield()
                0x00000000000407a0                CScheduler::usSleep(unsigned int)
                0x0000000000040840                CScheduler::Sleep(unsigned int)
                0x00000000000408b0                CScheduler::MsSleep(unsigned int)
                0x00000000000408c8                CScheduler::BlockTask(CTask**)
                0x0000000000040954                CScheduler::Get()
 .text          0x0000000000040988       0x24 ../../../lib/sched/libsched.a(taskswitch.o)
                0x0000000000040988                TaskSwitch
 .text          0x00000000000409ac      0x118 ../../../lib/sched/libsched.a(synchronizationevent.o)
                0x00000000000409ac                CSynchronizationEvent::CSynchronizationEvent(bool)
                0x00000000000409ac                CSynchronizationEvent::CSynchronizationEvent(bool)
                0x00000000000409bc                CSynchronizationEvent::~CSynchronizationEvent()
                0x00000000000409bc                CSynchronizationEvent::~CSynchronizationEvent()
                0x00000000000409e8                CSynchronizationEvent::GetState()
                0x00000000000409f0                CSynchronizationEvent::Clear()
                0x00000000000409fc                CSynchronizationEvent::Set()
                0x0000000000040a4c                CSynchronizationEvent::Wait()
 .text          0x0000000000040ac4      0xba4 ../../../lib/usb/libusb.a(xhcidevice.o)
                0x0000000000040ac4                CXHCIDevice::CXHCIDevice(CInterruptSystem*, CTimer*, bool)
                0x0000000000040ac4                CXHCIDevice::CXHCIDevice(CInterruptSystem*, CTimer*, bool)
                0x0000000000040b80                CXHCIDevice::~CXHCIDevice()
                0x0000000000040b80                CXHCIDevice::~CXHCIDevice()
                0x0000000000040cac                CXHCIDevice::~CXHCIDevice()
                0x0000000000040cd8                CXHCIDevice::Initialize(bool)
                0x000000000004115c                CXHCIDevice::ReScanDevices()
                0x0000000000041188                CXHCIDevice::SubmitBlockingRequest(CUSBRequest*, unsigned int)
                0x000000000004120c                CXHCIDevice::SubmitAsyncRequest(CUSBRequest*, unsigned int)
                0x0000000000041290                CXHCIDevice::GetMMIOSpace()
                0x00000000000412b8                CXHCIDevice::GetSlotManager()
                0x00000000000412e0                CXHCIDevice::GetCommandManager()
                0x0000000000041308                CXHCIDevice::GetRootHub()
                0x0000000000041330                CXHCIDevice::AllocateSharedMem(unsigned int, unsigned int, unsigned int)
                0x000000000004138c                CXHCIDevice::FreeSharedMem(void*)
                0x0000000000041394                CXHCIDevice::InterruptHandler(unsigned int)
                0x00000000000414d0                CXHCIDevice::InterruptStub(unsigned int, void*)
                0x0000000000041500                CXHCIDevice::HWReset()
                0x00000000000415dc                CXHCIDevice::DumpStatus()
 .text._ZN18CUSBHostController24CancelDeviceTransactionsEP10CUSBDevice
                0x0000000000041668        0x4 ../../../lib/usb/libusb.a(xhcidevice.o)
                0x0000000000041668                CUSBHostController::CancelDeviceTransactions(CUSBDevice*)
 .text          0x000000000004166c     0x1058 ../../../lib/usb/libusb.a(xhciendpoint.o)
                0x000000000004166c                CXHCIEndpoint::CompletionRoutine(CUSBRequest*, void*, void*)
                0x00000000000416cc                CXHCIEndpoint::CXHCIEndpoint(CXHCIUSBDevice*, CXHCIDevice*)
                0x00000000000416cc                CXHCIEndpoint::CXHCIEndpoint(CXHCIUSBDevice*, CXHCIDevice*)
                0x0000000000041784                CXHCIEndpoint::~CXHCIEndpoint()
                0x0000000000041784                CXHCIEndpoint::~CXHCIEndpoint()
                0x0000000000041814                CXHCIEndpoint::IsValid()
                0x000000000004181c                CXHCIEndpoint::GetTransferRing()
                0x0000000000041848                CXHCIEndpoint::TransferEvent(unsigned char, unsigned int)
                0x0000000000041970                CXHCIEndpoint::DumpStatus()
                0x0000000000041a48                CXHCIEndpoint::EnqueueTRB(unsigned int, unsigned int, unsigned int, unsigned int)
                0x0000000000041adc                CXHCIEndpoint::TransferAsync(CUSBRequest*, unsigned int)
                0x0000000000041e54                CXHCIEndpoint::Transfer(CUSBRequest*, unsigned int)
                0x0000000000041f88                CXHCIEndpoint::GetInputContextSetMaxPacketSize()
                0x0000000000042058                CXHCIEndpoint::GetInputContextConfigureEndpoint()
                0x0000000000042214                CXHCIEndpoint::FreeInputContext()
                0x000000000004225c                CXHCIEndpoint::SetMaxPacketSize(unsigned int)
                0x0000000000042398                CXHCIEndpoint::CXHCIEndpoint(CXHCIUSBDevice*, TUSBEndpointDescriptor const*, CXHCIDevice*)
                0x0000000000042398                CXHCIEndpoint::CXHCIEndpoint(CXHCIUSBDevice*, TUSBEndpointDescriptor const*, CXHCIDevice*)
                0x000000000004266c                CXHCIEndpoint::ConvertInterval(unsigned char, TUSBSpeed)
 .text          0x00000000000426c4      0x474 ../../../lib/usb/libusb.a(xhcieventmanager.o)
                0x00000000000426c4                CXHCIEventManager::CXHCIEventManager(CXHCIDevice*)
                0x00000000000426c4                CXHCIEventManager::CXHCIEventManager(CXHCIDevice*)
                0x0000000000042894                CXHCIEventManager::~CXHCIEventManager()
                0x0000000000042894                CXHCIEventManager::~CXHCIEventManager()
                0x0000000000042954                CXHCIEventManager::IsValid()
                0x0000000000042988                CXHCIEventManager::HandleEvents()
                0x0000000000042b28                CXHCIEventManager::DumpStatus()
 .text          0x0000000000042b38      0x4f4 ../../../lib/usb/libusb.a(xhcimmiospace.o)
                0x0000000000042b58                CXHCIMMIOSpace::CXHCIMMIOSpace(unsigned int)
                0x0000000000042b58                CXHCIMMIOSpace::CXHCIMMIOSpace(unsigned int)
                0x0000000000042bf8                CXHCIMMIOSpace::~CXHCIMMIOSpace()
                0x0000000000042bf8                CXHCIMMIOSpace::~CXHCIMMIOSpace()
                0x0000000000042bfc                CXHCIMMIOSpace::cap_read32(unsigned int)
                0x0000000000042c64                CXHCIMMIOSpace::op_read32(unsigned int)
                0x0000000000042c9c                CXHCIMMIOSpace::pt_read32(unsigned int, unsigned int)
                0x0000000000042cd8                CXHCIMMIOSpace::rt_read32(unsigned int, unsigned int)
                0x0000000000042d18                CXHCIMMIOSpace::rt_read64(unsigned int, unsigned int)
                0x0000000000042d68                CXHCIMMIOSpace::op_write32(unsigned int, unsigned int)
                0x0000000000042d8c                CXHCIMMIOSpace::db_write32(unsigned int, unsigned int)
                0x0000000000042dc4                CXHCIMMIOSpace::pt_write32(unsigned int, unsigned int, unsigned int)
                0x0000000000042e00                CXHCIMMIOSpace::rt_write32(unsigned int, unsigned int, unsigned int)
                0x0000000000042e40                CXHCIMMIOSpace::op_write64(unsigned int, unsigned long long)
                0x0000000000042e84                CXHCIMMIOSpace::rt_write64(unsigned int, unsigned int, unsigned long long)
                0x0000000000042ed8                CXHCIMMIOSpace::op_wait32(unsigned int, unsigned int, unsigned int, unsigned int)
                0x0000000000042f80                CXHCIMMIOSpace::DumpStatus()
                0x0000000000042ff8                CXHCIMMIOSpace::cap_read32_raw(unsigned int)
 .text          0x000000000004302c      0x5a8 ../../../lib/usb/libusb.a(xhciring.o)
                0x000000000004302c                CXHCIRing::CXHCIRing(TXHCIRingType, unsigned int, CXHCIDevice*)
                0x000000000004302c                CXHCIRing::CXHCIRing(TXHCIRingType, unsigned int, CXHCIDevice*)
                0x0000000000043154                CXHCIRing::~CXHCIRing()
                0x0000000000043154                CXHCIRing::~CXHCIRing()
                0x0000000000043184                CXHCIRing::IsValid() const
                0x0000000000043194                CXHCIRing::GetTRBCount() const
                0x00000000000431c8                CXHCIRing::GetFirstTRB()
                0x00000000000431f4                CXHCIRing::GetDequeueTRB()
                0x0000000000043270                CXHCIRing::GetEnqueueTRB()
                0x00000000000432ec                CXHCIRing::IncrementDequeue()
                0x00000000000433dc                CXHCIRing::IncrementEnqueue()
                0x00000000000434dc                CXHCIRing::GetCycleState() const
                0x0000000000043510                CXHCIRing::DumpStatus(char const*)
 .text          0x00000000000435d4      0x32c ../../../lib/usb/libusb.a(xhciroothub.o)
                0x00000000000435d4                CXHCIRootHub::CXHCIRootHub(unsigned int, CXHCIDevice*)
                0x00000000000435d4                CXHCIRootHub::CXHCIRootHub(unsigned int, CXHCIDevice*)
                0x0000000000043658                CXHCIRootHub::~CXHCIRootHub()
                0x0000000000043658                CXHCIRootHub::~CXHCIRootHub()
                0x00000000000436c8                CXHCIRootHub::Initialize()
                0x00000000000437bc                CXHCIRootHub::ReScanDevices()
                0x000000000004384c                CXHCIRootHub::StatusChanged(unsigned char)
                0x00000000000438b4                CXHCIRootHub::DumpStatus()
 .text          0x0000000000043900      0x9b0 ../../../lib/usb/libusb.a(xhcirootport.o)
                0x0000000000043900                CXHCIRootPort::~CXHCIRootPort()
                0x0000000000043900                CXHCIRootPort::~CXHCIRootPort()
                0x0000000000043940                CXHCIRootPort::RemoveDevice()
                0x000000000004397c                CXHCIRootPort::~CXHCIRootPort()
                0x00000000000439c8                CXHCIRootPort::GetPortID() const
                0x0000000000043a00                CXHCIRootPort::CXHCIRootPort(unsigned char, CXHCIDevice*)
                0x0000000000043a00                CXHCIRootPort::CXHCIRootPort(unsigned char, CXHCIDevice*)
                0x0000000000043a74                CXHCIRootPort::GetPortSpeed()
                0x0000000000043afc                CXHCIRootPort::StatusChanged()
                0x0000000000043c0c                CXHCIRootPort::DumpStatus()
                0x0000000000043cb0                CXHCIRootPort::IsConnected()
                0x0000000000043d1c                CXHCIRootPort::HandlePortStatusChange()
                0x0000000000043d8c                CXHCIRootPort::Reset(unsigned int)
                0x0000000000043e6c                CXHCIRootPort::WaitForU0State(unsigned int)
                0x0000000000043ee0                CXHCIRootPort::PowerOffOnOverCurrent()
                0x0000000000043fd8                CXHCIRootPort::Configure()
                0x00000000000440cc                CXHCIRootPort::Initialize()
                0x0000000000044264                CXHCIRootPort::ReScanDevices()
 .text          0x00000000000442b0      0x3c0 ../../../lib/usb/libusb.a(xhcisharedmemallocator.o)
                0x00000000000442b0                CXHCISharedMemAllocator::CXHCISharedMemAllocator(unsigned int, unsigned int)
                0x00000000000442b0                CXHCISharedMemAllocator::CXHCISharedMemAllocator(unsigned int, unsigned int)
                0x000000000004430c                CXHCISharedMemAllocator::~CXHCISharedMemAllocator()
                0x000000000004430c                CXHCISharedMemAllocator::~CXHCISharedMemAllocator()
                0x0000000000044310                CXHCISharedMemAllocator::GetFreeSpace() const
                0x0000000000044328                CXHCISharedMemAllocator::Allocate(unsigned int, unsigned int, unsigned int)
                0x00000000000445a0                CXHCISharedMemAllocator::Free(void*)
 .text          0x0000000000044670      0x374 ../../../lib/usb/libusb.a(xhcislotmanager.o)
                0x0000000000044670                CXHCISlotManager::CXHCISlotManager(CXHCIDevice*)
                0x0000000000044670                CXHCISlotManager::CXHCISlotManager(CXHCIDevice*)
                0x0000000000044734                CXHCISlotManager::~CXHCISlotManager()
                0x0000000000044734                CXHCISlotManager::~CXHCISlotManager()
                0x000000000004477c                CXHCISlotManager::IsValid()
                0x000000000004478c                CXHCISlotManager::AssignDevice(unsigned char, CXHCIUSBDevice*)
                0x00000000000448a8                CXHCISlotManager::FreeSlot(unsigned char)
                0x0000000000044920                CXHCISlotManager::AssignScratchpadBufferArray(unsigned long long*)
                0x0000000000044964                CXHCISlotManager::TransferEvent(unsigned char, unsigned int, unsigned char, unsigned char)
                0x00000000000449d0                CXHCISlotManager::DumpStatus()
 .text          0x00000000000449e4      0xa34 ../../../lib/usb/libusb.a(xhciusbdevice.o)
                0x00000000000449e4                CXHCIUSBDevice::~CXHCIUSBDevice()
                0x00000000000449e4                CXHCIUSBDevice::~CXHCIUSBDevice()
                0x0000000000044af8                CXHCIUSBDevice::~CXHCIUSBDevice()
                0x0000000000044b24                CXHCIUSBDevice::CXHCIUSBDevice(CXHCIDevice*, TUSBSpeed, CXHCIRootPort*)
                0x0000000000044b24                CXHCIUSBDevice::CXHCIUSBDevice(CXHCIDevice*, TUSBSpeed, CXHCIRootPort*)
                0x0000000000044bb8                CXHCIUSBDevice::CXHCIUSBDevice(CXHCIDevice*, TUSBSpeed, CUSBStandardHub*, unsigned int)
                0x0000000000044bb8                CXHCIUSBDevice::CXHCIUSBDevice(CXHCIDevice*, TUSBSpeed, CUSBStandardHub*, unsigned int)
                0x0000000000044c5c                CXHCIUSBDevice::GetSlotID() const
                0x0000000000044c8c                CXHCIUSBDevice::GetDeviceContext()
                0x0000000000044cb8                CXHCIUSBDevice::RegisterEndpoint(unsigned char, CXHCIEndpoint*)
                0x0000000000044d18                CXHCIUSBDevice::TransferEvent(unsigned char, unsigned int, unsigned char)
                0x0000000000044d7c                CXHCIUSBDevice::DumpStatus()
                0x0000000000044dcc                CXHCIUSBDevice::GetInputContextAddressDevice()
                0x0000000000045058                CXHCIUSBDevice::GetInputContextEnableHubFunction()
                0x00000000000451a4                CXHCIUSBDevice::FreeInputContext()
                0x00000000000451ec                CXHCIUSBDevice::EnableHubFunction()
                0x0000000000045290                CXHCIUSBDevice::Initialize()
 .text._ZNK12CUSBFunction10GetHubInfoEv
                0x0000000000045418        0x8 ../../../lib/usb/libusb.a(xhciusbdevice.o)
                0x0000000000045418                CUSBFunction::GetHubInfo() const
 .text          0x0000000000045420     0x1244 ../../../lib/usb/libusb.a(usbdevice.o)
                0x0000000000045420                CUSBDevice::CUSBDevice(CUSBHostController*, TUSBSpeed, CUSBHCIRootPort*)
                0x0000000000045420                CUSBDevice::CUSBDevice(CUSBHostController*, TUSBSpeed, CUSBHCIRootPort*)
                0x0000000000045544                CUSBDevice::ReScanDevices()
                0x0000000000045598                CUSBDevice::RemoveDevice()
                0x00000000000455e8                CUSBDevice::GetName(TDeviceNameSelector) const
                0x0000000000045708                CUSBDevice::GetNames() const
                0x0000000000045828                CUSBDevice::SetAddress(unsigned char)
                0x000000000004585c                CUSBDevice::GetAddress() const
                0x0000000000045864                CUSBDevice::GetSpeed() const
                0x000000000004586c                CUSBDevice::IsSplit() const
                0x0000000000045874                CUSBDevice::GetHubAddress() const
                0x000000000004587c                CUSBDevice::GetHubPortNumber() const
                0x0000000000045884                CUSBDevice::GetTTHubDevice() const
                0x000000000004588c                CUSBDevice::GetEndpoint0() const
                0x00000000000458b8                CUSBDevice::GetHost() const
                0x00000000000458e4                CUSBDevice::GetDeviceDescriptor() const
                0x0000000000045910                CUSBDevice::GetConfigurationDescriptor() const
                0x000000000004593c                CUSBDevice::GetDescriptor(unsigned char)
                0x000000000004596c                CUSBDevice::ConfigurationError(char const*) const
                0x000000000004599c                CUSBDevice::AppendPortToRouteString(unsigned int, unsigned int)
                0x00000000000459f0                CUSBDevice::CUSBDevice(CUSBHostController*, TUSBSpeed, CUSBStandardHub*, unsigned int)
                0x00000000000459f0                CUSBDevice::CUSBDevice(CUSBHostController*, TUSBSpeed, CUSBStandardHub*, unsigned int)
                0x0000000000045b98                CUSBDevice::LogWrite(TLogSeverity, char const*, ...)
                0x0000000000045cd0                CUSBDevice::~CUSBDevice()
                0x0000000000045cd0                CUSBDevice::~CUSBDevice()
                0x0000000000045e60                CUSBDevice::~CUSBDevice()
                0x0000000000045e8c                CUSBDevice::Initialize()
                0x000000000004655c                CUSBDevice::Configure()
 .text          0x0000000000046664      0x540 ../../../lib/usb/libusb.a(usbdevicefactory.o)
                0x0000000000046664                CUSBDeviceFactory::GetDevice(CUSBFunction*, CString*)
 .text          0x0000000000046ba4      0x2e0 ../../../lib/usb/libusb.a(usbendpoint.o)
                0x0000000000046ba4                CUSBEndpoint::CUSBEndpoint(CUSBDevice*)
                0x0000000000046ba4                CUSBEndpoint::CUSBEndpoint(CUSBDevice*)
                0x0000000000046c38                CUSBEndpoint::CUSBEndpoint(CUSBDevice*, TUSBEndpointDescriptor const*)
                0x0000000000046c38                CUSBEndpoint::CUSBEndpoint(CUSBDevice*, TUSBEndpointDescriptor const*)
                0x0000000000046d8c                CUSBEndpoint::~CUSBEndpoint()
                0x0000000000046d8c                CUSBEndpoint::~CUSBEndpoint()
                0x0000000000046dd0                CUSBEndpoint::GetDevice() const
                0x0000000000046dfc                CUSBEndpoint::GetNumber() const
                0x0000000000046e04                CUSBEndpoint::GetType() const
                0x0000000000046e0c                CUSBEndpoint::IsDirectionIn() const
                0x0000000000046e14                CUSBEndpoint::SetMaxPacketSize(unsigned int)
                0x0000000000046e4c                CUSBEndpoint::GetMaxPacketSize() const
                0x0000000000046e54                CUSBEndpoint::ResetPID()
                0x0000000000046e58                CUSBEndpoint::GetXHCIEndpoint()
 .text          0x0000000000046e84      0x784 ../../../lib/usb/libusb.a(usbfunction.o)
                0x0000000000046e84                CUSBFunction::Initialize()
                0x0000000000046e8c                CUSBFunction::ReScanDevices()
                0x0000000000046e94                CUSBFunction::~CUSBFunction()
                0x0000000000046e94                CUSBFunction::~CUSBFunction()
                0x0000000000046f00                CUSBFunction::~CUSBFunction()
                0x0000000000046f2c                CUSBFunction::RemoveDevice()
                0x0000000000046f5c                CUSBFunction::Configure()
                0x0000000000047070                CUSBFunction::CUSBFunction(CUSBDevice*, CUSBConfigurationParser*)
                0x0000000000047070                CUSBFunction::CUSBFunction(CUSBDevice*, CUSBConfigurationParser*)
                0x000000000004715c                CUSBFunction::CUSBFunction(CUSBFunction*)
                0x000000000004715c                CUSBFunction::CUSBFunction(CUSBFunction*)
                0x0000000000047270                CUSBFunction::GetInterfaceName() const
                0x00000000000472fc                CUSBFunction::GetNumEndpoints() const
                0x0000000000047330                CUSBFunction::GetDevice() const
                0x000000000004735c                CUSBFunction::GetEndpoint0() const
                0x000000000004738c                CUSBFunction::GetHost() const
                0x00000000000473bc                CUSBFunction::GetDescriptor(unsigned char)
                0x00000000000473ec                CUSBFunction::ConfigurationError(char const*) const
                0x0000000000047448                CUSBFunction::SelectInterfaceByClass(unsigned char, unsigned char, unsigned char)
                0x0000000000047538                CUSBFunction::GetInterfaceNumber() const
                0x000000000004756c                CUSBFunction::GetInterfaceClass() const
                0x00000000000475a0                CUSBFunction::GetInterfaceSubClass() const
                0x00000000000475d4                CUSBFunction::GetInterfaceProtocol() const
 .text          0x0000000000047608      0x5c8 ../../../lib/usb/libusb.a(usbgamepadps3.o)
                0x0000000000047608                CUSBGamePadPS3Device::~CUSBGamePadPS3Device()
                0x0000000000047608                CUSBGamePadPS3Device::~CUSBGamePadPS3Device()
                0x0000000000047634                CUSBGamePadPS3Device::~CUSBGamePadPS3Device()
                0x000000000004766c                CUSBGamePadPS3Device::SetRumbleMode(TGamePadRumbleMode)
                0x000000000004777c                CUSBGamePadPS3Device::SetLEDMode(TGamePadLEDMode)
                0x0000000000047820                CUSBGamePadPS3Device::CUSBGamePadPS3Device(CUSBFunction*)
                0x0000000000047820                CUSBGamePadPS3Device::CUSBGamePadPS3Device(CUSBFunction*)
                0x000000000004788c                CUSBGamePadPS3Device::PS3Enable()
                0x0000000000047950                CUSBGamePadPS3Device::Configure()
                0x0000000000047a68                CUSBGamePadPS3Device::DecodeReport(unsigned char const*)
 .text._ZN17CUSBGamePadDevice10SetLEDModeEjhh
                0x0000000000047bd0        0x8 ../../../lib/usb/libusb.a(usbgamepadps3.o)
                0x0000000000047bd0                CUSBGamePadDevice::SetLEDMode(unsigned int, unsigned char, unsigned char)
 .text._ZN20CUSBGamePadPS3Device13GetPropertiesEv
                0x0000000000047bd8        0x8 ../../../lib/usb/libusb.a(usbgamepadps3.o)
                0x0000000000047bd8                CUSBGamePadPS3Device::GetProperties()
 .text          0x0000000000047be0      0x898 ../../../lib/usb/libusb.a(usbgamepadps4.o)
                0x0000000000047be0                CUSBGamePadPS4Device::DecodeReport(unsigned char const*)
                0x0000000000047d7c                CUSBGamePadPS4Device::~CUSBGamePadPS4Device()
                0x0000000000047d7c                CUSBGamePadPS4Device::~CUSBGamePadPS4Device()
                0x0000000000047dd4                CUSBGamePadPS4Device::~CUSBGamePadPS4Device()
                0x0000000000047e00                CUSBGamePadPS4Device::CUSBGamePadPS4Device(CUSBFunction*)
                0x0000000000047e00                CUSBGamePadPS4Device::CUSBGamePadPS4Device(CUSBFunction*)
                0x0000000000047e64                CUSBGamePadPS4Device::HandleTouchpad(unsigned char const*)
                0x0000000000048020                CUSBGamePadPS4Device::ReportHandler(unsigned char const*, unsigned int)
                0x00000000000480b0                CUSBGamePadPS4Device::SendLedRumbleCommand()
                0x000000000004816c                CUSBGamePadPS4Device::SetLEDMode(TGamePadLEDMode)
                0x000000000004824c                CUSBGamePadPS4Device::SetLEDMode(unsigned int, unsigned char, unsigned char)
                0x0000000000048280                CUSBGamePadPS4Device::SetRumbleMode(TGamePadRumbleMode)
                0x00000000000482e4                CUSBGamePadPS4Device::DisableTouchpad()
                0x00000000000482f8                CUSBGamePadPS4Device::Configure()
 .text._ZN20CUSBGamePadPS4Device13GetPropertiesEv
                0x0000000000048478        0x8 ../../../lib/usb/libusb.a(usbgamepadps4.o)
                0x0000000000048478                CUSBGamePadPS4Device::GetProperties()
 .text          0x0000000000048480      0x820 ../../../lib/usb/libusb.a(usbgamepadstandard.o)
                0x0000000000048480                CUSBGamePadStandardDevice::~CUSBGamePadStandardDevice()
                0x0000000000048480                CUSBGamePadStandardDevice::~CUSBGamePadStandardDevice()
                0x00000000000484c8                CUSBGamePadStandardDevice::~CUSBGamePadStandardDevice()
                0x00000000000484f4                CUSBGamePadStandardDevice::CUSBGamePadStandardDevice(CUSBFunction*, bool)
                0x00000000000484f4                CUSBGamePadStandardDevice::CUSBGamePadStandardDevice(CUSBFunction*, bool)
                0x0000000000048540                CUSBGamePadStandardDevice::BitGetUnsigned(void const*, unsigned int, unsigned int)
                0x0000000000048668                CUSBGamePadStandardDevice::BitGetSigned(void const*, unsigned int, unsigned int)
                0x00000000000486a0                CUSBGamePadStandardDevice::DecodeReport(unsigned char const*)
                0x0000000000048adc                CUSBGamePadStandardDevice::Configure()
 .text._ZN17CUSBGamePadDevice13GetPropertiesEv
                0x0000000000048ca0        0x8 ../../../lib/usb/libusb.a(usbgamepadstandard.o)
                0x0000000000048ca0                CUSBGamePadDevice::GetProperties()
 .text._ZN17CUSBGamePadDevice10SetLEDModeE15TGamePadLEDMode
                0x0000000000048ca8        0x8 ../../../lib/usb/libusb.a(usbgamepadstandard.o)
                0x0000000000048ca8                CUSBGamePadDevice::SetLEDMode(TGamePadLEDMode)
 .text._ZN17CUSBGamePadDevice13SetRumbleModeE18TGamePadRumbleMode
                0x0000000000048cb0        0x8 ../../../lib/usb/libusb.a(usbgamepadstandard.o)
                0x0000000000048cb0                CUSBGamePadDevice::SetRumbleMode(TGamePadRumbleMode)
 .text          0x0000000000048cb8      0x830 ../../../lib/usb/libusb.a(usbgamepadswitchpro.o)
                0x0000000000048cb8                CUSBGamePadSwitchProDevice::~CUSBGamePadSwitchProDevice()
                0x0000000000048cb8                CUSBGamePadSwitchProDevice::~CUSBGamePadSwitchProDevice()
                0x0000000000048ce4                CUSBGamePadSwitchProDevice::~CUSBGamePadSwitchProDevice()
                0x0000000000048d1c                CUSBGamePadSwitchProDevice::DecodeReport(unsigned char const*)
                0x0000000000048f74                CUSBGamePadSwitchProDevice::SetLEDMode(TGamePadLEDMode)
                0x000000000004903c                CUSBGamePadSwitchProDevice::SetRumbleMode(TGamePadRumbleMode)
                0x0000000000049120                CUSBGamePadSwitchProDevice::CUSBGamePadSwitchProDevice(CUSBFunction*)
                0x0000000000049120                CUSBGamePadSwitchProDevice::CUSBGamePadSwitchProDevice(CUSBFunction*)
                0x0000000000049178                CUSBGamePadSwitchProDevice::Configure()
 .text._ZN26CUSBGamePadSwitchProDevice13GetPropertiesEv
                0x00000000000494e8        0x8 ../../../lib/usb/libusb.a(usbgamepadswitchpro.o)
                0x00000000000494e8                CUSBGamePadSwitchProDevice::GetProperties()
 .text          0x00000000000494f0      0x438 ../../../lib/usb/libusb.a(usbgamepadxbox360.o)
                0x00000000000494f0                CUSBGamePadXbox360Device::~CUSBGamePadXbox360Device()
                0x00000000000494f0                CUSBGamePadXbox360Device::~CUSBGamePadXbox360Device()
                0x000000000004951c                CUSBGamePadXbox360Device::~CUSBGamePadXbox360Device()
                0x0000000000049554                CUSBGamePadXbox360Device::ReportHandler(unsigned char const*, unsigned int)
                0x00000000000495e8                CUSBGamePadXbox360Device::DecodeReport(unsigned char const*)
                0x0000000000049728                CUSBGamePadXbox360Device::SetLEDMode(TGamePadLEDMode)
                0x000000000004977c                CUSBGamePadXbox360Device::SetRumbleMode(TGamePadRumbleMode)
                0x0000000000049820                CUSBGamePadXbox360Device::CUSBGamePadXbox360Device(CUSBFunction*)
                0x0000000000049820                CUSBGamePadXbox360Device::CUSBGamePadXbox360Device(CUSBFunction*)
                0x000000000004984c                CUSBGamePadXbox360Device::Configure()
 .text._ZN24CUSBGamePadXbox360Device13GetPropertiesEv
                0x0000000000049928        0x8 ../../../lib/usb/libusb.a(usbgamepadxbox360.o)
                0x0000000000049928                CUSBGamePadXbox360Device::GetProperties()
 .text          0x0000000000049930      0x56c ../../../lib/usb/libusb.a(usbgamepadxboxone.o)
                0x0000000000049930                CUSBGamePadXboxOneDevice::DecodeReport(unsigned char const*)
                0x0000000000049adc                CUSBGamePadXboxOneDevice::~CUSBGamePadXboxOneDevice()
                0x0000000000049adc                CUSBGamePadXboxOneDevice::~CUSBGamePadXboxOneDevice()
                0x0000000000049b08                CUSBGamePadXboxOneDevice::~CUSBGamePadXboxOneDevice()
                0x0000000000049b40                CUSBGamePadXboxOneDevice::ReportHandler(unsigned char const*, unsigned int)
                0x0000000000049c64                CUSBGamePadXboxOneDevice::SetRumbleMode(TGamePadRumbleMode)
                0x0000000000049d34                CUSBGamePadXboxOneDevice::CUSBGamePadXboxOneDevice(CUSBFunction*)
                0x0000000000049d34                CUSBGamePadXboxOneDevice::CUSBGamePadXboxOneDevice(CUSBFunction*)
                0x0000000000049d68                CUSBGamePadXboxOneDevice::Configure()
 .text._ZN24CUSBGamePadXboxOneDevice13GetPropertiesEv
                0x0000000000049e9c        0x8 ../../../lib/usb/libusb.a(usbgamepadxboxone.o)
                0x0000000000049e9c                CUSBGamePadXboxOneDevice::GetProperties()
 .text          0x0000000000049ea4      0x9ac ../../../lib/usb/libusb.a(usbhiddevice.o)
                0x0000000000049ea4                CUSBHIDDevice::SendCompletionRoutine(CUSBRequest*, void*, void*)
                0x0000000000049f4c                CUSBHIDDevice::CUSBHIDDevice(CUSBFunction*, unsigned int)
                0x0000000000049f4c                CUSBHIDDevice::CUSBHIDDevice(CUSBFunction*, unsigned int)
                0x0000000000049fc0                CUSBHIDDevice::~CUSBHIDDevice()
                0x0000000000049fc0                CUSBHIDDevice::~CUSBHIDDevice()
                0x000000000004a060                CUSBHIDDevice::~CUSBHIDDevice()
                0x000000000004a08c                CUSBHIDDevice::Configure(unsigned int)
                0x000000000004a31c                CUSBHIDDevice::SendToEndpointOut(void const*, unsigned int, unsigned int)
                0x000000000004a3c4                CUSBHIDDevice::SendToEndpointOutAsync(void const*, unsigned int, unsigned int)
                0x000000000004a4d8                CUSBHIDDevice::ReceiveFromEndpointIn(void*, unsigned int, unsigned int)
                0x000000000004a5ac                CUSBHIDDevice::StartRequest()
                0x000000000004a6c4                CUSBHIDDevice::CompletionRoutine(CUSBRequest*)
                0x000000000004a81c                CUSBHIDDevice::CompletionStub(CUSBRequest*, void*, void*)
 .text          0x000000000004a850      0x70c ../../../lib/usb/libusb.a(usbhostcontroller.o)
                0x000000000004a850                CUSBHostController::CUSBHostController(bool)
                0x000000000004a850                CUSBHostController::CUSBHostController(bool)
                0x000000000004a8a8                CUSBHostController::~CUSBHostController()
                0x000000000004a8a8                CUSBHostController::~CUSBHostController()
                0x000000000004a8e4                CUSBHostController::~CUSBHostController()
                0x000000000004a92c                CUSBHostController::ControlMessage(CUSBEndpoint*, unsigned char, unsigned char, unsigned short, unsigned short, void*, unsigned short)
                0x000000000004aa0c                CUSBHostController::GetDescriptor(CUSBEndpoint*, unsigned char, unsigned char, void*, unsigned int, unsigned char, unsigned short)
                0x000000000004aa50                CUSBHostController::SetAddress(CUSBEndpoint*, unsigned char)
                0x000000000004aaac                CUSBHostController::SetConfiguration(CUSBEndpoint*, unsigned char)
                0x000000000004ab08                CUSBHostController::Transfer(CUSBEndpoint*, void*, unsigned int, unsigned int)
                0x000000000004ab84                CUSBHostController::IsPlugAndPlay()
                0x000000000004ab94                CUSBHostController::UpdatePlugAndPlay()
                0x000000000004ad10                CUSBHostController::PortStatusChanged(CUSBHCIRootPort*)
                0x000000000004ae1c                CUSBHostController::PortStatusChanged(CUSBStandardHub*)
                0x000000000004af28                CUSBHostController::Get()
 .text          0x000000000004af5c      0x52c ../../../lib/usb/libusb.a(usbkeyboard.o)
                0x000000000004af5c                CUSBKeyboardDevice::~CUSBKeyboardDevice()
                0x000000000004af5c                CUSBKeyboardDevice::~CUSBKeyboardDevice()
                0x000000000004afd8                CUSBKeyboardDevice::~CUSBKeyboardDevice()
                0x000000000004b004                CUSBKeyboardDevice::ReportHandler(unsigned char const*, unsigned int)
                0x000000000004b1b4                CUSBKeyboardDevice::CUSBKeyboardDevice(CUSBFunction*)
                0x000000000004b1b4                CUSBKeyboardDevice::CUSBKeyboardDevice(CUSBFunction*)
                0x000000000004b218                CUSBKeyboardDevice::RegisterKeyPressedHandler(void (*)(char const*))
                0x000000000004b220                CUSBKeyboardDevice::RegisterSelectConsoleHandler(void (*)(unsigned int))
                0x000000000004b228                CUSBKeyboardDevice::RegisterShutdownHandler(void (*)())
                0x000000000004b230                CUSBKeyboardDevice::GetLEDStatus() const
                0x000000000004b264                CUSBKeyboardDevice::RegisterKeyStatusHandlerRaw(void (*)(unsigned char, unsigned char const*))
                0x000000000004b294                CUSBKeyboardDevice::SetLEDs(unsigned char)
                0x000000000004b33c                CUSBKeyboardDevice::Configure()
                0x000000000004b3e8                CUSBKeyboardDevice::UpdateLEDs()
                0x000000000004b45c                CUSBKeyboardDevice::FindByte(unsigned char const*, unsigned char, unsigned int)
 .text.startup  0x000000000004b488       0x44 ../../../lib/usb/libusb.a(usbkeyboard.o)
 .text          0x000000000004b4cc      0xec4 ../../../lib/usb/libusb.a(usbmassdevice.o)
                0x000000000004b4cc                CUSBBulkOnlyMassStorageDevice::CUSBBulkOnlyMassStorageDevice(CUSBFunction*)
                0x000000000004b4cc                CUSBBulkOnlyMassStorageDevice::CUSBBulkOnlyMassStorageDevice(CUSBFunction*)
                0x000000000004b51c                CUSBBulkOnlyMassStorageDevice::~CUSBBulkOnlyMassStorageDevice()
                0x000000000004b51c                CUSBBulkOnlyMassStorageDevice::~CUSBBulkOnlyMassStorageDevice()
                0x000000000004b608                CUSBBulkOnlyMassStorageDevice::~CUSBBulkOnlyMassStorageDevice()
                0x000000000004b634                CUSBBulkOnlyMassStorageDevice::Configure()
                0x000000000004bb08                CUSBBulkOnlyMassStorageDevice::Read(void*, unsigned int)
                0x000000000004bb90                CUSBBulkOnlyMassStorageDevice::Write(void const*, unsigned int)
                0x000000000004bc18                CUSBBulkOnlyMassStorageDevice::Seek(unsigned long long)
                0x000000000004bc30                CUSBBulkOnlyMassStorageDevice::GetCapacity() const
                0x000000000004bc38                CUSBBulkOnlyMassStorageDevice::TryRead(void*, unsigned int)
                0x000000000004bd48                CUSBBulkOnlyMassStorageDevice::TryWrite(void const*, unsigned int)
                0x000000000004be50                CUSBBulkOnlyMassStorageDevice::Command(void*, unsigned int, void*, unsigned int, bool)
                0x000000000004c1dc                CUSBBulkOnlyMassStorageDevice::Reset()
 .text.startup  0x000000000004c390        0x4 ../../../lib/usb/libusb.a(usbmassdevice.o)
 .text          0x000000000004c394      0x84c ../../../lib/usb/libusb.a(usbmidi.o)
                0x000000000004c394                CUSBMIDIDevice::~CUSBMIDIDevice()
                0x000000000004c394                CUSBMIDIDevice::~CUSBMIDIDevice()
                0x000000000004c470                CUSBMIDIDevice::~CUSBMIDIDevice()
                0x000000000004c49c                CUSBMIDIDevice::CUSBMIDIDevice(CUSBFunction*)
                0x000000000004c49c                CUSBMIDIDevice::CUSBMIDIDevice(CUSBFunction*)
                0x000000000004c4e4                CUSBMIDIDevice::RegisterPacketHandler(void (*)(unsigned int, unsigned char*, unsigned int))
                0x000000000004c540                CUSBMIDIDevice::StartRequest()
                0x000000000004c660                CUSBMIDIDevice::TimerStub(unsigned int, void*, void*)
                0x000000000004c6c8                CUSBMIDIDevice::CompletionRoutine(CUSBRequest*)
                0x000000000004c938                CUSBMIDIDevice::CompletionStub(CUSBRequest*, void*, void*)
                0x000000000004c96c                CUSBMIDIDevice::TimerHandler(unsigned int)
                0x000000000004c9a4                CUSBMIDIDevice::Configure()
 .text.startup  0x000000000004cbe0       0x44 ../../../lib/usb/libusb.a(usbmidi.o)
 .text          0x000000000004cc24      0x28c ../../../lib/usb/libusb.a(usbmouse.o)
                0x000000000004cc24                CUSBMouseDevice::~CUSBMouseDevice()
                0x000000000004cc24                CUSBMouseDevice::~CUSBMouseDevice()
                0x000000000004cc8c                CUSBMouseDevice::~CUSBMouseDevice()
                0x000000000004ccb8                CUSBMouseDevice::Configure()
                0x000000000004ce20                CUSBMouseDevice::ReportHandler(unsigned char const*, unsigned int)
                0x000000000004ce74                CUSBMouseDevice::CUSBMouseDevice(CUSBFunction*)
                0x000000000004ce74                CUSBMouseDevice::CUSBMouseDevice(CUSBFunction*)
 .text          0x000000000004ceb0      0x404 ../../../lib/usb/libusb.a(usbprinter.o)
                0x000000000004ceb0                CUSBPrinterDevice::~CUSBPrinterDevice()
                0x000000000004ceb0                CUSBPrinterDevice::~CUSBPrinterDevice()
                0x000000000004cf6c                CUSBPrinterDevice::~CUSBPrinterDevice()
                0x000000000004cf98                CUSBPrinterDevice::Write(void const*, unsigned int)
                0x000000000004d04c                CUSBPrinterDevice::CUSBPrinterDevice(CUSBFunction*)
                0x000000000004d04c                CUSBPrinterDevice::CUSBPrinterDevice(CUSBFunction*)
                0x000000000004d08c                CUSBPrinterDevice::Configure()
 .text.startup  0x000000000004d2b4       0x44 ../../../lib/usb/libusb.a(usbprinter.o)
 .text          0x000000000004d2f8      0x468 ../../../lib/usb/libusb.a(usbrequest.o)
                0x000000000004d2f8                CUSBRequest::CUSBRequest(CUSBEndpoint*, void*, unsigned int, TSetupData*)
                0x000000000004d2f8                CUSBRequest::CUSBRequest(CUSBEndpoint*, void*, unsigned int, TSetupData*)
                0x000000000004d394                CUSBRequest::~CUSBRequest()
                0x000000000004d394                CUSBRequest::~CUSBRequest()
                0x000000000004d398                CUSBRequest::GetEndpoint() const
                0x000000000004d3c4                CUSBRequest::SetStatus(int)
                0x000000000004d3cc                CUSBRequest::SetResultLen(unsigned int)
                0x000000000004d3d4                CUSBRequest::SetUSBError(TUSBError)
                0x000000000004d3dc                CUSBRequest::GetStatus() const
                0x000000000004d3e4                CUSBRequest::GetResultLength() const
                0x000000000004d418                CUSBRequest::GetUSBError() const
                0x000000000004d44c                CUSBRequest::GetSetupData()
                0x000000000004d4b0                CUSBRequest::GetBuffer()
                0x000000000004d4ec                CUSBRequest::GetBufLen() const
                0x000000000004d4f4                CUSBRequest::SetCompletionRoutine(void (*)(CUSBRequest*, void*, void*), void*, void*)
                0x000000000004d524                CUSBRequest::CallCompletionRoutine()
                0x000000000004d56c                CUSBRequest::SetCompleteOnNAK()
                0x000000000004d578                CUSBRequest::IsCompleteOnNAK() const
                0x000000000004d580                CUSBRequest::operator new(unsigned int)
                0x000000000004d5e4                CUSBRequest::operator delete(void*, unsigned int)
                0x000000000004d64c                CUSBRequest::InitAllocator(unsigned int)
                0x000000000004d6cc                CUSBRequest::InitProtectedAllocator(unsigned int, unsigned int)
 .text          0x000000000004d760     0x1298 ../../../lib/usb/libusb.a(usbstandardhub.o)
                0x000000000004d760                CUSBStandardHub::GetHubInfo() const
                0x000000000004d768                CUSBStandardHub::~CUSBStandardHub()
                0x000000000004d768                CUSBStandardHub::~CUSBStandardHub()
                0x000000000004d8b8                CUSBStandardHub::~CUSBStandardHub()
                0x000000000004d8e4                CUSBStandardHub::CUSBStandardHub(CUSBFunction*)
                0x000000000004d8e4                CUSBStandardHub::CUSBStandardHub(CUSBFunction*)
                0x000000000004d954                CUSBStandardHub::DisablePort(unsigned int)
                0x000000000004da28                CUSBStandardHub::RemoveDevice(unsigned int)
                0x000000000004da80                CUSBStandardHub::StartStatusChangeRequest()
                0x000000000004db74                CUSBStandardHub::CompletionRoutine(CUSBRequest*)
                0x000000000004dc2c                CUSBStandardHub::CompletionStub(CUSBRequest*, void*, void*)
                0x000000000004dc60                CUSBStandardHub::HandlePortStatusChange()
                0x000000000004e004                CUSBStandardHub::Initialize()
                0x000000000004e1b4                CUSBStandardHub::EnumeratePorts()
                0x000000000004e86c                CUSBStandardHub::ReScanDevices()
                0x000000000004e870                CUSBStandardHub::Configure()
 .text.startup  0x000000000004e9f8       0x44 ../../../lib/usb/libusb.a(usbstandardhub.o)
 .text          0x000000000004ea3c      0x630 ../../../lib/usb/libusb.a(xhcicommandmanager.o)
                0x000000000004ea3c                CXHCICommandManager::CXHCICommandManager(CXHCIDevice*)
                0x000000000004ea3c                CXHCICommandManager::CXHCICommandManager(CXHCIDevice*)
                0x000000000004eb24                CXHCICommandManager::~CXHCICommandManager()
                0x000000000004eb24                CXHCICommandManager::~CXHCICommandManager()
                0x000000000004eb74                CXHCICommandManager::IsValid()
                0x000000000004eb7c                CXHCICommandManager::DumpStatus()
                0x000000000004ebe4                CXHCICommandManager::DoCommand(unsigned int, unsigned int, unsigned int, unsigned int, unsigned char*)
                0x000000000004ed30                CXHCICommandManager::EnableSlot(unsigned char*)
                0x000000000004edb8                CXHCICommandManager::DisableSlot(unsigned char)
                0x000000000004ee08                CXHCICommandManager::AddressDevice(unsigned char, TXHCIInputContext*, bool)
                0x000000000004eea4                CXHCICommandManager::ConfigureEndpoint(unsigned char, TXHCIInputContext*, bool)
                0x000000000004ef40                CXHCICommandManager::EvaluateContext(unsigned char, TXHCIInputContext*)
                0x000000000004efd4                CXHCICommandManager::NoOp()
                0x000000000004effc                CXHCICommandManager::CommandCompleted(TXHCITRB*, unsigned char, unsigned char)
 .text          0x000000000004f06c      0xf10 ../../../lib/usb/libusb.a(lan7800.o)
                0x000000000004f06c                CLAN7800Device::GetMACAddress() const
                0x000000000004f074                CLAN7800Device::~CLAN7800Device()
                0x000000000004f074                CLAN7800Device::~CLAN7800Device()
                0x000000000004f10c                non-virtual thunk to CLAN7800Device::~CLAN7800Device()
                0x000000000004f114                CLAN7800Device::~CLAN7800Device()
                0x000000000004f140                non-virtual thunk to CLAN7800Device::~CLAN7800Device()
                0x000000000004f148                CLAN7800Device::ReceiveFrame(void*, unsigned int*)
                0x000000000004f2d8                non-virtual thunk to CLAN7800Device::ReceiveFrame(void*, unsigned int*)
                0x000000000004f2e0                CLAN7800Device::SendFrame(void const*, unsigned int)
                0x000000000004f3a8                non-virtual thunk to CLAN7800Device::SendFrame(void const*, unsigned int)
                0x000000000004f3b0                non-virtual thunk to CLAN7800Device::GetMACAddress() const
                0x000000000004f3b8                CLAN7800Device::CLAN7800Device(CUSBFunction*)
                0x000000000004f3b8                CLAN7800Device::CLAN7800Device(CUSBFunction*)
                0x000000000004f40c                CLAN7800Device::WriteReg(unsigned int, unsigned int)
                0x000000000004f4b0                CLAN7800Device::ReadReg(unsigned int, unsigned int*)
                0x000000000004f550                CLAN7800Device::WaitReg(unsigned int, unsigned int, unsigned int, unsigned int, unsigned int)
                0x000000000004f620                CLAN7800Device::PHYWrite(unsigned char, unsigned short)
                0x000000000004f6f0                CLAN7800Device::PHYRead(unsigned char, unsigned short*)
                0x000000000004f7f4                CLAN7800Device::IsLinkUp()
                0x000000000004f81c                non-virtual thunk to CLAN7800Device::IsLinkUp()
                0x000000000004f824                CLAN7800Device::GetLinkSpeed()
                0x000000000004f8cc                non-virtual thunk to CLAN7800Device::GetLinkSpeed()
                0x000000000004f8d4                CLAN7800Device::InitPHY()
                0x000000000004f94c                CLAN7800Device::ReadWriteReg(unsigned int, unsigned int, unsigned int)
                0x000000000004f9ac                CLAN7800Device::InitMACAddress()
                0x000000000004fafc                CLAN7800Device::Configure()
 .text._ZN10CNetDevice7GetTypeEv
                0x000000000004ff7c        0x8 ../../../lib/usb/libusb.a(lan7800.o)
                0x000000000004ff7c                CNetDevice::GetType()
 .text          0x000000000004ff84      0xc44 ../../../lib/usb/libusb.a(smsc951x.o)
                0x000000000004ff84                CSMSC951xDevice::GetMACAddress() const
                0x000000000004ff8c                CSMSC951xDevice::~CSMSC951xDevice()
                0x000000000004ff8c                CSMSC951xDevice::~CSMSC951xDevice()
                0x0000000000050024                non-virtual thunk to CSMSC951xDevice::~CSMSC951xDevice()
                0x000000000005002c                CSMSC951xDevice::~CSMSC951xDevice()
                0x0000000000050058                non-virtual thunk to CSMSC951xDevice::~CSMSC951xDevice()
                0x0000000000050060                CSMSC951xDevice::ReceiveFrame(void*, unsigned int*)
                0x00000000000501fc                non-virtual thunk to CSMSC951xDevice::ReceiveFrame(void*, unsigned int*)
                0x0000000000050204                CSMSC951xDevice::SendFrame(void const*, unsigned int)
                0x00000000000502c4                non-virtual thunk to CSMSC951xDevice::SendFrame(void const*, unsigned int)
                0x00000000000502cc                non-virtual thunk to CSMSC951xDevice::GetMACAddress() const
                0x00000000000502d4                CSMSC951xDevice::CSMSC951xDevice(CUSBFunction*)
                0x00000000000502d4                CSMSC951xDevice::CSMSC951xDevice(CUSBFunction*)
                0x0000000000050328                CSMSC951xDevice::WriteReg(unsigned int, unsigned int)
                0x000000000005039c                CSMSC951xDevice::ReadReg(unsigned int, unsigned int*)
                0x0000000000050408                CSMSC951xDevice::PHYWaitNotBusy()
                0x000000000005049c                CSMSC951xDevice::PHYWrite(unsigned char, unsigned short)
                0x0000000000050540                CSMSC951xDevice::PHYRead(unsigned char, unsigned short*)
                0x0000000000050614                CSMSC951xDevice::IsLinkUp()
                0x000000000005063c                non-virtual thunk to CSMSC951xDevice::IsLinkUp()
                0x0000000000050644                CSMSC951xDevice::GetLinkSpeed()
                0x00000000000506a0                non-virtual thunk to CSMSC951xDevice::GetLinkSpeed()
                0x00000000000506a8                CSMSC951xDevice::DumpReg(char const*, unsigned int)
                0x0000000000050734                CSMSC951xDevice::DumpRegs()
                0x00000000000508d8                CSMSC951xDevice::Configure()
 .text          0x0000000000050bc8      0x714 ../../../lib/usb/libusb.a(usbbluetooth.o)
                0x0000000000050bc8                CUSBBluetoothDevice::~CUSBBluetoothDevice()
                0x0000000000050bc8                CUSBBluetoothDevice::~CUSBBluetoothDevice()
                0x0000000000050ccc                CUSBBluetoothDevice::~CUSBBluetoothDevice()
                0x0000000000050cf8                CUSBBluetoothDevice::CUSBBluetoothDevice(CUSBFunction*)
                0x0000000000050cf8                CUSBBluetoothDevice::CUSBBluetoothDevice(CUSBFunction*)
                0x0000000000050d44                CUSBBluetoothDevice::SendHCICommand(void const*, unsigned int)
                0x0000000000050db0                CUSBBluetoothDevice::StartRequest()
                0x0000000000050eb4                CUSBBluetoothDevice::RegisterHCIEventHandler(void (*)(void const*, unsigned int))
                0x0000000000050ee4                CUSBBluetoothDevice::CompletionRoutine(CUSBRequest*)
                0x0000000000051068                CUSBBluetoothDevice::CompletionStub(CUSBRequest*, void*, void*)
                0x000000000005109c                CUSBBluetoothDevice::Configure()
 .text.startup  0x00000000000512dc       0x44 ../../../lib/usb/libusb.a(usbbluetooth.o)
 .text          0x0000000000051320      0x66c ../../../lib/usb/libusb.a(usbcdcethernet.o)
                0x0000000000051320                CUSBCDCEthernetDevice::GetMACAddress() const
                0x0000000000051328                CUSBCDCEthernetDevice::~CUSBCDCEthernetDevice()
                0x0000000000051328                CUSBCDCEthernetDevice::~CUSBCDCEthernetDevice()
                0x00000000000513c0                non-virtual thunk to CUSBCDCEthernetDevice::~CUSBCDCEthernetDevice()
                0x00000000000513c8                CUSBCDCEthernetDevice::~CUSBCDCEthernetDevice()
                0x00000000000513f4                non-virtual thunk to CUSBCDCEthernetDevice::~CUSBCDCEthernetDevice()
                0x00000000000513fc                CUSBCDCEthernetDevice::ReceiveFrame(void*, unsigned int*)
                0x00000000000514fc                non-virtual thunk to CUSBCDCEthernetDevice::ReceiveFrame(void*, unsigned int*)
                0x0000000000051504                CUSBCDCEthernetDevice::SendFrame(void const*, unsigned int)
                0x00000000000515bc                non-virtual thunk to CUSBCDCEthernetDevice::SendFrame(void const*, unsigned int)
                0x00000000000515c4                non-virtual thunk to CUSBCDCEthernetDevice::GetMACAddress() const
                0x00000000000515cc                CUSBCDCEthernetDevice::CUSBCDCEthernetDevice(CUSBFunction*)
                0x00000000000515cc                CUSBCDCEthernetDevice::CUSBCDCEthernetDevice(CUSBFunction*)
                0x0000000000051620                CUSBCDCEthernetDevice::InitMACAddress(unsigned char)
                0x0000000000051730                CUSBCDCEthernetDevice::Configure()
 .text          0x000000000005198c      0x374 ../../../lib/usb/libusb.a(usbconfigparser.o)
                0x000000000005198c                CUSBConfigurationParser::CUSBConfigurationParser(void const*, unsigned int)
                0x000000000005198c                CUSBConfigurationParser::CUSBConfigurationParser(void const*, unsigned int)
                0x0000000000051af8                CUSBConfigurationParser::CUSBConfigurationParser(CUSBConfigurationParser*)
                0x0000000000051af8                CUSBConfigurationParser::CUSBConfigurationParser(CUSBConfigurationParser*)
                0x0000000000051b64                CUSBConfigurationParser::~CUSBConfigurationParser()
                0x0000000000051b64                CUSBConfigurationParser::~CUSBConfigurationParser()
                0x0000000000051b68                CUSBConfigurationParser::IsValid() const
                0x0000000000051b70                CUSBConfigurationParser::GetDescriptor(unsigned char)
                0x0000000000051c30                CUSBConfigurationParser::GetCurrentDescriptor()
                0x0000000000051c8c                CUSBConfigurationParser::Error(char const*) const
 .text          0x0000000000051d00      0x2a8 ../../../lib/usb/libusb.a(usbgamepad.o)
                0x0000000000051d00                CUSBGamePadDevice::GetInitialState()
                0x0000000000051d08                CUSBGamePadDevice::ReportHandler(unsigned char const*, unsigned int)
                0x0000000000051d80                CUSBGamePadDevice::RegisterStatusHandler(void (*)(unsigned int, TGamePadState const*))
                0x0000000000051ddc                CUSBGamePadDevice::Configure()
                0x0000000000051eb8                CUSBGamePadDevice::CUSBGamePadDevice(CUSBFunction*)
                0x0000000000051eb8                CUSBGamePadDevice::CUSBGamePadDevice(CUSBFunction*)
                0x0000000000051f08                CUSBGamePadDevice::~CUSBGamePadDevice()
                0x0000000000051f08                CUSBGamePadDevice::~CUSBGamePadDevice()
                0x0000000000051f7c                CUSBGamePadDevice::~CUSBGamePadDevice()
 .text.startup  0x0000000000051fa8       0x44 ../../../lib/usb/libusb.a(usbgamepad.o)
 .text          0x0000000000051fec      0x5e4 ../../../lib/usb/libusb.a(usbstring.o)
                0x0000000000051fec                CUSBString::CUSBString(CUSBDevice*)
                0x0000000000051fec                CUSBString::CUSBString(CUSBDevice*)
                0x0000000000052060                CUSBString::CUSBString(CUSBString*)
                0x0000000000052060                CUSBString::CUSBString(CUSBString*)
                0x0000000000052148                CUSBString::~CUSBString()
                0x0000000000052148                CUSBString::~CUSBString()
                0x0000000000052194                CUSBString::GetFromDescriptor(unsigned char, unsigned short)
                0x0000000000052414                CUSBString::Get() const
                0x000000000005241c                CUSBString::GetLanguageID()
 .text          0x00000000000525d0      0x3d0 ../../../lib/input/libinput.a(keyboardbehaviour.o)
                0x00000000000525d0                CKeyboardBehaviour::CKeyboardBehaviour()
                0x00000000000525d0                CKeyboardBehaviour::CKeyboardBehaviour()
                0x000000000005260c                CKeyboardBehaviour::~CKeyboardBehaviour()
                0x000000000005260c                CKeyboardBehaviour::~CKeyboardBehaviour()
                0x0000000000052640                CKeyboardBehaviour::RegisterKeyPressedHandler(void (*)(char const*))
                0x0000000000052670                CKeyboardBehaviour::RegisterSelectConsoleHandler(void (*)(unsigned int))
                0x00000000000526a0                CKeyboardBehaviour::RegisterShutdownHandler(void (*)())
                0x00000000000526d0                CKeyboardBehaviour::GetLEDStatus() const
                0x00000000000526d8                CKeyboardBehaviour::GenerateKeyEvent(unsigned char)
                0x00000000000527ac                CKeyboardBehaviour::KeyPressed(unsigned char)
                0x000000000005285c                CKeyboardBehaviour::KeyReleased(unsigned char)
                0x00000000000528d8                CKeyboardBehaviour::TimerHandler(unsigned int)
                0x000000000005296c                CKeyboardBehaviour::TimerStub(unsigned int, void*, void*)
 .text          0x00000000000529a0      0x3d0 ../../../lib/input/libinput.a(keymap.o)
                0x00000000000529a0                CKeyMap::~CKeyMap()
                0x00000000000529a0                CKeyMap::~CKeyMap()
                0x00000000000529a4                CKeyMap::ClearTable(unsigned char)
                0x00000000000529dc                CKeyMap::SetEntry(unsigned char, unsigned char, unsigned short)
                0x0000000000052a30                CKeyMap::Translate(unsigned char, unsigned char)
                0x0000000000052b38                CKeyMap::GetString(unsigned short, unsigned char, char*) const
                0x0000000000052c04                CKeyMap::GetLEDStatus() const
                0x0000000000052c34                CKeyMap::LookupDefaultMap(char const*)
                0x0000000000052cd8                CKeyMap::CKeyMap()
                0x0000000000052cd8                CKeyMap::CKeyMap()
 .text          0x0000000000052d70      0x238 ../../../lib/input/libinput.a(mouse.o)
                0x0000000000052d70                CMouseDevice::~CMouseDevice()
                0x0000000000052d70                CMouseDevice::~CMouseDevice()
                0x0000000000052de0                CMouseDevice::~CMouseDevice()
                0x0000000000052e0c                CMouseDevice::CMouseDevice()
                0x0000000000052e0c                CMouseDevice::CMouseDevice()
                0x0000000000052ea8                CMouseDevice::Setup(unsigned int, unsigned int)
                0x0000000000052eb0                CMouseDevice::RegisterEventHandler(void (*)(TMouseEvent, unsigned int, unsigned int, unsigned int))
                0x0000000000052eb8                CMouseDevice::SetCursor(unsigned int, unsigned int)
                0x0000000000052ec0                CMouseDevice::ShowCursor(bool)
                0x0000000000052ec8                CMouseDevice::UpdateCursor()
                0x0000000000052ee0                CMouseDevice::RegisterStatusHandler(void (*)(unsigned int, int, int))
                0x0000000000052f3c                CMouseDevice::ReportHandler(unsigned int, int, int)
 .text.startup  0x0000000000052fa8       0x44 ../../../lib/input/libinput.a(mouse.o)
 .text          0x0000000000052fec      0x574 ../../../lib/input/libinput.a(mousebehaviour.o)
                0x0000000000052fec                CMouseBehaviour::CMouseBehaviour()
                0x0000000000052fec                CMouseBehaviour::CMouseBehaviour()
                0x0000000000053010                CMouseBehaviour::Setup(unsigned int, unsigned int)
                0x0000000000053154                CMouseBehaviour::RegisterEventHandler(void (*)(TMouseEvent, unsigned int, unsigned int, unsigned int))
                0x00000000000531b0                CMouseBehaviour::MouseStatusChanged(unsigned int, int, int)
                0x0000000000053324                CMouseBehaviour::SetCursorState(unsigned int, unsigned int, bool)
                0x00000000000533bc                CMouseBehaviour::~CMouseBehaviour()
                0x00000000000533bc                CMouseBehaviour::~CMouseBehaviour()
                0x0000000000053408                CMouseBehaviour::SetCursor(unsigned int, unsigned int)
                0x00000000000534ac                CMouseBehaviour::ShowCursor(bool)
                0x0000000000053528                CMouseBehaviour::UpdateCursor()
 .text          0x0000000000053560      0x350 ../../../lib/fs/libfs.a(partitionmanager.o)
                0x0000000000053560                CPartitionManager::CPartitionManager(CDevice*, char const*)
                0x0000000000053560                CPartitionManager::CPartitionManager(CDevice*, char const*)
                0x00000000000535a0                CPartitionManager::~CPartitionManager()
                0x00000000000535a0                CPartitionManager::~CPartitionManager()
                0x0000000000053688                CPartitionManager::Initialize()
 .text          0x00000000000538b0      0x360 ../../../lib/fs/libfs.a(partition.o)
                0x00000000000538b0                CPartition::~CPartition()
                0x00000000000538b0                CPartition::~CPartition()
                0x00000000000538e4                CPartition::~CPartition()
                0x0000000000053924                CPartition::Read(void*, unsigned int)
                0x00000000000539e0                CPartition::Write(void const*, unsigned int)
                0x0000000000053a9c                CPartition::Seek(unsigned long long)
                0x0000000000053b80                CPartition::CPartition(CDevice*, unsigned int, unsigned int)
                0x0000000000053b80                CPartition::CPartition(CDevice*, unsigned int, unsigned int)
 .text          0x0000000000053c10      0x1c4 ../../../lib/libcircle.a(actled.o)
                0x0000000000053c10                CActLED::CActLED(bool)
                0x0000000000053c10                CActLED::CActLED(bool)
                0x0000000000053ce0                CActLED::~CActLED()
                0x0000000000053ce0                CActLED::~CActLED()
                0x0000000000053cf4                CActLED::On()
                0x0000000000053d24                CActLED::Off()
                0x0000000000053d5c                CActLED::Blink(unsigned int, unsigned int, unsigned int)
                0x0000000000053dc4                CActLED::Get()
 .text          0x0000000000053dd4      0x110 ../../../lib/libcircle.a(alloc.o)
                0x0000000000053dd4                malloc
                0x0000000000053dec                free
                0x0000000000053e14                calloc
                0x0000000000053e8c                realloc
                0x0000000000053eb8                palloc
                0x0000000000053ecc                pfree
 .text          0x0000000000053ee4       0x98 ../../../lib/libcircle.a(assert.o)
                0x0000000000053ee4                assertion_failed
 .text          0x0000000000053f7c      0x1e0 ../../../lib/libcircle.a(bcmpropertytags.o)
                0x0000000000053f7c                CBcmPropertyTags::CBcmPropertyTags(bool)
                0x0000000000053f7c                CBcmPropertyTags::CBcmPropertyTags(bool)
                0x0000000000053fa4                CBcmPropertyTags::~CBcmPropertyTags()
                0x0000000000053fa4                CBcmPropertyTags::~CBcmPropertyTags()
                0x0000000000053fc4                CBcmPropertyTags::GetTag(unsigned int, void*, unsigned int, unsigned int)
                0x0000000000054050                CBcmPropertyTags::GetTags(void*, unsigned int)
 .text          0x000000000005415c      0x370 ../../../lib/libcircle.a(classallocator.o)
                0x000000000005415c                CClassAllocator::~CClassAllocator()
                0x000000000005415c                CClassAllocator::~CClassAllocator()
                0x0000000000054190                CClassAllocator::Init(unsigned int, unsigned int)
                0x000000000005425c                CClassAllocator::CClassAllocator(unsigned int, unsigned int, char const*)
                0x000000000005425c                CClassAllocator::CClassAllocator(unsigned int, unsigned int, char const*)
                0x0000000000054298                CClassAllocator::CClassAllocator(unsigned int, unsigned int, unsigned int, char const*)
                0x0000000000054298                CClassAllocator::CClassAllocator(unsigned int, unsigned int, unsigned int, char const*)
                0x00000000000542e0                CClassAllocator::Allocate()
                0x00000000000543d8                CClassAllocator::Free(void*)
 .text          0x00000000000544cc      0x1e0 ../../../lib/libcircle.a(debug.o)
                0x00000000000544cc                debug_hexdump(void const*, unsigned int, char const*)
                0x0000000000054604                debug_stacktrace(unsigned int const*, char const*)
 .text          0x00000000000546ac       0xc0 ../../../lib/libcircle.a(device.o)
                0x00000000000546ac                CDevice::~CDevice()
                0x00000000000546ac                CDevice::~CDevice()
                0x00000000000546e8                CDevice::Read(void*, unsigned int)
                0x00000000000546e8                CDevice::Write(void const*, unsigned int)
                0x00000000000546f0                CDevice::Seek(unsigned long long)
                0x00000000000546fc                CDevice::RemoveDevice()
                0x0000000000054704                CDevice::~CDevice()
                0x000000000005474c                CDevice::CDevice()
                0x000000000005474c                CDevice::CDevice()
                0x0000000000054764                CDevice::RegisterRemovedHandler(void (*)(CDevice*, void*), void*)
 .text          0x000000000005476c      0x710 ../../../lib/libcircle.a(devicenameservice.o)
                0x000000000005476c                CDeviceNameService::CDeviceNameService()
                0x000000000005476c                CDeviceNameService::CDeviceNameService()
                0x00000000000547b4                CDeviceNameService::~CDeviceNameService()
                0x00000000000547b4                CDeviceNameService::~CDeviceNameService()
                0x0000000000054820                CDeviceNameService::AddDevice(char const*, CDevice*, bool)
                0x0000000000054908                CDeviceNameService::RemoveDevice(char const*, bool)
                0x0000000000054a5c                CDeviceNameService::GetDevice(char const*, bool)
                0x0000000000054b74                CDeviceNameService::Get()
                0x0000000000054ba8                CDeviceNameService::AddDevice(char const*, unsigned int, CDevice*, bool)
                0x0000000000054c38                CDeviceNameService::RemoveDevice(char const*, unsigned int, bool)
                0x0000000000054cb8                CDeviceNameService::GetDevice(char const*, unsigned int, bool)
                0x0000000000054d40                CDeviceNameService::ListDevices(CDevice*)
 .text          0x0000000000054e7c      0xe18 ../../../lib/libcircle.a(dmachannel.o)
                0x0000000000054e7c                CDMAChannel::CDMAChannel(unsigned int, CInterruptSystem*)
                0x0000000000054e7c                CDMAChannel::CDMAChannel(unsigned int, CInterruptSystem*)
                0x0000000000054fec                CDMAChannel::~CDMAChannel()
                0x0000000000054fec                CDMAChannel::~CDMAChannel()
                0x0000000000055144                CDMAChannel::SetupMemCopy(void*, void const*, unsigned int, unsigned int, bool)
                0x0000000000055314                CDMAChannel::SetupIORead(void*, unsigned int, unsigned int, TDREQ)
                0x0000000000055488                CDMAChannel::SetupIOWrite(unsigned int, void const*, unsigned int, TDREQ)
                0x00000000000555f8                CDMAChannel::SetupMemCopy2D(void*, void const*, unsigned int, unsigned int, unsigned int, unsigned int)
                0x00000000000557e8                CDMAChannel::SetCompletionRoutine(void (*)(unsigned int, bool, void*), void*)
                0x00000000000558c8                CDMAChannel::Start()
                0x0000000000055a18                CDMAChannel::Wait()
                0x0000000000055ad8                CDMAChannel::GetStatus()
                0x0000000000055b50                CDMAChannel::InterruptHandler()
                0x0000000000055c6c                CDMAChannel::InterruptStub(void*)
 .text          0x0000000000055c94      0xddc ../../../lib/libcircle.a(gpiopin.o)
                0x0000000000055c94                CGPIOPin::CGPIOPin()
                0x0000000000055c94                CGPIOPin::CGPIOPin()
                0x0000000000055cdc                CGPIOPin::CGPIOPin(unsigned int, TGPIOMode, CGPIOManager*)
                0x0000000000055cdc                CGPIOPin::CGPIOPin(unsigned int, TGPIOMode, CGPIOManager*)
                0x0000000000055d4c                CGPIOPin::~CGPIOPin()
                0x0000000000055d4c                CGPIOPin::~CGPIOPin()
                0x0000000000055d50                CGPIOPin::~CGPIOPin()
                0x0000000000055d74                CGPIOPin::AssignPin(unsigned int)
                0x0000000000055e0c                CGPIOPin::SetMode(TGPIOMode, bool)
                0x0000000000055fe4                CGPIOPin::Write(unsigned int)
                0x0000000000056078                CGPIOPin::Read() const
                0x00000000000560f0                CGPIOPin::Invert()
                0x0000000000056124                CGPIOPin::ConnectInterrupt(void (*)(void*), void*, bool)
                0x0000000000056200                CGPIOPin::DisconnectInterrupt()
                0x00000000000562bc                CGPIOPin::EnableInterrupt(TGPIOInterrupt)
                0x00000000000563e4                CGPIOPin::DisableInterrupt()
                0x00000000000564b0                CGPIOPin::EnableInterrupt2(TGPIOInterrupt)
                0x00000000000565d8                CGPIOPin::DisableInterrupt2()
                0x00000000000566a4                CGPIOPin::AcknowledgeInterrupt()
                0x0000000000056708                CGPIOPin::WriteAll(unsigned int, unsigned int)
                0x0000000000056734                CGPIOPin::ReadAll()
                0x0000000000056744                CGPIOPin::SetPullMode(TGPIOPullMode)
                0x0000000000056824                CGPIOPin::SetAlternateFunction(unsigned int)
                0x0000000000056910                CGPIOPin::InterruptHandler()
                0x0000000000056998                CGPIOPin::DisableAllInterrupts(unsigned int)
 .text.startup  0x0000000000056a70       0x14 ../../../lib/libcircle.a(gpiopin.o)
 .text          0x0000000000056a84      0x6f8 ../../../lib/libcircle.a(koptions.o)
                0x0000000000056ae4                CKernelOptions::~CKernelOptions()
                0x0000000000056ae4                CKernelOptions::~CKernelOptions()
                0x0000000000056af8                CKernelOptions::GetWidth() const
                0x0000000000056b00                CKernelOptions::GetHeight() const
                0x0000000000056b08                CKernelOptions::GetColor() const
                0x0000000000056b10                CKernelOptions::GetBackColor() const
                0x0000000000056b18                CKernelOptions::GetNetDevice() const
                0x0000000000056b20                CKernelOptions::GetLogDevice() const
                0x0000000000056b2c                CKernelOptions::GetLogLevel() const
                0x0000000000056b34                CKernelOptions::GetKeyMap() const
                0x0000000000056b40                CKernelOptions::GetUSBPowerDelay() const
                0x0000000000056b48                CKernelOptions::GetUSBFullSpeed() const
                0x0000000000056b50                CKernelOptions::GetSoundDevice() const
                0x0000000000056b5c                CKernelOptions::GetSoundOption() const
                0x0000000000056b64                CKernelOptions::GetCPUSpeed() const
                0x0000000000056b6c                CKernelOptions::GetSoCMaxTemp() const
                0x0000000000056b74                CKernelOptions::Get()
                0x0000000000056b84                CKernelOptions::GetToken()
                0x0000000000056c08                CKernelOptions::CKernelOptions()
                0x0000000000056c08                CKernelOptions::CKernelOptions()
                0x0000000000057124                CKernelOptions::GetOptionValue(char*)
                0x000000000005715c                CKernelOptions::GetDecimal(char*)
 .text          0x000000000005717c      0x8ac ../../../lib/libcircle.a(logger.o)
                0x000000000005717c                CLogger::CLogger(unsigned int, CTimer*)
                0x000000000005717c                CLogger::CLogger(unsigned int, CTimer*)
                0x00000000000571e8                CLogger::~CLogger()
                0x00000000000571e8                CLogger::~CLogger()
                0x0000000000057278                CLogger::Initialize(CDevice*)
                0x00000000000572c8                CLogger::SetNewTarget(CDevice*)
                0x00000000000572d0                CLogger::Write(char const*, TLogSeverity, char const*, ...)
                0x0000000000057300                CLogger::WriteV(char const*, TLogSeverity, char const*, std::__va_list)
                0x00000000000574a8                CLogger::WriteNoAlloc(char const*, TLogSeverity, char const*)
                0x000000000005759c                CLogger::Get()
                0x00000000000575ac                CLogger::Write(char const*)
                0x00000000000576a0                CLogger::Read(void*, unsigned int)
                0x0000000000057778                CLogger::WriteEvent(char const*, TLogSeverity, char const*)
                0x0000000000057918                CLogger::ReadEvent(TLogSeverity*, char*, char*, long*, unsigned int*, int*)
                0x0000000000057a18                CLogger::RegisterEventNotificationHandler(void (*)())
                0x0000000000057a20                CLogger::RegisterPanicHandler(void (*)())
 .text          0x0000000000057a28      0xb9c ../../../lib/libcircle.a(machineinfo.o)
                0x0000000000057a28                CMachineInfo::CMachineInfo()
                0x0000000000057a28                CMachineInfo::CMachineInfo()
                0x0000000000057eb8                CMachineInfo::~CMachineInfo()
                0x0000000000057eb8                CMachineInfo::~CMachineInfo()
                0x0000000000057f1c                CMachineInfo::GetMachineModel() const
                0x0000000000057f24                CMachineInfo::GetMachineName() const
                0x0000000000057f3c                CMachineInfo::GetModelMajor() const
                0x0000000000057f44                CMachineInfo::GetModelRevision() const
                0x0000000000057f4c                CMachineInfo::GetSoCType() const
                0x0000000000057f54                CMachineInfo::GetRAMSize() const
                0x0000000000057f5c                CMachineInfo::GetSoCName() const
                0x0000000000057f74                CMachineInfo::GetRevisionRaw() const
                0x0000000000057f7c                CMachineInfo::GetActLEDInfo() const
                0x0000000000057f94                CMachineInfo::GetClockRate(unsigned int) const
                0x0000000000058070                CMachineInfo::GetGPIOPin(TGPIOVirtualPin) const
                0x00000000000580d8                CMachineInfo::GetGPIOClockSourceRate(unsigned int)
                0x0000000000058134                CMachineInfo::GetDevice(TDeviceId) const
                0x0000000000058168                CMachineInfo::ArePWMChannelsSwapped() const
                0x0000000000058184                CMachineInfo::AllocateDMAChannel(unsigned int)
                0x000000000005828c                CMachineInfo::FreeDMAChannel(unsigned int)
                0x000000000005831c                CMachineInfo::FetchDTB()
                0x000000000005839c                CMachineInfo::GetPCIeDMAMemory() const
                0x0000000000058594                CMachineInfo::Get()
 .text          0x00000000000585c4      0x320 ../../../lib/libcircle.a(ptrarray.o)
                0x00000000000585c4                CPtrArray::CPtrArray(unsigned int, unsigned int)
                0x00000000000585c4                CPtrArray::CPtrArray(unsigned int, unsigned int)
                0x0000000000058648                CPtrArray::~CPtrArray()
                0x0000000000058648                CPtrArray::~CPtrArray()
                0x0000000000058680                CPtrArray::GetCount() const
                0x0000000000058688                CPtrArray::operator[](unsigned int)
                0x000000000005870c                CPtrArray::operator[](unsigned int) const
                0x0000000000058790                CPtrArray::Append(void*)
                0x00000000000588ac                CPtrArray::RemoveLast()
 .text          0x00000000000588e4      0x4a8 ../../../lib/libcircle.a(ptrlist.o)
                0x00000000000588e4                CPtrList::CPtrList()
                0x00000000000588e4                CPtrList::CPtrList()
                0x00000000000588f0                CPtrList::~CPtrList()
                0x00000000000588f0                CPtrList::~CPtrList()
                0x000000000005891c                CPtrList::GetFirst()
                0x0000000000058924                CPtrList::GetNext(TPtrListElement*)
                0x0000000000058988                CPtrList::GetPtr(TPtrListElement*)
                0x00000000000589ec                CPtrList::InsertBefore(TPtrListElement*, void*)
                0x0000000000058afc                CPtrList::InsertAfter(TPtrListElement*, void*)
                0x0000000000058bfc                CPtrList::Remove(TPtrListElement*)
                0x0000000000058d30                CPtrList::Find(void*)
 .text          0x0000000000058d8c     0x16d0 ../../../lib/libcircle.a(screen.o)
                0x0000000000058d8c                CScreenDevice::CScreenDevice(unsigned int, unsigned int, unsigned int, unsigned int, bool)
                0x0000000000058d8c                CScreenDevice::CScreenDevice(unsigned int, unsigned int, unsigned int, unsigned int, bool)
                0x0000000000058e70                CScreenDevice::~CScreenDevice()
                0x0000000000058e70                CScreenDevice::~CScreenDevice()
                0x0000000000058f04                CScreenDevice::~CScreenDevice()
                0x0000000000058f30                CScreenDevice::Initialize()
                0x00000000000590d8                CScreenDevice::GetWidth() const
                0x00000000000590e0                CScreenDevice::GetHeight() const
                0x00000000000590e8                CScreenDevice::GetColWidth() const
                0x00000000000590f0                CScreenDevice::GetColumns() const
                0x0000000000059114                CScreenDevice::GetRows() const
                0x0000000000059138                CScreenDevice::GetFrameBuffer()
                0x0000000000059140                CScreenDevice::GetStatus()
                0x00000000000591b4                CScreenDevice::SetStatus(TScreenStatus const&)
                0x00000000000592dc                CScreenDevice::Write(void const*, unsigned int)
                0x00000000000593ac                CScreenDevice::Write(char)
                0x0000000000059868                CScreenDevice::CarriageReturn()
                0x0000000000059874                CScreenDevice::ClearDisplayEnd()
                0x00000000000599b0                CScreenDevice::ClearLineEnd()
                0x0000000000059a0c                CScreenDevice::CursorDown()
                0x0000000000059a7c                CScreenDevice::CursorHome()
                0x0000000000059a8c                CScreenDevice::CursorLeft()
                0x0000000000059b2c                CScreenDevice::CursorGetRow()
                0x0000000000059b54                CScreenDevice::CursorGetColumn()
                0x0000000000059b7c                CScreenDevice::CursorMove(unsigned int, unsigned int)
                0x0000000000059bf8                CScreenDevice::CursorRight()
                0x0000000000059c4c                CScreenDevice::CursorUp()
                0x0000000000059c88                CScreenDevice::DeleteChars(unsigned int)
                0x0000000000059c8c                CScreenDevice::DeleteLines(unsigned int)
                0x0000000000059c90                CScreenDevice::DisplayChar(char)
                0x0000000000059cd4                CScreenDevice::EraseChars(unsigned int)
                0x0000000000059ce4                CScreenDevice::InsertLines(unsigned int)
                0x0000000000059ce8                CScreenDevice::InsertMode(bool)
                0x0000000000059cf0                CScreenDevice::NewLine()
                0x0000000000059cfc                CScreenDevice::ReverseScroll()
                0x0000000000059d00                CScreenDevice::SetCursorMode(bool)
                0x0000000000059d08                CScreenDevice::SetScrollRegion(unsigned int, unsigned int)
                0x0000000000059da8                CScreenDevice::SetStandoutMode(unsigned int, unsigned int)
                0x0000000000059ec8                CScreenDevice::Tabulator()
                0x0000000000059f28                CScreenDevice::Scroll()
                0x000000000005a098                CScreenDevice::DisplayChar(char, unsigned int, unsigned int, unsigned int)
                0x000000000005a17c                CScreenDevice::EraseChar(unsigned int, unsigned int)
                0x000000000005a230                CScreenDevice::InvertCursor()
                0x000000000005a244                CScreenDevice::SetPixel(unsigned int, unsigned int, unsigned int)
                0x000000000005a270                CScreenDevice::GetPixel(unsigned int, unsigned int)
                0x000000000005a2a4                CScreenDevice::Rotor(unsigned int, unsigned int)
 .text          0x000000000005a45c      0xfd0 ../../../lib/libcircle.a(serial.o)
                0x000000000005a45c                CSerialDevice::CSerialDevice(CInterruptSystem*, bool, unsigned int)
                0x000000000005a45c                CSerialDevice::CSerialDevice(CInterruptSystem*, bool, unsigned int)
                0x000000000005a694                CSerialDevice::~CSerialDevice()
                0x000000000005a694                CSerialDevice::~CSerialDevice()
                0x000000000005a7e4                CSerialDevice::~CSerialDevice()
                0x000000000005a810                CSerialDevice::Initialize(unsigned int)
                0x000000000005aa4c                CSerialDevice::Write(void const*, unsigned int)
                0x000000000005ac04                CSerialDevice::Read(void*, unsigned int)
                0x000000000005ad98                CSerialDevice::GetOptions() const
                0x000000000005ada4                CSerialDevice::SetOptions(unsigned int)
                0x000000000005adb0                CSerialDevice::RegisterMagicReceivedHandler(char const*, void (*)())
                0x000000000005ae5c                CSerialDevice::AvailableForWrite()
                0x000000000005af0c                CSerialDevice::AvailableForRead()
                0x000000000005afc8                CSerialDevice::Peek()
                0x000000000005b09c                CSerialDevice::Flush()
                0x000000000005b0b4                CSerialDevice::Write(unsigned char)
                0x000000000005b1a0                CSerialDevice::InterruptHandler()
                0x000000000005b394                CSerialDevice::InterruptStub(void*)
 *fill*         0x000000000005b42c        0x4 
 .text          0x000000000005b430     0x1668 ../../../lib/libcircle.a(string.o)
                0x000000000005b430                CString::~CString()
                0x000000000005b430                CString::~CString()
                0x000000000005b468                CString::~CString()
                0x000000000005b538                CString::CString()
                0x000000000005b538                CString::CString()
                0x000000000005b550                CString::CString(char const*)
                0x000000000005b550                CString::CString(char const*)
                0x000000000005b5a4                CString::operator char const*() const
                0x000000000005b5bc                CString::operator=(char const*)
                0x000000000005b614                CString::operator=(CString const&)
                0x000000000005b684                CString::GetLength() const
                0x000000000005b698                CString::Append(char const*)
                0x000000000005b730                CString::Compare(char const*) const
                0x000000000005b738                CString::Find(char) const
                0x000000000005b774                CString::PutChar(char, unsigned int)
                0x000000000005b7c8                CString::PutString(char const*)
                0x000000000005b820                CString::Replace(char const*, char const*)
                0x000000000005b9b8                CString::ReserveSpace(unsigned int)
                0x000000000005b9c8                CString::ntoa(char*, unsigned long, unsigned int, bool)
                0x000000000005ba60                CString::lltoa(char*, unsigned long long, unsigned int, bool)
                0x000000000005bbdc                CString::ftoa(char*, double, unsigned int)
                0x000000000005be28                CString::FormatV(char const*, std::__va_list)
                0x000000000005ca6c                CString::Format(char const*, ...)
 .text          0x000000000005ca98      0x168 ../../../lib/libcircle.a(sysinit.o)
                0x000000000005ca98                __aeabi_atexit
                0x000000000005ca9c                __sync_synchronize
                0x000000000005caa4                set_qemu_exit_status
                0x000000000005cab4                halt
                0x000000000005cac8                reboot
                0x000000000005cb10                sysinit
 .text          0x000000000005cc00      0xed0 ../../../lib/libcircle.a(timer.o)
                0x000000000005cc24                CTimer::CTimer(CInterruptSystem*)
                0x000000000005cc24                CTimer::CTimer(CInterruptSystem*)
                0x000000000005ccd4                CTimer::~CTimer()
                0x000000000005ccd4                CTimer::~CTimer()
                0x000000000005cddc                CTimer::SetTimeZone(int)
                0x000000000005ce00                CTimer::GetTimeZone() const
                0x000000000005ce08                CTimer::SetTime(unsigned int, bool)
                0x000000000005cea8                CTimer::GetClockTicks()
                0x000000000005ceb4                CTimer::GetTicks() const
                0x000000000005cebc                CTimer::GetUptime() const
                0x000000000005cec4                CTimer::GetTime() const
                0x000000000005cecc                CTimer::GetLocalTime(unsigned int*, unsigned int*)
                0x000000000005cfa0                CTimer::GetUniversalTime() const
                0x000000000005cfc0                CTimer::GetUniversalTime(unsigned int*, unsigned int*)
                0x000000000005d0b0                CTimer::GetTimeString()
                0x000000000005d2b0                CTimer::StartKernelTimer(unsigned int, void (*)(unsigned int, void*, void*), void*, void*)
                0x000000000005d414                CTimer::CancelKernelTimer(unsigned int)
                0x000000000005d4e0                CTimer::PollKernelTimers()
                0x000000000005d658                CTimer::InterruptHandler()
                0x000000000005d770                CTimer::InterruptHandler(void*)
                0x000000000005d79c                CTimer::TuneMsDelay()
                0x000000000005d84c                CTimer::Initialize()
                0x000000000005d94c                CTimer::RegisterPeriodicHandler(void (*)())
                0x000000000005d9c0                CTimer::SimpleMsDelay(unsigned int)
                0x000000000005d9e0                CTimer::SimpleusDelay(unsigned int)
                0x000000000005d9f0                CTimer::IsLeapYear(unsigned int)
                0x000000000005da34                CTimer::GetDaysOfMonth(unsigned int, unsigned int)
                0x000000000005da9c                CTimer::Get()
 .text          0x000000000005dad0       0xc0 ../../../lib/libcircle.a(util.o)
                0x000000000005dad0                memset
                0x000000000005db8c                char2int
 .text          0x000000000005db90       0x5c ../../../lib/libcircle.a(util_fast.o)
                0x000000000005db90                memcpy
 .text          0x000000000005dbec      0x328 ../../../lib/libcircle.a(virtualgpiopin.o)
                0x000000000005dbec                CVirtualGPIOPin::CVirtualGPIOPin(unsigned int, bool)
                0x000000000005dbec                CVirtualGPIOPin::CVirtualGPIOPin(unsigned int, bool)
                0x000000000005dd54                CVirtualGPIOPin::~CVirtualGPIOPin()
                0x000000000005dd54                CVirtualGPIOPin::~CVirtualGPIOPin()
                0x000000000005dd58                CVirtualGPIOPin::~CVirtualGPIOPin()
                0x000000000005dd7c                CVirtualGPIOPin::Write(unsigned int)
                0x000000000005dee0                CVirtualGPIOPin::Invert()
 .text.startup  0x000000000005df14       0x14 ../../../lib/libcircle.a(virtualgpiopin.o)
 .text          0x000000000005df28       0xc4 ../../../lib/libcircle.a(chainboot.o)
                0x000000000005df6c                EnableChainBoot
                0x000000000005dfc0                IsChainBootEnabled
                0x000000000005dfd8                DoChainBoot
 .text          0x000000000005dfec      0x2d8 ../../../lib/libcircle.a(macaddress.o)
                0x000000000005dfec                CMACAddress::CMACAddress()
                0x000000000005dfec                CMACAddress::CMACAddress()
                0x000000000005dff8                CMACAddress::~CMACAddress()
                0x000000000005dff8                CMACAddress::~CMACAddress()
                0x000000000005dffc                CMACAddress::operator==(CMACAddress const&) const
                0x000000000005e070                CMACAddress::operator!=(CMACAddress const&) const
                0x000000000005e090                CMACAddress::Set(unsigned char const*)
                0x000000000005e0dc                CMACAddress::CMACAddress(unsigned char const*)
                0x000000000005e0dc                CMACAddress::CMACAddress(unsigned char const*)
                0x000000000005e0fc                CMACAddress::SetBroadcast()
                0x000000000005e12c                CMACAddress::Get() const
                0x000000000005e160                CMACAddress::CopyTo(unsigned char*) const
                0x000000000005e1cc                CMACAddress::IsBroadcast() const
                0x000000000005e22c                CMACAddress::GetSize() const
                0x000000000005e234                CMACAddress::Format(CString*) const
 .text          0x000000000005e2c4      0x124 ../../../lib/libcircle.a(netdevice.o)
                0x000000000005e2c4                CNetDevice::AddNetDevice()
                0x000000000005e2ec                CNetDevice::GetSpeedString(TNetDeviceSpeed)
                0x000000000005e310                CNetDevice::GetNetDevice(unsigned int)
                0x000000000005e330                CNetDevice::GetNetDevice(TNetDeviceType)
 .text          0x000000000005e3e8      0x148 ../../../lib/libcircle.a(new.o)
                0x000000000005e3e8                operator new(unsigned int, int)
                0x000000000005e48c                operator new[](unsigned int, int)
 .text          0x000000000005e530      0x3e4 ../../../lib/libcircle.a(heapallocator.o)
                0x000000000005e530                CHeapAllocator::CHeapAllocator(char const*)
                0x000000000005e530                CHeapAllocator::CHeapAllocator(char const*)
                0x000000000005e598                CHeapAllocator::~CHeapAllocator()
                0x000000000005e598                CHeapAllocator::~CHeapAllocator()
                0x000000000005e59c                CHeapAllocator::Setup(unsigned int, unsigned int, unsigned int)
                0x000000000005e5a8                CHeapAllocator::GetFreeSpace() const
                0x000000000005e5b8                CHeapAllocator::Allocate(unsigned int)
                0x000000000005e784                CHeapAllocator::Free(void*)
                0x000000000005e84c                CHeapAllocator::ReAllocate(void*, unsigned int)
 .text          0x000000000005e914      0x1e8 ../../../lib/libcircle.a(pageallocator.o)
                0x000000000005e914                CPageAllocator::CPageAllocator()
                0x000000000005e914                CPageAllocator::CPageAllocator()
                0x000000000005e930                CPageAllocator::~CPageAllocator()
                0x000000000005e930                CPageAllocator::~CPageAllocator()
                0x000000000005e934                CPageAllocator::Setup(unsigned int, unsigned int)
                0x000000000005e99c                CPageAllocator::GetFreeSpace() const
                0x000000000005e9ac                CPageAllocator::Allocate()
                0x000000000005ea88                CPageAllocator::Free(void*)
 .text          0x000000000005eafc       0x20 ../../../lib/libcircle.a(setjmp.o)
                0x000000000005eafc                setjmp
                0x000000000005eb08                longjmp
 .text          0x000000000005eb1c      0x1c0 ../../../lib/libcircle.a(numberpool.o)
                0x000000000005eb1c                CNumberPool::CNumberPool(unsigned int, unsigned int)
                0x000000000005eb1c                CNumberPool::CNumberPool(unsigned int, unsigned int)
                0x000000000005eb7c                CNumberPool::~CNumberPool()
                0x000000000005eb7c                CNumberPool::~CNumberPool()
                0x000000000005eb80                CNumberPool::AllocateNumber(bool, char const*)
                0x000000000005ec4c                CNumberPool::FreeNumber(unsigned int)
 .text          0x000000000005ecdc      0x1f4 ../../../lib/libcircle.a(cache-v7.o)
                0x000000000005ecdc                InvalidateDataCacheL1Only
                0x000000000005ed48                InvalidateDataCache
                0x000000000005edf0                CleanDataCache
                0x000000000005ee98                CleanAndInvalidateDataCacheRange
 .text          0x000000000005eed0      0x2a8 ../../../lib/libcircle.a(exceptionhandler.o)
                0x000000000005eed0                CExceptionHandler::CExceptionHandler()
                0x000000000005eed0                CExceptionHandler::CExceptionHandler()
                0x000000000005ef74                CExceptionHandler::~CExceptionHandler()
                0x000000000005ef74                CExceptionHandler::~CExceptionHandler()
                0x000000000005ef88                CExceptionHandler::Throw(unsigned int)
                0x000000000005efd4                CExceptionHandler::Throw(unsigned int, TAbortFrame*)
                0x000000000005f0e0                CExceptionHandler::Get()
                0x000000000005f114                ExceptionHandler
 .text          0x000000000005f178      0x17c ../../../lib/libcircle.a(exceptionstub.o)
                0x000000000005f178                UndefinedInstructionInternal
                0x000000000005f1c8                PrefetchAbortStub
                0x000000000005f218                DataAbortStub
                0x000000000005f268                UndefinedInstructionStub
                0x000000000005f284                IRQStub
                0x000000000005f29c                FIQStub
                0x000000000005f2d0                SMCStub
 .text          0x000000000005f2f4      0x3c0 ../../../lib/libcircle.a(memory.o)
                0x000000000005f2f4                CMemorySystem::CMemorySystem(bool)
                0x000000000005f2f4                CMemorySystem::CMemorySystem(bool)
                0x000000000005f4d4                CMemorySystem::~CMemorySystem()
                0x000000000005f4d4                CMemorySystem::~CMemorySystem()
                0x000000000005f538                CMemorySystem::Destructor()
                0x000000000005f568                CMemorySystem::GetMemSize() const
                0x000000000005f5a4                CMemorySystem::Get()
                0x000000000005f5d4                CMemorySystem::EnableMMU()
                0x000000000005f674                CMemorySystem::GetCoherentPage(unsigned int)
 .text          0x000000000005f6b4      0x2d8 ../../../lib/libcircle.a(pagetable.o)
                0x000000000005f6b4                CPageTable::~CPageTable()
                0x000000000005f6b4                CPageTable::~CPageTable()
                0x000000000005f6b8                CPageTable::GetBaseAddress() const
                0x000000000005f6c4                CPageTable::CreateLevel2Table(unsigned long long)
                0x000000000005f890                CPageTable::CPageTable(unsigned int)
                0x000000000005f890                CPageTable::CPageTable(unsigned int)
 .text          0x000000000005f98c        0x0 ../../../lib/libcircle.a(startup.o)
 .text          0x000000000005f98c      0x150 ../../../lib/libcircle.a(synchronize.o)
                0x000000000005f98c                CurrentExecutionLevel
                0x000000000005f9a0                EnterCritical
                0x000000000005fa58                LeaveCritical
                0x000000000005fab0                SyncDataAndInstructionCache
 .text          0x000000000005fadc     0x1cd0 ../../../lib/libcircle.a(bcm54213.o)
                0x000000000005fadc                CBcm54213Device::GetMACAddress() const
                0x000000000005fae4                CBcm54213Device::IsSendFrameAdvisable()
                0x000000000005faf8                CBcm54213Device::IsLinkUp()
                0x000000000005fb08                CBcm54213Device::GetLinkSpeed()
                0x000000000005fb70                CBcm54213Device::tx_ring16_int_enable(TGEnetTxRing*)
                0x000000000005fb84                CBcm54213Device::tx_ring_int_enable(TGEnetTxRing*)
                0x000000000005fba0                CBcm54213Device::rx_ring16_int_enable(TGEnetRxRing*)
                0x000000000005fbb4                CBcm54213Device::SendFrame(void const*, unsigned int)
                0x000000000005fd7c                CBcm54213Device::CBcm54213Device()
                0x000000000005fd7c                CBcm54213Device::CBcm54213Device()
                0x000000000005fe0c                CBcm54213Device::reset_umac()
                0x000000000005fe58                CBcm54213Device::umac_reset2()
                0x000000000005fea0                CBcm54213Device::init_umac()
                0x000000000005ff00                CBcm54213Device::umac_enable_set(unsigned int, bool)
                0x000000000005ff30                CBcm54213Device::intr_disable()
                0x000000000005ff50                CBcm54213Device::enable_tx_intr()
                0x000000000005ff9c                CBcm54213Device::enable_rx_intr()
                0x000000000005ffb0                CBcm54213Device::link_intr_enable()
                0x000000000005ffc4                CBcm54213Device::set_mdf_addr(unsigned char*, int*, int*)
                0x0000000000060054                CBcm54213Device::set_rx_mode()
                0x00000000000600f8                CBcm54213Device::hfb_init()
                0x00000000000601a0                CBcm54213Device::netif_start()
                0x0000000000060200                CBcm54213Device::dma_disable()
                0x000000000006026c                CBcm54213Device::enable_dma(unsigned int)
                0x0000000000060298                CBcm54213Device::init_tx_ring(unsigned int, unsigned int, unsigned int, unsigned int)
                0x00000000000603a8                CBcm54213Device::init_tx_queues(bool)
                0x0000000000060528                CBcm54213Device::get_txcb(TGEnetTxRing*)
                0x0000000000060554                CBcm54213Device::tx_reclaim(TGEnetTxRing*)
                0x000000000006064c                CBcm54213Device::free_tx_cb(TGEnetCB*)
                0x0000000000060668                CBcm54213Device::free_rx_buffers()
                0x00000000000606cc                CBcm54213Device::~CBcm54213Device()
                0x00000000000606cc                CBcm54213Device::~CBcm54213Device()
                0x00000000000607a4                CBcm54213Device::~CBcm54213Device()
                0x00000000000607d0                CBcm54213Device::rx_refill(TGEnetCB*)
                0x0000000000060838                CBcm54213Device::ReceiveFrame(void*, unsigned int*)
                0x0000000000060a74                CBcm54213Device::alloc_rx_buffers(TGEnetRxRing*)
                0x0000000000060af8                CBcm54213Device::init_rx_ring(unsigned int, unsigned int, unsigned int, unsigned int)
                0x0000000000060bec                CBcm54213Device::init_rx_queues()
                0x0000000000060c4c                CBcm54213Device::init_dma()
                0x0000000000060d74                CBcm54213Device::free_rx_cb(TGEnetCB*)
                0x0000000000060da8                CBcm54213Device::dmadesc_set(unsigned int, unsigned char*, unsigned int)
                0x0000000000060dbc                CBcm54213Device::dmadesc_set_addr(unsigned int, unsigned char*)
                0x0000000000060dcc                CBcm54213Device::dmadesc_set_length_status(unsigned int, unsigned int)
                0x0000000000060dd4                CBcm54213Device::udelay(unsigned int)
                0x0000000000060ddc                CBcm54213Device::InterruptHandler0()
                0x0000000000060e50                CBcm54213Device::InterruptStub0(void*)
                0x0000000000060e7c                CBcm54213Device::InterruptHandler1()
                0x0000000000060f24                CBcm54213Device::InterruptStub1(void*)
                0x0000000000060f50                CBcm54213Device::mii_setup()
                0x0000000000061028                CBcm54213Device::mii_config(bool)
                0x0000000000061050                CBcm54213Device::mdio_wait()
                0x00000000000610c4                CBcm54213Device::mdio_read(int)
                0x000000000006110c                CBcm54213Device::mdio_reset()
                0x000000000006112c                CBcm54213Device::mdio_write(int, unsigned short)
                0x0000000000061150                CBcm54213Device::phy_read_status()
                0x0000000000061324                CBcm54213Device::UpdatePHY()
                0x0000000000061364                CBcm54213Device::mii_probe()
                0x00000000000613dc                CBcm54213Device::set_hw_addr()
                0x00000000000614e4                CBcm54213Device::Initialize()
 .text          0x00000000000617ac     0x1298 ../../../lib/libcircle.a(bcmpciehostbridge.o)
                0x00000000000617ac                CBcmPCIeHostBridge::CBcmPCIeHostBridge(CInterruptSystem*)
                0x00000000000617ac                CBcmPCIeHostBridge::CBcmPCIeHostBridge(CInterruptSystem*)
                0x0000000000061804                CBcmPCIeHostBridge::~CBcmPCIeHostBridge()
                0x0000000000061804                CBcmPCIeHostBridge::~CBcmPCIeHostBridge()
                0x0000000000061830                CBcmPCIeHostBridge::Initialize()
                0x00000000000618d4                CBcmPCIeHostBridge::EnableDevice(unsigned int, unsigned int, unsigned int)
                0x00000000000618f4                CBcmPCIeHostBridge::ConnectMSI(void (*)(unsigned int, void*), void*)
                0x0000000000061914                CBcmPCIeHostBridge::DisconnectMSI()
                0x0000000000061994                CBcmPCIeHostBridge::DumpStatus(unsigned int, unsigned int)
                0x0000000000061a7c                CBcmPCIeHostBridge::pcie_probe()
                0x0000000000061b1c                CBcmPCIeHostBridge::pcie_setup()
                0x0000000000062054                CBcmPCIeHostBridge::enable_bridge()
                0x00000000000620f0                CBcmPCIeHostBridge::enable_device(unsigned int, unsigned int, unsigned int)
                0x000000000006220c                CBcmPCIeHostBridge::pcie_set_pci_ranges()
                0x0000000000062284                CBcmPCIeHostBridge::pcie_set_dma_ranges()
                0x0000000000062320                CBcmPCIeHostBridge::pcie_set_outbound_win(unsigned int, unsigned long long, unsigned long long, unsigned long long)
                0x0000000000062420                CBcmPCIeHostBridge::pcie_map_conf(unsigned int, unsigned int, int)
                0x0000000000062490                CBcmPCIeHostBridge::find_pci_capability(unsigned int, unsigned char)
                0x000000000006251c                CBcmPCIeHostBridge::pcie_bridge_sw_init_set(unsigned int)
                0x0000000000062550                CBcmPCIeHostBridge::pcie_perst_set(unsigned int)
                0x0000000000062578                CBcmPCIeHostBridge::pcie_link_up()
                0x0000000000062594                CBcmPCIeHostBridge::pcie_rc_mode()
                0x00000000000625a8                CBcmPCIeHostBridge::pcie_enable_msi(void (*)(unsigned int, void*), void*)
                0x00000000000626a4                CBcmPCIeHostBridge::msi_set_regs(TPCIeMSIData*)
                0x000000000006272c                CBcmPCIeHostBridge::cfg_index(int, int, int)
                0x000000000006274c                CBcmPCIeHostBridge::set_gen(unsigned int, int)
                0x0000000000062778                CBcmPCIeHostBridge::link_speed_to_str(int)
                0x00000000000627a4                CBcmPCIeHostBridge::encode_ibar_size(unsigned long long)
                0x0000000000062834                CBcmPCIeHostBridge::rd_fld(unsigned int, unsigned int, int)
                0x0000000000062844                CBcmPCIeHostBridge::wr_fld(unsigned int, unsigned int, int, unsigned int)
                0x000000000006285c                CBcmPCIeHostBridge::wr_fld_rb(unsigned int, unsigned int, int, unsigned int)
                0x0000000000062878                CBcmPCIeHostBridge::InterruptHandler(void*)
                0x000000000006295c                CBcmPCIeHostBridge::usleep_range(unsigned int, unsigned int)
                0x000000000006297c                CBcmPCIeHostBridge::msleep(unsigned int)
                0x00000000000629b0                CBcmPCIeHostBridge::ilog2(unsigned long long)
 .text          0x0000000000062a44      0x124 ../../../lib/libcircle.a(bcmrandom200.o)
                0x0000000000062a44                CBcmRandomNumberGenerator::CBcmRandomNumberGenerator()
                0x0000000000062a44                CBcmRandomNumberGenerator::CBcmRandomNumberGenerator()
                0x0000000000062af8                CBcmRandomNumberGenerator::~CBcmRandomNumberGenerator()
                0x0000000000062af8                CBcmRandomNumberGenerator::~CBcmRandomNumberGenerator()
                0x0000000000062afc                CBcmRandomNumberGenerator::GetNumber()
 .text.startup  0x0000000000062b68       0x14 ../../../lib/libcircle.a(bcmrandom200.o)
 .text          0x0000000000062b7c      0x7e0 ../../../lib/libcircle.a(interruptgic.o)
                0x0000000000062b7c                CInterruptSystem::CInterruptSystem()
                0x0000000000062b7c                CInterruptSystem::CInterruptSystem()
                0x0000000000062ba8                CInterruptSystem::~CInterruptSystem()
                0x0000000000062ba8                CInterruptSystem::~CInterruptSystem()
                0x0000000000062bcc                CInterruptSystem::Initialize()
                0x0000000000062cf0                CInterruptSystem::ConnectIRQ(unsigned int, void (*)(void*), void*)
                0x0000000000062d74                CInterruptSystem::DisconnectIRQ(unsigned int)
                0x0000000000062dfc                CInterruptSystem::DisconnectFIQ()
                0x0000000000062e88                CInterruptSystem::EnableIRQ(unsigned int)
                0x0000000000062ed4                CInterruptSystem::DisableIRQ(unsigned int)
                0x0000000000062f20                CInterruptSystem::EnableFIQ(unsigned int)
                0x0000000000062f94                CInterruptSystem::ConnectFIQ(unsigned int, void (*)(void*), void*)
                0x0000000000063024                CInterruptSystem::DisableFIQ()
                0x0000000000063060                CInterruptSystem::Get()
                0x0000000000063094                CInterruptSystem::CallIRQHandler(unsigned int)
                0x0000000000063114                CInterruptSystem::InterruptHandler()
                0x00000000000631a4                InterruptHandler
                0x00000000000631a8                CInterruptSystem::InitializeSecondary()
                0x00000000000631c4                CInterruptSystem::SendIPI(unsigned int, unsigned int)
                0x0000000000063230                CInterruptSystem::CallSecureMonitor(unsigned int, unsigned int)
                0x0000000000063248                CInterruptSystem::SecureMonitorHandler(unsigned int, unsigned int)
                0x0000000000063358                SecureMonitorHandler
 .text          0x000000000006335c      0xc00 ../../../lib/libcircle.a(dma4channel.o)
                0x000000000006335c                CDMA4Channel::CDMA4Channel(unsigned int, CInterruptSystem*)
                0x000000000006335c                CDMA4Channel::CDMA4Channel(unsigned int, CInterruptSystem*)
                0x0000000000063464                CDMA4Channel::~CDMA4Channel()
                0x0000000000063464                CDMA4Channel::~CDMA4Channel()
                0x000000000006355c                CDMA4Channel::SetupMemCopy(void*, void const*, unsigned int, unsigned int, bool)
                0x00000000000636c0                CDMA4Channel::SetupIORead(void*, unsigned int, unsigned int, TDREQ)
                0x00000000000637e0                CDMA4Channel::SetupIOWrite(unsigned int, void const*, unsigned int, TDREQ)
                0x0000000000063900                CDMA4Channel::SetupMemCopy2D(void*, void const*, unsigned int, unsigned int, unsigned int, unsigned int)
                0x0000000000063a98                CDMA4Channel::SetCompletionRoutine(void (*)(unsigned int, bool, void*), void*)
                0x0000000000063b6c                CDMA4Channel::Start()
                0x0000000000063cbc                CDMA4Channel::Wait()
                0x0000000000063d7c                CDMA4Channel::GetStatus()
                0x0000000000063dfc                CDMA4Channel::InterruptHandler()
                0x0000000000063f34                CDMA4Channel::InterruptStub(void*)
 .text          0x0000000000063f5c      0x618 ../../../lib/libcircle.a(devicetreeblob.o)
                0x0000000000063f5c                CDeviceTreeBlob::CDeviceTreeBlob(void const*)
                0x0000000000063f5c                CDeviceTreeBlob::CDeviceTreeBlob(void const*)
                0x0000000000063fe8                CDeviceTreeBlob::~CDeviceTreeBlob()
                0x0000000000063fe8                CDeviceTreeBlob::~CDeviceTreeBlob()
                0x0000000000064014                CDeviceTreeBlob::FindNodeInternal(char const*, TDeviceTreeNode const*, TDeviceTreeNode const**) const
                0x00000000000642e8                CDeviceTreeBlob::FindNode(char const*, TDeviceTreeNode const*) const
                0x00000000000642f0                CDeviceTreeBlob::FindProperty(TDeviceTreeNode const*, char const*) const
                0x0000000000064458                CDeviceTreeBlob::GetPropertyValueLength(TDeviceTreeProperty const*) const
                0x0000000000064494                CDeviceTreeBlob::GetPropertyValue(TDeviceTreeProperty const*) const
                0x00000000000644cc                CDeviceTreeBlob::GetPropertyValueWord(TDeviceTreeProperty const*, unsigned int) const
 .text          0x0000000000064574      0x518 ../../../lib/libcircle.a(bcmframebuffer.o)
                0x0000000000064574                CBcmFrameBuffer::CBcmFrameBuffer(unsigned int, unsigned int, unsigned int, unsigned int, unsigned int)
                0x0000000000064574                CBcmFrameBuffer::CBcmFrameBuffer(unsigned int, unsigned int, unsigned int, unsigned int, unsigned int)
                0x00000000000646cc                CBcmFrameBuffer::~CBcmFrameBuffer()
                0x00000000000646cc                CBcmFrameBuffer::~CBcmFrameBuffer()
                0x00000000000646fc                CBcmFrameBuffer::SetPalette(unsigned char, unsigned short)
                0x0000000000064738                CBcmFrameBuffer::SetPalette32(unsigned char, unsigned int)
                0x0000000000064754                CBcmFrameBuffer::GetWidth() const
                0x000000000006475c                CBcmFrameBuffer::GetHeight() const
                0x0000000000064764                CBcmFrameBuffer::GetVirtWidth() const
                0x000000000006476c                CBcmFrameBuffer::GetVirtHeight() const
                0x0000000000064774                CBcmFrameBuffer::GetPitch() const
                0x000000000006477c                CBcmFrameBuffer::GetDepth() const
                0x0000000000064784                CBcmFrameBuffer::GetBuffer() const
                0x000000000006478c                CBcmFrameBuffer::GetSize() const
                0x0000000000064794                CBcmFrameBuffer::UpdatePalette()
                0x0000000000064850                CBcmFrameBuffer::Initialize()
                0x0000000000064918                CBcmFrameBuffer::SetVirtualOffset(unsigned int, unsigned int)
                0x00000000000649bc                CBcmFrameBuffer::WaitForVerticalSync()
                0x0000000000064a20                CBcmFrameBuffer::SetBacklightBrightness(unsigned int)
 .text          0x0000000000064a8c      0x1e8 ../../../lib/libcircle.a(bcmmailbox.o)
                0x0000000000064a8c                CBcmMailBox::CBcmMailBox(unsigned int, bool)
                0x0000000000064a8c                CBcmMailBox::CBcmMailBox(unsigned int, bool)
                0x0000000000064a98                CBcmMailBox::~CBcmMailBox()
                0x0000000000064a98                CBcmMailBox::~CBcmMailBox()
                0x0000000000064a9c                CBcmMailBox::WriteRead(unsigned int)
                0x0000000000064bb8                CBcmMailBox::Flush()
                0x0000000000064bf8                CBcmMailBox::Read()
                0x0000000000064c28                CBcmMailBox::Write(unsigned int)
 .text.startup  0x0000000000064c74       0x14 ../../../lib/libcircle.a(bcmmailbox.o)
 .text          0x0000000000064c88       0x98 ../../../lib/libcircle.a(chargenerator.o)
                0x0000000000064c88                CCharGenerator::CCharGenerator()
                0x0000000000064c88                CCharGenerator::CCharGenerator()
                0x0000000000064c94                CCharGenerator::~CCharGenerator()
                0x0000000000064c94                CCharGenerator::~CCharGenerator()
                0x0000000000064c98                CCharGenerator::GetCharWidth() const
                0x0000000000064ca0                CCharGenerator::GetCharHeight() const
                0x0000000000064ca8                CCharGenerator::GetUnderline() const
                0x0000000000064cb0                CCharGenerator::GetPixel(char, unsigned int, unsigned int) const
 .text          0x0000000000064d20       0x14 ../../../lib/libcircle.a(delayloop.o)
                0x0000000000064d20                DelayLoop
 .text          0x0000000000064d34      0x39c ../../../lib/libcircle.a(gpiomanager.o)
                0x0000000000064d34                CGPIOManager::CGPIOManager(CInterruptSystem*)
                0x0000000000064d34                CGPIOManager::CGPIOManager(CInterruptSystem*)
                0x0000000000064d60                CGPIOManager::~CGPIOManager()
                0x0000000000064d60                CGPIOManager::~CGPIOManager()
                0x0000000000064dec                CGPIOManager::Initialize()
                0x0000000000064e68                CGPIOManager::ConnectInterrupt(CGPIOPin*)
                0x0000000000064f10                CGPIOManager::DisconnectInterrupt(CGPIOPin*)
                0x0000000000064fbc                CGPIOManager::InterruptHandler()
                0x00000000000650a4                CGPIOManager::InterruptStub(void*)
 .text          0x00000000000650d0        0x0 /home/olf/projects/circle/gcc-arm-9.2-2019.12-x86_64-arm-none-eabi/bin/../lib/gcc/arm-none-eabi/9.2.1/../../../../arm-none-eabi/lib/thumb/v8-a+simd/hard/libstdc++.a(class_type_info.o)
 .text._ZNK10__cxxabiv117__class_type_info11__do_upcastEPKS0_PPv
                0x00000000000650d0       0x38 /home/olf/projects/circle/gcc-arm-9.2-2019.12-x86_64-arm-none-eabi/bin/../lib/gcc/arm-none-eabi/9.2.1/../../../../arm-none-eabi/lib/thumb/v8-a+simd/hard/libstdc++.a(class_type_info.o)
                0x00000000000650d0                __cxxabiv1::__class_type_info::__do_upcast(__cxxabiv1::__class_type_info const*, void**) const
 .text._ZNK10__cxxabiv117__class_type_info20__do_find_public_srcEiPKvPKS0_S2_
                0x0000000000065108       0x10 /home/olf/projects/circle/gcc-arm-9.2-2019.12-x86_64-arm-none-eabi/bin/../lib/gcc/arm-none-eabi/9.2.1/../../../../arm-none-eabi/lib/thumb/v8-a+simd/hard/libstdc++.a(class_type_info.o)
                0x0000000000065108                __cxxabiv1::__class_type_info::__do_find_public_src(int, void const*, __cxxabiv1::__class_type_info const*, void const*) const
 .text._ZN10__cxxabiv117__class_type_infoD2Ev
                0x0000000000065118       0x14 /home/olf/projects/circle/gcc-arm-9.2-2019.12-x86_64-arm-none-eabi/bin/../lib/gcc/arm-none-eabi/9.2.1/../../../../arm-none-eabi/lib/thumb/v8-a+simd/hard/libstdc++.a(class_type_info.o)
                0x0000000000065118                __cxxabiv1::__class_type_info::~__class_type_info()
                0x0000000000065118                __cxxabiv1::__class_type_info::~__class_type_info()
 .text._ZN10__cxxabiv117__class_type_infoD0Ev
                0x000000000006512c       0x1c /home/olf/projects/circle/gcc-arm-9.2-2019.12-x86_64-arm-none-eabi/bin/../lib/gcc/arm-none-eabi/9.2.1/../../../../arm-none-eabi/lib/thumb/v8-a+simd/hard/libstdc++.a(class_type_info.o)
                0x000000000006512c                __cxxabiv1::__class_type_info::~__class_type_info()
 .text._ZNK10__cxxabiv117__class_type_info12__do_dyncastEiNS0_10__sub_kindEPKS0_PKvS3_S5_RNS0_16__dyncast_resultE
                0x0000000000065148       0x44 /home/olf/projects/circle/gcc-arm-9.2-2019.12-x86_64-arm-none-eabi/bin/../lib/gcc/arm-none-eabi/9.2.1/../../../../arm-none-eabi/lib/thumb/v8-a+simd/hard/libstdc++.a(class_type_info.o)
                0x0000000000065148                __cxxabiv1::__class_type_info::__do_dyncast(int, __cxxabiv1::__class_type_info::__sub_kind, __cxxabiv1::__class_type_info const*, void const*, __cxxabiv1::__class_type_info const*, void const*, __cxxabiv1::__class_type_info::__dyncast_result&) const
 .text._ZNK10__cxxabiv117__class_type_info11__do_upcastEPKS0_PKvRNS0_15__upcast_resultE
                0x000000000006518c       0x1c /home/olf/projects/circle/gcc-arm-9.2-2019.12-x86_64-arm-none-eabi/bin/../lib/gcc/arm-none-eabi/9.2.1/../../../../arm-none-eabi/lib/thumb/v8-a+simd/hard/libstdc++.a(class_type_info.o)
                0x000000000006518c                __cxxabiv1::__class_type_info::__do_upcast(__cxxabiv1::__class_type_info const*, void const*, __cxxabiv1::__class_type_info::__upcast_result&) const
 .text._ZNK10__cxxabiv117__class_type_info10__do_catchEPKSt9type_infoPPvj
                0x00000000000651a8       0x2c /home/olf/projects/circle/gcc-arm-9.2-2019.12-x86_64-arm-none-eabi/bin/../lib/gcc/arm-none-eabi/9.2.1/../../../../arm-none-eabi/lib/thumb/v8-a+simd/hard/libstdc++.a(class_type_info.o)
                0x00000000000651a8                __cxxabiv1::__class_type_info::__do_catch(std::type_info const*, void**, unsigned int) const
 .text          0x00000000000651d4        0x0 /home/olf/projects/circle/gcc-arm-9.2-2019.12-x86_64-arm-none-eabi/bin/../lib/gcc/arm-none-eabi/9.2.1/../../../../arm-none-eabi/lib/thumb/v8-a+simd/hard/libstdc++.a(del_ops.o)
 .text._ZdlPvj  0x00000000000651d4        0x4 /home/olf/projects/circle/gcc-arm-9.2-2019.12-x86_64-arm-none-eabi/bin/../lib/gcc/arm-none-eabi/9.2.1/../../../../arm-none-eabi/lib/thumb/v8-a+simd/hard/libstdc++.a(del_ops.o)
                0x00000000000651d4                operator delete(void*, unsigned int)
 .text          0x00000000000651d8        0x0 /home/olf/projects/circle/gcc-arm-9.2-2019.12-x86_64-arm-none-eabi/bin/../lib/gcc/arm-none-eabi/9.2.1/../../../../arm-none-eabi/lib/thumb/v8-a+simd/hard/libstdc++.a(del_opv.o)
 .text._ZdaPv   0x00000000000651d8        0x4 /home/olf/projects/circle/gcc-arm-9.2-2019.12-x86_64-arm-none-eabi/bin/../lib/gcc/arm-none-eabi/9.2.1/../../../../arm-none-eabi/lib/thumb/v8-a+simd/hard/libstdc++.a(del_opv.o)
                0x00000000000651d8                operator delete[](void*)
 .text          0x00000000000651dc        0x0 /home/olf/projects/circle/gcc-arm-9.2-2019.12-x86_64-arm-none-eabi/bin/../lib/gcc/arm-none-eabi/9.2.1/../../../../arm-none-eabi/lib/thumb/v8-a+simd/hard/libstdc++.a(eh_arm.o)
 .text.__cxa_end_cleanup
                0x00000000000651dc        0xc /home/olf/projects/circle/gcc-arm-9.2-2019.12-x86_64-arm-none-eabi/bin/../lib/gcc/arm-none-eabi/9.2.1/../../../../arm-none-eabi/lib/thumb/v8-a+simd/hard/libstdc++.a(eh_arm.o)
                0x00000000000651dc                __cxa_end_cleanup
 .text.__cxa_type_match
                0x00000000000651e8       0xc0 /home/olf/projects/circle/gcc-arm-9.2-2019.12-x86_64-arm-none-eabi/bin/../lib/gcc/arm-none-eabi/9.2.1/../../../../arm-none-eabi/lib/thumb/v8-a+simd/hard/libstdc++.a(eh_arm.o)
                0x00000000000651e8                __cxa_type_match
 .text.__cxa_begin_cleanup
                0x00000000000652a8       0x64 /home/olf/projects/circle/gcc-arm-9.2-2019.12-x86_64-arm-none-eabi/bin/../lib/gcc/arm-none-eabi/9.2.1/../../../../arm-none-eabi/lib/thumb/v8-a+simd/hard/libstdc++.a(eh_arm.o)
                0x00000000000652a8                __cxa_begin_cleanup
 .text.__gnu_end_cleanup
                0x000000000006530c       0x70 /home/olf/projects/circle/gcc-arm-9.2-2019.12-x86_64-arm-none-eabi/bin/../lib/gcc/arm-none-eabi/9.2.1/../../../../arm-none-eabi/lib/thumb/v8-a+simd/hard/libstdc++.a(eh_arm.o)
                0x000000000006530c                __gnu_end_cleanup
 .text          0x000000000006537c        0x0 /home/olf/projects/circle/gcc-arm-9.2-2019.12-x86_64-arm-none-eabi/bin/../lib/gcc/arm-none-eabi/9.2.1/../../../../arm-none-eabi/lib/thumb/v8-a+simd/hard/libstdc++.a(eh_aux_runtime.o)
 .text.unlikely.__cxa_bad_cast
                0x000000000006537c       0x24 /home/olf/projects/circle/gcc-arm-9.2-2019.12-x86_64-arm-none-eabi/bin/../lib/gcc/arm-none-eabi/9.2.1/../../../../arm-none-eabi/lib/thumb/v8-a+simd/hard/libstdc++.a(eh_aux_runtime.o)
                0x000000000006537c                __cxa_bad_cast
 .text.unlikely.__cxa_bad_typeid
                0x00000000000653a0       0x24 /home/olf/projects/circle/gcc-arm-9.2-2019.12-x86_64-arm-none-eabi/bin/../lib/gcc/arm-none-eabi/9.2.1/../../../../arm-none-eabi/lib/thumb/v8-a+simd/hard/libstdc++.a(eh_aux_runtime.o)
                0x00000000000653a0                __cxa_bad_typeid
 .text.unlikely.__cxa_throw_bad_array_new_length
                0x00000000000653c4       0x24 /home/olf/projects/circle/gcc-arm-9.2-2019.12-x86_64-arm-none-eabi/bin/../lib/gcc/arm-none-eabi/9.2.1/../../../../arm-none-eabi/lib/thumb/v8-a+simd/hard/libstdc++.a(eh_aux_runtime.o)
                0x00000000000653c4                __cxa_throw_bad_array_new_length
 .text          0x00000000000653e8        0x0 /home/olf/projects/circle/gcc-arm-9.2-2019.12-x86_64-arm-none-eabi/bin/../lib/gcc/arm-none-eabi/9.2.1/../../../../arm-none-eabi/lib/thumb/v8-a+simd/hard/libstdc++.a(eh_exception.o)
 .text._ZNSt9exceptionD2Ev
                0x00000000000653e8        0x4 /home/olf/projects/circle/gcc-arm-9.2-2019.12-x86_64-arm-none-eabi/bin/../lib/gcc/arm-none-eabi/9.2.1/../../../../arm-none-eabi/lib/thumb/v8-a+simd/hard/libstdc++.a(eh_exception.o)
                0x00000000000653e8                std::exception::~exception()
                0x00000000000653e8                std::exception::~exception()
 .text._ZNSt13bad_exceptionD2Ev
                0x00000000000653ec        0x4 /home/olf/projects/circle/gcc-arm-9.2-2019.12-x86_64-arm-none-eabi/bin/../lib/gcc/arm-none-eabi/9.2.1/../../../../arm-none-eabi/lib/thumb/v8-a+simd/hard/libstdc++.a(eh_exception.o)
                0x00000000000653ec                std::bad_exception::~bad_exception()
                0x00000000000653ec                std::bad_exception::~bad_exception()
 .text._ZNKSt9exception4whatEv
                0x00000000000653f0        0xc /home/olf/projects/circle/gcc-arm-9.2-2019.12-x86_64-arm-none-eabi/bin/../lib/gcc/arm-none-eabi/9.2.1/../../../../arm-none-eabi/lib/thumb/v8-a+simd/hard/libstdc++.a(eh_exception.o)
                0x00000000000653f0                transaction clone for std::exception::what() const
                0x00000000000653f0                std::exception::what() const
 .text._ZNKSt13bad_exception4whatEv
                0x00000000000653fc        0xc /home/olf/projects/circle/gcc-arm-9.2-2019.12-x86_64-arm-none-eabi/bin/../lib/gcc/arm-none-eabi/9.2.1/../../../../arm-none-eabi/lib/thumb/v8-a+simd/hard/libstdc++.a(eh_exception.o)
                0x00000000000653fc                transaction clone for std::bad_exception::what() const
                0x00000000000653fc                std::bad_exception::what() const
 .text._ZNSt9exceptionD0Ev
                0x0000000000065408       0x10 /home/olf/projects/circle/gcc-arm-9.2-2019.12-x86_64-arm-none-eabi/bin/../lib/gcc/arm-none-eabi/9.2.1/../../../../arm-none-eabi/lib/thumb/v8-a+simd/hard/libstdc++.a(eh_exception.o)
                0x0000000000065408                std::exception::~exception()
 .text._ZNSt13bad_exceptionD0Ev
                0x0000000000065418       0x10 /home/olf/projects/circle/gcc-arm-9.2-2019.12-x86_64-arm-none-eabi/bin/../lib/gcc/arm-none-eabi/9.2.1/../../../../arm-none-eabi/lib/thumb/v8-a+simd/hard/libstdc++.a(eh_exception.o)
                0x0000000000065418                std::bad_exception::~bad_exception()
 .text._ZN10__cxxabiv115__forced_unwindD2Ev
                0x0000000000065428        0x4 /home/olf/projects/circle/gcc-arm-9.2-2019.12-x86_64-arm-none-eabi/bin/../lib/gcc/arm-none-eabi/9.2.1/../../../../arm-none-eabi/lib/thumb/v8-a+simd/hard/libstdc++.a(eh_exception.o)
                0x0000000000065428                __cxxabiv1::__forced_unwind::~__forced_unwind()
                0x0000000000065428                __cxxabiv1::__forced_unwind::~__forced_unwind()
 .text._ZN10__cxxabiv115__forced_unwindD0Ev
                0x000000000006542c       0x10 /home/olf/projects/circle/gcc-arm-9.2-2019.12-x86_64-arm-none-eabi/bin/../lib/gcc/arm-none-eabi/9.2.1/../../../../arm-none-eabi/lib/thumb/v8-a+simd/hard/libstdc++.a(eh_exception.o)
                0x000000000006542c                __cxxabiv1::__forced_unwind::~__forced_unwind()
 .text._ZN10__cxxabiv119__foreign_exceptionD2Ev
                0x000000000006543c        0x4 /home/olf/projects/circle/gcc-arm-9.2-2019.12-x86_64-arm-none-eabi/bin/../lib/gcc/arm-none-eabi/9.2.1/../../../../arm-none-eabi/lib/thumb/v8-a+simd/hard/libstdc++.a(eh_exception.o)
                0x000000000006543c                __cxxabiv1::__foreign_exception::~__foreign_exception()
                0x000000000006543c                __cxxabiv1::__foreign_exception::~__foreign_exception()
 .text._ZN10__cxxabiv119__foreign_exceptionD0Ev
                0x0000000000065440       0x10 /home/olf/projects/circle/gcc-arm-9.2-2019.12-x86_64-arm-none-eabi/bin/../lib/gcc/arm-none-eabi/9.2.1/../../../../arm-none-eabi/lib/thumb/v8-a+simd/hard/libstdc++.a(eh_exception.o)
                0x0000000000065440                __cxxabiv1::__foreign_exception::~__foreign_exception()
 .text._ZGTtNKSt9exceptionD1Ev
                0x0000000000065450        0x4 /home/olf/projects/circle/gcc-arm-9.2-2019.12-x86_64-arm-none-eabi/bin/../lib/gcc/arm-none-eabi/9.2.1/../../../../arm-none-eabi/lib/thumb/v8-a+simd/hard/libstdc++.a(eh_exception.o)
                0x0000000000065450                transaction clone for std::exception::~exception() const
 .text._ZGTtNKSt13bad_exceptionD1Ev
                0x0000000000065454        0x4 /home/olf/projects/circle/gcc-arm-9.2-2019.12-x86_64-arm-none-eabi/bin/../lib/gcc/arm-none-eabi/9.2.1/../../../../arm-none-eabi/lib/thumb/v8-a+simd/hard/libstdc++.a(eh_exception.o)
                0x0000000000065454                transaction clone for std::bad_exception::~bad_exception() const
 .text          0x0000000000065458        0x0 /home/olf/projects/circle/gcc-arm-9.2-2019.12-x86_64-arm-none-eabi/bin/../lib/gcc/arm-none-eabi/9.2.1/../../../../arm-none-eabi/lib/thumb/v8-a+simd/hard/libstdc++.a(eh_globals.o)
 .text.__cxa_get_globals_fast
                0x0000000000065458        0xc /home/olf/projects/circle/gcc-arm-9.2-2019.12-x86_64-arm-none-eabi/bin/../lib/gcc/arm-none-eabi/9.2.1/../../../../arm-none-eabi/lib/thumb/v8-a+simd/hard/libstdc++.a(eh_globals.o)
                0x0000000000065458                __cxa_get_globals_fast
 .text.__cxa_get_globals
                0x0000000000065464        0xc /home/olf/projects/circle/gcc-arm-9.2-2019.12-x86_64-arm-none-eabi/bin/../lib/gcc/arm-none-eabi/9.2.1/../../../../arm-none-eabi/lib/thumb/v8-a+simd/hard/libstdc++.a(eh_globals.o)
                0x0000000000065464                __cxa_get_globals
 .text          0x0000000000065470        0x0 /home/olf/projects/circle/gcc-arm-9.2-2019.12-x86_64-arm-none-eabi/bin/../lib/gcc/arm-none-eabi/9.2.1/../../../../arm-none-eabi/lib/thumb/v8-a+simd/hard/libstdc++.a(eh_personality.o)
 .text._ZL28read_encoded_value_with_basehjPKhPj
                0x0000000000065470       0xd0 /home/olf/projects/circle/gcc-arm-9.2-2019.12-x86_64-arm-none-eabi/bin/../lib/gcc/arm-none-eabi/9.2.1/../../../../arm-none-eabi/lib/thumb/v8-a+simd/hard/libstdc++.a(eh_personality.o)
 .text._ZL21base_of_encoded_valuehP15_Unwind_Context
                0x0000000000065540       0x48 /home/olf/projects/circle/gcc-arm-9.2-2019.12-x86_64-arm-none-eabi/bin/../lib/gcc/arm-none-eabi/9.2.1/../../../../arm-none-eabi/lib/thumb/v8-a+simd/hard/libstdc++.a(eh_personality.o)
 .text._ZL17parse_lsda_headerP15_Unwind_ContextPKhP16lsda_header_info
                0x0000000000065588       0x94 /home/olf/projects/circle/gcc-arm-9.2-2019.12-x86_64-arm-none-eabi/bin/../lib/gcc/arm-none-eabi/9.2.1/../../../../arm-none-eabi/lib/thumb/v8-a+simd/hard/libstdc++.a(eh_personality.o)
 .text.__gxx_personality_v0
                0x000000000006561c      0x4c4 /home/olf/projects/circle/gcc-arm-9.2-2019.12-x86_64-arm-none-eabi/bin/../lib/gcc/arm-none-eabi/9.2.1/../../../../arm-none-eabi/lib/thumb/v8-a+simd/hard/libstdc++.a(eh_personality.o)
                0x000000000006561c                __gxx_personality_v0
 .text          0x0000000000065ae0        0x0 /home/olf/projects/circle/gcc-arm-9.2-2019.12-x86_64-arm-none-eabi/bin/../lib/gcc/arm-none-eabi/9.2.1/../../../../arm-none-eabi/lib/thumb/v8-a+simd/hard/libstdc++.a(eh_terminate.o)
 .text._ZN10__cxxabiv111__terminateEPFvvE
                0x0000000000065ae0       0x28 /home/olf/projects/circle/gcc-arm-9.2-2019.12-x86_64-arm-none-eabi/bin/../lib/gcc/arm-none-eabi/9.2.1/../../../../arm-none-eabi/lib/thumb/v8-a+simd/hard/libstdc++.a(eh_terminate.o)
                0x0000000000065ae0                __cxxabiv1::__terminate(void (*)())
 .text._ZSt9terminatev
                0x0000000000065b08       0x14 /home/olf/projects/circle/gcc-arm-9.2-2019.12-x86_64-arm-none-eabi/bin/../lib/gcc/arm-none-eabi/9.2.1/../../../../arm-none-eabi/lib/thumb/v8-a+simd/hard/libstdc++.a(eh_terminate.o)
                0x0000000000065b08                std::terminate()
 .text._ZN10__cxxabiv112__unexpectedEPFvvE
                0x0000000000065b1c        0x8 /home/olf/projects/circle/gcc-arm-9.2-2019.12-x86_64-arm-none-eabi/bin/../lib/gcc/arm-none-eabi/9.2.1/../../../../arm-none-eabi/lib/thumb/v8-a+simd/hard/libstdc++.a(eh_terminate.o)
                0x0000000000065b1c                __cxxabiv1::__unexpected(void (*)())
 .text._ZSt10unexpectedv
                0x0000000000065b24       0x14 /home/olf/projects/circle/gcc-arm-9.2-2019.12-x86_64-arm-none-eabi/bin/../lib/gcc/arm-none-eabi/9.2.1/../../../../arm-none-eabi/lib/thumb/v8-a+simd/hard/libstdc++.a(eh_terminate.o)
                0x0000000000065b24                std::unexpected()
 .text._ZSt13set_terminatePFvvE
                0x0000000000065b38       0x28 /home/olf/projects/circle/gcc-arm-9.2-2019.12-x86_64-arm-none-eabi/bin/../lib/gcc/arm-none-eabi/9.2.1/../../../../arm-none-eabi/lib/thumb/v8-a+simd/hard/libstdc++.a(eh_terminate.o)
                0x0000000000065b38                std::set_terminate(void (*)())
 .text._ZSt13get_terminatev
                0x0000000000065b60       0x10 /home/olf/projects/circle/gcc-arm-9.2-2019.12-x86_64-arm-none-eabi/bin/../lib/gcc/arm-none-eabi/9.2.1/../../../../arm-none-eabi/lib/thumb/v8-a+simd/hard/libstdc++.a(eh_terminate.o)
                0x0000000000065b60                std::get_terminate()
 .text._ZSt14set_unexpectedPFvvE
                0x0000000000065b70       0x28 /home/olf/projects/circle/gcc-arm-9.2-2019.12-x86_64-arm-none-eabi/bin/../lib/gcc/arm-none-eabi/9.2.1/../../../../arm-none-eabi/lib/thumb/v8-a+simd/hard/libstdc++.a(eh_terminate.o)
                0x0000000000065b70                std::set_unexpected(void (*)())
 .text._ZSt14get_unexpectedv
                0x0000000000065b98       0x10 /home/olf/projects/circle/gcc-arm-9.2-2019.12-x86_64-arm-none-eabi/bin/../lib/gcc/arm-none-eabi/9.2.1/../../../../arm-none-eabi/lib/thumb/v8-a+simd/hard/libstdc++.a(eh_terminate.o)
                0x0000000000065b98                std::get_unexpected()
 .text          0x0000000000065ba8        0x0 /home/olf/projects/circle/gcc-arm-9.2-2019.12-x86_64-arm-none-eabi/bin/../lib/gcc/arm-none-eabi/9.2.1/../../../../arm-none-eabi/lib/thumb/v8-a+simd/hard/libstdc++.a(eh_throw.o)
 .text._ZL23__gxx_exception_cleanup19_Unwind_Reason_CodeP21_Unwind_Control_Block
                0x0000000000065ba8       0x3c /home/olf/projects/circle/gcc-arm-9.2-2019.12-x86_64-arm-none-eabi/bin/../lib/gcc/arm-none-eabi/9.2.1/../../../../arm-none-eabi/lib/thumb/v8-a+simd/hard/libstdc++.a(eh_throw.o)
 .text.__cxa_init_primary_exception
                0x0000000000065be4       0x5c /home/olf/projects/circle/gcc-arm-9.2-2019.12-x86_64-arm-none-eabi/bin/../lib/gcc/arm-none-eabi/9.2.1/../../../../arm-none-eabi/lib/thumb/v8-a+simd/hard/libstdc++.a(eh_throw.o)
                0x0000000000065be4                __cxa_init_primary_exception
 .text.__cxa_throw
                0x0000000000065c40       0x38 /home/olf/projects/circle/gcc-arm-9.2-2019.12-x86_64-arm-none-eabi/bin/../lib/gcc/arm-none-eabi/9.2.1/../../../../arm-none-eabi/lib/thumb/v8-a+simd/hard/libstdc++.a(eh_throw.o)
                0x0000000000065c40                __cxa_throw
 .text.__cxa_rethrow
                0x0000000000065c78       0x70 /home/olf/projects/circle/gcc-arm-9.2-2019.12-x86_64-arm-none-eabi/bin/../lib/gcc/arm-none-eabi/9.2.1/../../../../arm-none-eabi/lib/thumb/v8-a+simd/hard/libstdc++.a(eh_throw.o)
                0x0000000000065c78                __cxa_rethrow
 .text          0x0000000000065ce8        0x0 /home/olf/projects/circle/gcc-arm-9.2-2019.12-x86_64-arm-none-eabi/bin/../lib/gcc/arm-none-eabi/9.2.1/../../../../arm-none-eabi/lib/thumb/v8-a+simd/hard/libstdc++.a(eh_unex_handler.o)
 .text          0x0000000000065ce8        0x0 /home/olf/projects/circle/gcc-arm-9.2-2019.12-x86_64-arm-none-eabi/bin/../lib/gcc/arm-none-eabi/9.2.1/../../../../arm-none-eabi/lib/thumb/v8-a+simd/hard/libstdc++.a(new_op.o)
 .text._Znwj    0x0000000000065ce8       0x40 /home/olf/projects/circle/gcc-arm-9.2-2019.12-x86_64-arm-none-eabi/bin/../lib/gcc/arm-none-eabi/9.2.1/../../../../arm-none-eabi/lib/thumb/v8-a+simd/hard/libstdc++.a(new_op.o)
                0x0000000000065ce8                operator new(unsigned int)
 .text          0x0000000000065d28        0x0 /home/olf/projects/circle/gcc-arm-9.2-2019.12-x86_64-arm-none-eabi/bin/../lib/gcc/arm-none-eabi/9.2.1/../../../../arm-none-eabi/lib/thumb/v8-a+simd/hard/libstdc++.a(new_opv.o)
 .text._Znaj    0x0000000000065d28        0x4 /home/olf/projects/circle/gcc-arm-9.2-2019.12-x86_64-arm-none-eabi/bin/../lib/gcc/arm-none-eabi/9.2.1/../../../../arm-none-eabi/lib/thumb/v8-a+simd/hard/libstdc++.a(new_opv.o)
                0x0000000000065d28                operator new[](unsigned int)
 .text          0x0000000000065d2c        0x0 /home/olf/projects/circle/gcc-arm-9.2-2019.12-x86_64-arm-none-eabi/bin/../lib/gcc/arm-none-eabi/9.2.1/../../../../arm-none-eabi/lib/thumb/v8-a+simd/hard/libstdc++.a(pure.o)
 .text.__cxa_pure_virtual
                0x0000000000065d2c       0x18 /home/olf/projects/circle/gcc-arm-9.2-2019.12-x86_64-arm-none-eabi/bin/../lib/gcc/arm-none-eabi/9.2.1/../../../../arm-none-eabi/lib/thumb/v8-a+simd/hard/libstdc++.a(pure.o)
                0x0000000000065d2c                __cxa_pure_virtual
 .text.__cxa_deleted_virtual
                0x0000000000065d44       0x18 /home/olf/projects/circle/gcc-arm-9.2-2019.12-x86_64-arm-none-eabi/bin/../lib/gcc/arm-none-eabi/9.2.1/../../../../arm-none-eabi/lib/thumb/v8-a+simd/hard/libstdc++.a(pure.o)
                0x0000000000065d44                __cxa_deleted_virtual
 .text          0x0000000000065d5c        0x0 /home/olf/projects/circle/gcc-arm-9.2-2019.12-x86_64-arm-none-eabi/bin/../lib/gcc/arm-none-eabi/9.2.1/../../../../arm-none-eabi/lib/thumb/v8-a+simd/hard/libstdc++.a(si_class_type_info.o)
 .text._ZN10__cxxabiv120__si_class_type_infoD2Ev
                0x0000000000065d5c       0x14 /home/olf/projects/circle/gcc-arm-9.2-2019.12-x86_64-arm-none-eabi/bin/../lib/gcc/arm-none-eabi/9.2.1/../../../../arm-none-eabi/lib/thumb/v8-a+simd/hard/libstdc++.a(si_class_type_info.o)
                0x0000000000065d5c                __cxxabiv1::__si_class_type_info::~__si_class_type_info()
                0x0000000000065d5c                __cxxabiv1::__si_class_type_info::~__si_class_type_info()
 .text._ZN10__cxxabiv120__si_class_type_infoD0Ev
                0x0000000000065d70       0x1c /home/olf/projects/circle/gcc-arm-9.2-2019.12-x86_64-arm-none-eabi/bin/../lib/gcc/arm-none-eabi/9.2.1/../../../../arm-none-eabi/lib/thumb/v8-a+simd/hard/libstdc++.a(si_class_type_info.o)
                0x0000000000065d70                __cxxabiv1::__si_class_type_info::~__si_class_type_info()
 .text._ZNK10__cxxabiv120__si_class_type_info20__do_find_public_srcEiPKvPKNS_17__class_type_infoES2_
                0x0000000000065d8c       0x3c /home/olf/projects/circle/gcc-arm-9.2-2019.12-x86_64-arm-none-eabi/bin/../lib/gcc/arm-none-eabi/9.2.1/../../../../arm-none-eabi/lib/thumb/v8-a+simd/hard/libstdc++.a(si_class_type_info.o)
                0x0000000000065d8c                __cxxabiv1::__si_class_type_info::__do_find_public_src(int, void const*, __cxxabiv1::__class_type_info const*, void const*) const
 .text._ZNK10__cxxabiv120__si_class_type_info12__do_dyncastEiNS_17__class_type_info10__sub_kindEPKS1_PKvS4_S6_RNS1_16__dyncast_resultE
                0x0000000000065dc8       0x84 /home/olf/projects/circle/gcc-arm-9.2-2019.12-x86_64-arm-none-eabi/bin/../lib/gcc/arm-none-eabi/9.2.1/../../../../arm-none-eabi/lib/thumb/v8-a+simd/hard/libstdc++.a(si_class_type_info.o)
                0x0000000000065dc8                __cxxabiv1::__si_class_type_info::__do_dyncast(int, __cxxabiv1::__class_type_info::__sub_kind, __cxxabiv1::__class_type_info const*, void const*, __cxxabiv1::__class_type_info const*, void const*, __cxxabiv1::__class_type_info::__dyncast_result&) const
 .text._ZNK10__cxxabiv120__si_class_type_info11__do_upcastEPKNS_17__class_type_infoEPKvRNS1_15__upcast_resultE
                0x0000000000065e4c       0x2c /home/olf/projects/circle/gcc-arm-9.2-2019.12-x86_64-arm-none-eabi/bin/../lib/gcc/arm-none-eabi/9.2.1/../../../../arm-none-eabi/lib/thumb/v8-a+simd/hard/libstdc++.a(si_class_type_info.o)
                0x0000000000065e4c                __cxxabiv1::__si_class_type_info::__do_upcast(__cxxabiv1::__class_type_info const*, void const*, __cxxabiv1::__class_type_info::__upcast_result&) const
 .text          0x0000000000065e78        0x0 /home/olf/projects/circle/gcc-arm-9.2-2019.12-x86_64-arm-none-eabi/bin/../lib/gcc/arm-none-eabi/9.2.1/../../../../arm-none-eabi/lib/thumb/v8-a+simd/hard/libstdc++.a(tinfo.o)
 .text._ZNSt9type_infoD2Ev
                0x0000000000065e78        0x4 /home/olf/projects/circle/gcc-arm-9.2-2019.12-x86_64-arm-none-eabi/bin/../lib/gcc/arm-none-eabi/9.2.1/../../../../arm-none-eabi/lib/thumb/v8-a+simd/hard/libstdc++.a(tinfo.o)
                0x0000000000065e78                std::type_info::~type_info()
                0x0000000000065e78                std::type_info::~type_info()
 .text._ZNKSt9type_info14__is_pointer_pEv
                0x0000000000065e7c        0x4 /home/olf/projects/circle/gcc-arm-9.2-2019.12-x86_64-arm-none-eabi/bin/../lib/gcc/arm-none-eabi/9.2.1/../../../../arm-none-eabi/lib/thumb/v8-a+simd/hard/libstdc++.a(tinfo.o)
                0x0000000000065e7c                std::type_info::__is_function_p() const
                0x0000000000065e7c                std::type_info::__is_pointer_p() const
 .text._ZNKSt9type_info11__do_upcastEPKN10__cxxabiv117__class_type_infoEPPv
                0x0000000000065e80        0x4 /home/olf/projects/circle/gcc-arm-9.2-2019.12-x86_64-arm-none-eabi/bin/../lib/gcc/arm-none-eabi/9.2.1/../../../../arm-none-eabi/lib/thumb/v8-a+simd/hard/libstdc++.a(tinfo.o)
                0x0000000000065e80                std::type_info::__do_upcast(__cxxabiv1::__class_type_info const*, void**) const
 .text._ZNSt9type_infoD0Ev
                0x0000000000065e84       0x10 /home/olf/projects/circle/gcc-arm-9.2-2019.12-x86_64-arm-none-eabi/bin/../lib/gcc/arm-none-eabi/9.2.1/../../../../arm-none-eabi/lib/thumb/v8-a+simd/hard/libstdc++.a(tinfo.o)
                0x0000000000065e84                std::type_info::~type_info()
 .text._ZNKSt9type_infoeqERKS_
                0x0000000000065e94       0x2c /home/olf/projects/circle/gcc-arm-9.2-2019.12-x86_64-arm-none-eabi/bin/../lib/gcc/arm-none-eabi/9.2.1/../../../../arm-none-eabi/lib/thumb/v8-a+simd/hard/libstdc++.a(tinfo.o)
                0x0000000000065e94                std::type_info::operator==(std::type_info const&) const
 .text._ZNKSt9type_info10__do_catchEPKS_PPvj
                0x0000000000065ec0        0x4 /home/olf/projects/circle/gcc-arm-9.2-2019.12-x86_64-arm-none-eabi/bin/../lib/gcc/arm-none-eabi/9.2.1/../../../../arm-none-eabi/lib/thumb/v8-a+simd/hard/libstdc++.a(tinfo.o)
                0x0000000000065ec0                std::type_info::__do_catch(std::type_info const*, void**, unsigned int) const
 .text          0x0000000000065ec4        0x0 /home/olf/projects/circle/gcc-arm-9.2-2019.12-x86_64-arm-none-eabi/bin/../lib/gcc/arm-none-eabi/9.2.1/../../../../arm-none-eabi/lib/thumb/v8-a+simd/hard/libstdc++.a(vmi_class_type_info.o)
 .text._ZN10__cxxabiv121__vmi_class_type_infoD2Ev
                0x0000000000065ec4       0x14 /home/olf/projects/circle/gcc-arm-9.2-2019.12-x86_64-arm-none-eabi/bin/../lib/gcc/arm-none-eabi/9.2.1/../../../../arm-none-eabi/lib/thumb/v8-a+simd/hard/libstdc++.a(vmi_class_type_info.o)
                0x0000000000065ec4                __cxxabiv1::__vmi_class_type_info::~__vmi_class_type_info()
                0x0000000000065ec4                __cxxabiv1::__vmi_class_type_info::~__vmi_class_type_info()
 .text._ZN10__cxxabiv121__vmi_class_type_infoD0Ev
                0x0000000000065ed8       0x1c /home/olf/projects/circle/gcc-arm-9.2-2019.12-x86_64-arm-none-eabi/bin/../lib/gcc/arm-none-eabi/9.2.1/../../../../arm-none-eabi/lib/thumb/v8-a+simd/hard/libstdc++.a(vmi_class_type_info.o)
                0x0000000000065ed8                __cxxabiv1::__vmi_class_type_info::~__vmi_class_type_info()
 .text._ZNK10__cxxabiv121__vmi_class_type_info20__do_find_public_srcEiPKvPKNS_17__class_type_infoES2_
                0x0000000000065ef4       0x88 /home/olf/projects/circle/gcc-arm-9.2-2019.12-x86_64-arm-none-eabi/bin/../lib/gcc/arm-none-eabi/9.2.1/../../../../arm-none-eabi/lib/thumb/v8-a+simd/hard/libstdc++.a(vmi_class_type_info.o)
                0x0000000000065ef4                __cxxabiv1::__vmi_class_type_info::__do_find_public_src(int, void const*, __cxxabiv1::__class_type_info const*, void const*) const
 .text._ZNK10__cxxabiv121__vmi_class_type_info12__do_dyncastEiNS_17__class_type_info10__sub_kindEPKS1_PKvS4_S6_RNS1_16__dyncast_resultE
                0x0000000000065f7c      0x3dc /home/olf/projects/circle/gcc-arm-9.2-2019.12-x86_64-arm-none-eabi/bin/../lib/gcc/arm-none-eabi/9.2.1/../../../../arm-none-eabi/lib/thumb/v8-a+simd/hard/libstdc++.a(vmi_class_type_info.o)
                0x0000000000065f7c                __cxxabiv1::__vmi_class_type_info::__do_dyncast(int, __cxxabiv1::__class_type_info::__sub_kind, __cxxabiv1::__class_type_info const*, void const*, __cxxabiv1::__class_type_info const*, void const*, __cxxabiv1::__class_type_info::__dyncast_result&) const
 .text._ZNK10__cxxabiv121__vmi_class_type_info11__do_upcastEPKNS_17__class_type_infoEPKvRNS1_15__upcast_resultE
                0x0000000000066358      0x168 /home/olf/projects/circle/gcc-arm-9.2-2019.12-x86_64-arm-none-eabi/bin/../lib/gcc/arm-none-eabi/9.2.1/../../../../arm-none-eabi/lib/thumb/v8-a+simd/hard/libstdc++.a(vmi_class_type_info.o)
                0x0000000000066358                __cxxabiv1::__vmi_class_type_info::__do_upcast(__cxxabiv1::__class_type_info const*, void const*, __cxxabiv1::__class_type_info::__upcast_result&) const
 .text          0x00000000000664c0        0x0 /home/olf/projects/circle/gcc-arm-9.2-2019.12-x86_64-arm-none-eabi/bin/../lib/gcc/arm-none-eabi/9.2.1/../../../../arm-none-eabi/lib/thumb/v8-a+simd/hard/libstdc++.a(vterminate.o)
 .text._ZN9__gnu_cxx27__verbose_terminate_handlerEv
                0x00000000000664c0      0x128 /home/olf/projects/circle/gcc-arm-9.2-2019.12-x86_64-arm-none-eabi/bin/../lib/gcc/arm-none-eabi/9.2.1/../../../../arm-none-eabi/lib/thumb/v8-a+simd/hard/libstdc++.a(vterminate.o)
                0x00000000000664c0                __gnu_cxx::__verbose_terminate_handler()
 .text          0x00000000000665e8        0x0 /home/olf/projects/circle/gcc-arm-9.2-2019.12-x86_64-arm-none-eabi/bin/../lib/gcc/arm-none-eabi/9.2.1/../../../../arm-none-eabi/lib/thumb/v8-a+simd/hard/libstdc++.a(bad_alloc.o)
 .text._ZNKSt9bad_alloc4whatEv
                0x00000000000665e8        0xc /home/olf/projects/circle/gcc-arm-9.2-2019.12-x86_64-arm-none-eabi/bin/../lib/gcc/arm-none-eabi/9.2.1/../../../../arm-none-eabi/lib/thumb/v8-a+simd/hard/libstdc++.a(bad_alloc.o)
                0x00000000000665e8                std::bad_alloc::what() const
 .text._ZNSt9bad_allocD2Ev
                0x00000000000665f4       0x14 /home/olf/projects/circle/gcc-arm-9.2-2019.12-x86_64-arm-none-eabi/bin/../lib/gcc/arm-none-eabi/9.2.1/../../../../arm-none-eabi/lib/thumb/v8-a+simd/hard/libstdc++.a(bad_alloc.o)
                0x00000000000665f4                std::bad_alloc::~bad_alloc()
                0x00000000000665f4                std::bad_alloc::~bad_alloc()
 .text._ZNSt9bad_allocD0Ev
                0x0000000000066608       0x1c /home/olf/projects/circle/gcc-arm-9.2-2019.12-x86_64-arm-none-eabi/bin/../lib/gcc/arm-none-eabi/9.2.1/../../../../arm-none-eabi/lib/thumb/v8-a+simd/hard/libstdc++.a(bad_alloc.o)
                0x0000000000066608                std::bad_alloc::~bad_alloc()
 .text          0x0000000000066624        0x0 /home/olf/projects/circle/gcc-arm-9.2-2019.12-x86_64-arm-none-eabi/bin/../lib/gcc/arm-none-eabi/9.2.1/../../../../arm-none-eabi/lib/thumb/v8-a+simd/hard/libstdc++.a(bad_array_new.o)
 .text._ZNKSt20bad_array_new_length4whatEv
                0x0000000000066624        0xc /home/olf/projects/circle/gcc-arm-9.2-2019.12-x86_64-arm-none-eabi/bin/../lib/gcc/arm-none-eabi/9.2.1/../../../../arm-none-eabi/lib/thumb/v8-a+simd/hard/libstdc++.a(bad_array_new.o)
                0x0000000000066624                std::bad_array_new_length::what() const
 .text._ZNSt20bad_array_new_lengthD2Ev
                0x0000000000066630       0x14 /home/olf/projects/circle/gcc-arm-9.2-2019.12-x86_64-arm-none-eabi/bin/../lib/gcc/arm-none-eabi/9.2.1/../../../../arm-none-eabi/lib/thumb/v8-a+simd/hard/libstdc++.a(bad_array_new.o)
                0x0000000000066630                std::bad_array_new_length::~bad_array_new_length()
                0x0000000000066630                std::bad_array_new_length::~bad_array_new_length()
 .text._ZNSt20bad_array_new_lengthD0Ev
                0x0000000000066644       0x1c /home/olf/projects/circle/gcc-arm-9.2-2019.12-x86_64-arm-none-eabi/bin/../lib/gcc/arm-none-eabi/9.2.1/../../../../arm-none-eabi/lib/thumb/v8-a+simd/hard/libstdc++.a(bad_array_new.o)
                0x0000000000066644                std::bad_array_new_length::~bad_array_new_length()
 .text          0x0000000000066660        0x0 /home/olf/projects/circle/gcc-arm-9.2-2019.12-x86_64-arm-none-eabi/bin/../lib/gcc/arm-none-eabi/9.2.1/../../../../arm-none-eabi/lib/thumb/v8-a+simd/hard/libstdc++.a(bad_cast.o)
 .text._ZNKSt8bad_cast4whatEv
                0x0000000000066660        0xc /home/olf/projects/circle/gcc-arm-9.2-2019.12-x86_64-arm-none-eabi/bin/../lib/gcc/arm-none-eabi/9.2.1/../../../../arm-none-eabi/lib/thumb/v8-a+simd/hard/libstdc++.a(bad_cast.o)
                0x0000000000066660                std::bad_cast::what() const
 .text._ZNSt8bad_castD2Ev
                0x000000000006666c       0x14 /home/olf/projects/circle/gcc-arm-9.2-2019.12-x86_64-arm-none-eabi/bin/../lib/gcc/arm-none-eabi/9.2.1/../../../../arm-none-eabi/lib/thumb/v8-a+simd/hard/libstdc++.a(bad_cast.o)
                0x000000000006666c                std::bad_cast::~bad_cast()
                0x000000000006666c                std::bad_cast::~bad_cast()
 .text._ZNSt8bad_castD0Ev
                0x0000000000066680       0x1c /home/olf/projects/circle/gcc-arm-9.2-2019.12-x86_64-arm-none-eabi/bin/../lib/gcc/arm-none-eabi/9.2.1/../../../../arm-none-eabi/lib/thumb/v8-a+simd/hard/libstdc++.a(bad_cast.o)
                0x0000000000066680                std::bad_cast::~bad_cast()
 .text          0x000000000006669c        0x0 /home/olf/projects/circle/gcc-arm-9.2-2019.12-x86_64-arm-none-eabi/bin/../lib/gcc/arm-none-eabi/9.2.1/../../../../arm-none-eabi/lib/thumb/v8-a+simd/hard/libstdc++.a(bad_typeid.o)
 .text._ZNKSt10bad_typeid4whatEv
                0x000000000006669c        0xc /home/olf/projects/circle/gcc-arm-9.2-2019.12-x86_64-arm-none-eabi/bin/../lib/gcc/arm-none-eabi/9.2.1/../../../../arm-none-eabi/lib/thumb/v8-a+simd/hard/libstdc++.a(bad_typeid.o)
                0x000000000006669c                std::bad_typeid::what() const
 .text._ZNSt10bad_typeidD2Ev
                0x00000000000666a8       0x14 /home/olf/projects/circle/gcc-arm-9.2-2019.12-x86_64-arm-none-eabi/bin/../lib/gcc/arm-none-eabi/9.2.1/../../../../arm-none-eabi/lib/thumb/v8-a+simd/hard/libstdc++.a(bad_typeid.o)
                0x00000000000666a8                std::bad_typeid::~bad_typeid()
                0x00000000000666a8                std::bad_typeid::~bad_typeid()
 .text._ZNSt10bad_typeidD0Ev
                0x00000000000666bc       0x1c /home/olf/projects/circle/gcc-arm-9.2-2019.12-x86_64-arm-none-eabi/bin/../lib/gcc/arm-none-eabi/9.2.1/../../../../arm-none-eabi/lib/thumb/v8-a+simd/hard/libstdc++.a(bad_typeid.o)
                0x00000000000666bc                std::bad_typeid::~bad_typeid()
 .text          0x00000000000666d8        0x0 /home/olf/projects/circle/gcc-arm-9.2-2019.12-x86_64-arm-none-eabi/bin/../lib/gcc/arm-none-eabi/9.2.1/../../../../arm-none-eabi/lib/thumb/v8-a+simd/hard/libstdc++.a(cp-demangle.o)
 .text.d_make_comp
                0x00000000000666d8       0x98 /home/olf/projects/circle/gcc-arm-9.2-2019.12-x86_64-arm-none-eabi/bin/../lib/gcc/arm-none-eabi/9.2.1/../../../../arm-none-eabi/lib/thumb/v8-a+simd/hard/libstdc++.a(cp-demangle.o)
 .text.d_ref_qualifier
                0x0000000000066770       0x38 /home/olf/projects/circle/gcc-arm-9.2-2019.12-x86_64-arm-none-eabi/bin/../lib/gcc/arm-none-eabi/9.2.1/../../../../arm-none-eabi/lib/thumb/v8-a+simd/hard/libstdc++.a(cp-demangle.o)
 .text.d_count_templates_scopes
                0x00000000000667a8       0xd0 /home/olf/projects/circle/gcc-arm-9.2-2019.12-x86_64-arm-none-eabi/bin/../lib/gcc/arm-none-eabi/9.2.1/../../../../arm-none-eabi/lib/thumb/v8-a+simd/hard/libstdc++.a(cp-demangle.o)
 .text.d_append_buffer
                0x0000000000066878       0x68 /home/olf/projects/circle/gcc-arm-9.2-2019.12-x86_64-arm-none-eabi/bin/../lib/gcc/arm-none-eabi/9.2.1/../../../../arm-none-eabi/lib/thumb/v8-a+simd/hard/libstdc++.a(cp-demangle.o)
 .text.d_number.isra.0
                0x00000000000668e0       0x84 /home/olf/projects/circle/gcc-arm-9.2-2019.12-x86_64-arm-none-eabi/bin/../lib/gcc/arm-none-eabi/9.2.1/../../../../arm-none-eabi/lib/thumb/v8-a+simd/hard/libstdc++.a(cp-demangle.o)
 .text.d_number_component
                0x0000000000066964       0x30 /home/olf/projects/circle/gcc-arm-9.2-2019.12-x86_64-arm-none-eabi/bin/../lib/gcc/arm-none-eabi/9.2.1/../../../../arm-none-eabi/lib/thumb/v8-a+simd/hard/libstdc++.a(cp-demangle.o)
 .text.d_compact_number
                0x0000000000066994       0x34 /home/olf/projects/circle/gcc-arm-9.2-2019.12-x86_64-arm-none-eabi/bin/../lib/gcc/arm-none-eabi/9.2.1/../../../../arm-none-eabi/lib/thumb/v8-a+simd/hard/libstdc++.a(cp-demangle.o)
 .text.d_template_param
                0x00000000000669c8       0x3c /home/olf/projects/circle/gcc-arm-9.2-2019.12-x86_64-arm-none-eabi/bin/../lib/gcc/arm-none-eabi/9.2.1/../../../../arm-none-eabi/lib/thumb/v8-a+simd/hard/libstdc++.a(cp-demangle.o)
 .text.d_source_name
                0x0000000000066a04       0xe4 /home/olf/projects/circle/gcc-arm-9.2-2019.12-x86_64-arm-none-eabi/bin/../lib/gcc/arm-none-eabi/9.2.1/../../../../arm-none-eabi/lib/thumb/v8-a+simd/hard/libstdc++.a(cp-demangle.o)
 .text.d_abi_tags
                0x0000000000066ae8       0x38 /home/olf/projects/circle/gcc-arm-9.2-2019.12-x86_64-arm-none-eabi/bin/../lib/gcc/arm-none-eabi/9.2.1/../../../../arm-none-eabi/lib/thumb/v8-a+simd/hard/libstdc++.a(cp-demangle.o)
 .text.d_substitution
                0x0000000000066b20      0x16c /home/olf/projects/circle/gcc-arm-9.2-2019.12-x86_64-arm-none-eabi/bin/../lib/gcc/arm-none-eabi/9.2.1/../../../../arm-none-eabi/lib/thumb/v8-a+simd/hard/libstdc++.a(cp-demangle.o)
 .text.d_call_offset
                0x0000000000066c8c       0x54 /home/olf/projects/circle/gcc-arm-9.2-2019.12-x86_64-arm-none-eabi/bin/../lib/gcc/arm-none-eabi/9.2.1/../../../../arm-none-eabi/lib/thumb/v8-a+simd/hard/libstdc++.a(cp-demangle.o)
 .text.next_is_type_qual.isra.0
                0x0000000000066ce0       0x44 /home/olf/projects/circle/gcc-arm-9.2-2019.12-x86_64-arm-none-eabi/bin/../lib/gcc/arm-none-eabi/9.2.1/../../../../arm-none-eabi/lib/thumb/v8-a+simd/hard/libstdc++.a(cp-demangle.o)
 .text.d_discriminator
                0x0000000000066d24       0x50 /home/olf/projects/circle/gcc-arm-9.2-2019.12-x86_64-arm-none-eabi/bin/../lib/gcc/arm-none-eabi/9.2.1/../../../../arm-none-eabi/lib/thumb/v8-a+simd/hard/libstdc++.a(cp-demangle.o)
 .text.d_index_template_argument.part.0
                0x0000000000066d74       0x20 /home/olf/projects/circle/gcc-arm-9.2-2019.12-x86_64-arm-none-eabi/bin/../lib/gcc/arm-none-eabi/9.2.1/../../../../arm-none-eabi/lib/thumb/v8-a+simd/hard/libstdc++.a(cp-demangle.o)
 .text.d_lookup_template_argument.isra.0
                0x0000000000066d94       0x20 /home/olf/projects/circle/gcc-arm-9.2-2019.12-x86_64-arm-none-eabi/bin/../lib/gcc/arm-none-eabi/9.2.1/../../../../arm-none-eabi/lib/thumb/v8-a+simd/hard/libstdc++.a(cp-demangle.o)
 .text.d_find_pack
                0x0000000000066db4       0x90 /home/olf/projects/circle/gcc-arm-9.2-2019.12-x86_64-arm-none-eabi/bin/../lib/gcc/arm-none-eabi/9.2.1/../../../../arm-none-eabi/lib/thumb/v8-a+simd/hard/libstdc++.a(cp-demangle.o)
 .text.d_growable_string_callback_adapter
                0x0000000000066e44       0x78 /home/olf/projects/circle/gcc-arm-9.2-2019.12-x86_64-arm-none-eabi/bin/../lib/gcc/arm-none-eabi/9.2.1/../../../../arm-none-eabi/lib/thumb/v8-a+simd/hard/libstdc++.a(cp-demangle.o)
 .text.d_exprlist
                0x0000000000066ebc      0x4e8 /home/olf/projects/circle/gcc-arm-9.2-2019.12-x86_64-arm-none-eabi/bin/../lib/gcc/arm-none-eabi/9.2.1/../../../../arm-none-eabi/lib/thumb/v8-a+simd/hard/libstdc++.a(cp-demangle.o)
 .text.d_expression_1
                0x00000000000673a4      0x40c /home/olf/projects/circle/gcc-arm-9.2-2019.12-x86_64-arm-none-eabi/bin/../lib/gcc/arm-none-eabi/9.2.1/../../../../arm-none-eabi/lib/thumb/v8-a+simd/hard/libstdc++.a(cp-demangle.o)
 .text.d_template_arg
                0x00000000000677b0       0x54 /home/olf/projects/circle/gcc-arm-9.2-2019.12-x86_64-arm-none-eabi/bin/../lib/gcc/arm-none-eabi/9.2.1/../../../../arm-none-eabi/lib/thumb/v8-a+simd/hard/libstdc++.a(cp-demangle.o)
 .text.d_template_args_1
                0x0000000000067804       0x64 /home/olf/projects/circle/gcc-arm-9.2-2019.12-x86_64-arm-none-eabi/bin/../lib/gcc/arm-none-eabi/9.2.1/../../../../arm-none-eabi/lib/thumb/v8-a+simd/hard/libstdc++.a(cp-demangle.o)
 .text.d_template_args
                0x0000000000067868       0x18 /home/olf/projects/circle/gcc-arm-9.2-2019.12-x86_64-arm-none-eabi/bin/../lib/gcc/arm-none-eabi/9.2.1/../../../../arm-none-eabi/lib/thumb/v8-a+simd/hard/libstdc++.a(cp-demangle.o)
 .text.d_encoding
                0x0000000000067880      0x598 /home/olf/projects/circle/gcc-arm-9.2-2019.12-x86_64-arm-none-eabi/bin/../lib/gcc/arm-none-eabi/9.2.1/../../../../arm-none-eabi/lib/thumb/v8-a+simd/hard/libstdc++.a(cp-demangle.o)
 .text.d_name   0x0000000000067e18      0x378 /home/olf/projects/circle/gcc-arm-9.2-2019.12-x86_64-arm-none-eabi/bin/../lib/gcc/arm-none-eabi/9.2.1/../../../../arm-none-eabi/lib/thumb/v8-a+simd/hard/libstdc++.a(cp-demangle.o)
 .text.d_type   0x0000000000068190      0x7e4 /home/olf/projects/circle/gcc-arm-9.2-2019.12-x86_64-arm-none-eabi/bin/../lib/gcc/arm-none-eabi/9.2.1/../../../../arm-none-eabi/lib/thumb/v8-a+simd/hard/libstdc++.a(cp-demangle.o)
 .text.d_operator_name
                0x0000000000068974       0xf8 /home/olf/projects/circle/gcc-arm-9.2-2019.12-x86_64-arm-none-eabi/bin/../lib/gcc/arm-none-eabi/9.2.1/../../../../arm-none-eabi/lib/thumb/v8-a+simd/hard/libstdc++.a(cp-demangle.o)
 .text.d_parmlist
                0x0000000000068a6c       0xa8 /home/olf/projects/circle/gcc-arm-9.2-2019.12-x86_64-arm-none-eabi/bin/../lib/gcc/arm-none-eabi/9.2.1/../../../../arm-none-eabi/lib/thumb/v8-a+simd/hard/libstdc++.a(cp-demangle.o)
 .text.d_cv_qualifiers
                0x0000000000068b14      0x174 /home/olf/projects/circle/gcc-arm-9.2-2019.12-x86_64-arm-none-eabi/bin/../lib/gcc/arm-none-eabi/9.2.1/../../../../arm-none-eabi/lib/thumb/v8-a+simd/hard/libstdc++.a(cp-demangle.o)
 .text.d_bare_function_type
                0x0000000000068c88       0x48 /home/olf/projects/circle/gcc-arm-9.2-2019.12-x86_64-arm-none-eabi/bin/../lib/gcc/arm-none-eabi/9.2.1/../../../../arm-none-eabi/lib/thumb/v8-a+simd/hard/libstdc++.a(cp-demangle.o)
 .text.d_function_type
                0x0000000000068cd0       0x6c /home/olf/projects/circle/gcc-arm-9.2-2019.12-x86_64-arm-none-eabi/bin/../lib/gcc/arm-none-eabi/9.2.1/../../../../arm-none-eabi/lib/thumb/v8-a+simd/hard/libstdc++.a(cp-demangle.o)
 .text.d_unqualified_name
                0x0000000000068d3c      0x2a8 /home/olf/projects/circle/gcc-arm-9.2-2019.12-x86_64-arm-none-eabi/bin/../lib/gcc/arm-none-eabi/9.2.1/../../../../arm-none-eabi/lib/thumb/v8-a+simd/hard/libstdc++.a(cp-demangle.o)
 .text.d_expr_primary
                0x0000000000068fe4       0xd8 /home/olf/projects/circle/gcc-arm-9.2-2019.12-x86_64-arm-none-eabi/bin/../lib/gcc/arm-none-eabi/9.2.1/../../../../arm-none-eabi/lib/thumb/v8-a+simd/hard/libstdc++.a(cp-demangle.o)
 .text.d_print_comp
                0x00000000000690bc     0x32dc /home/olf/projects/circle/gcc-arm-9.2-2019.12-x86_64-arm-none-eabi/bin/../lib/gcc/arm-none-eabi/9.2.1/../../../../arm-none-eabi/lib/thumb/v8-a+simd/hard/libstdc++.a(cp-demangle.o)
 .text.d_print_mod
                0x000000000006c398      0x684 /home/olf/projects/circle/gcc-arm-9.2-2019.12-x86_64-arm-none-eabi/bin/../lib/gcc/arm-none-eabi/9.2.1/../../../../arm-none-eabi/lib/thumb/v8-a+simd/hard/libstdc++.a(cp-demangle.o)
 .text.d_print_function_type.isra.0
                0x000000000006ca1c      0x1ec /home/olf/projects/circle/gcc-arm-9.2-2019.12-x86_64-arm-none-eabi/bin/../lib/gcc/arm-none-eabi/9.2.1/../../../../arm-none-eabi/lib/thumb/v8-a+simd/hard/libstdc++.a(cp-demangle.o)
 .text.d_print_mod_list
                0x000000000006cc08      0x2a4 /home/olf/projects/circle/gcc-arm-9.2-2019.12-x86_64-arm-none-eabi/bin/../lib/gcc/arm-none-eabi/9.2.1/../../../../arm-none-eabi/lib/thumb/v8-a+simd/hard/libstdc++.a(cp-demangle.o)
 .text.d_print_array_type.isra.0
                0x000000000006ceac      0x1cc /home/olf/projects/circle/gcc-arm-9.2-2019.12-x86_64-arm-none-eabi/bin/../lib/gcc/arm-none-eabi/9.2.1/../../../../arm-none-eabi/lib/thumb/v8-a+simd/hard/libstdc++.a(cp-demangle.o)
 .text.d_print_expr_op
                0x000000000006d078       0x7c /home/olf/projects/circle/gcc-arm-9.2-2019.12-x86_64-arm-none-eabi/bin/../lib/gcc/arm-none-eabi/9.2.1/../../../../arm-none-eabi/lib/thumb/v8-a+simd/hard/libstdc++.a(cp-demangle.o)
 .text.d_print_subexpr
                0x000000000006d0f4       0xa4 /home/olf/projects/circle/gcc-arm-9.2-2019.12-x86_64-arm-none-eabi/bin/../lib/gcc/arm-none-eabi/9.2.1/../../../../arm-none-eabi/lib/thumb/v8-a+simd/hard/libstdc++.a(cp-demangle.o)
 .text.d_maybe_print_fold_expression.isra.0
                0x000000000006d198      0x270 /home/olf/projects/circle/gcc-arm-9.2-2019.12-x86_64-arm-none-eabi/bin/../lib/gcc/arm-none-eabi/9.2.1/../../../../arm-none-eabi/lib/thumb/v8-a+simd/hard/libstdc++.a(cp-demangle.o)
 .text.d_demangle_callback.constprop.0
                0x000000000006d408      0x328 /home/olf/projects/circle/gcc-arm-9.2-2019.12-x86_64-arm-none-eabi/bin/../lib/gcc/arm-none-eabi/9.2.1/../../../../arm-none-eabi/lib/thumb/v8-a+simd/hard/libstdc++.a(cp-demangle.o)
 .text.__cxa_demangle
                0x000000000006d730       0xd4 /home/olf/projects/circle/gcc-arm-9.2-2019.12-x86_64-arm-none-eabi/bin/../lib/gcc/arm-none-eabi/9.2.1/../../../../arm-none-eabi/lib/thumb/v8-a+simd/hard/libstdc++.a(cp-demangle.o)
                0x000000000006d730                __cxa_demangle
 .text.__gcclibcxx_demangle_callback
                0x000000000006d804       0x20 /home/olf/projects/circle/gcc-arm-9.2-2019.12-x86_64-arm-none-eabi/bin/../lib/gcc/arm-none-eabi/9.2.1/../../../../arm-none-eabi/lib/thumb/v8-a+simd/hard/libstdc++.a(cp-demangle.o)
                0x000000000006d804                __gcclibcxx_demangle_callback
 .text          0x000000000006d824        0x0 /home/olf/projects/circle/gcc-arm-9.2-2019.12-x86_64-arm-none-eabi/bin/../lib/gcc/arm-none-eabi/9.2.1/../../../../arm-none-eabi/lib/thumb/v8-a+simd/hard/libstdc++.a(del_op.o)
 .text._ZdlPv   0x000000000006d824        0x4 /home/olf/projects/circle/gcc-arm-9.2-2019.12-x86_64-arm-none-eabi/bin/../lib/gcc/arm-none-eabi/9.2.1/../../../../arm-none-eabi/lib/thumb/v8-a+simd/hard/libstdc++.a(del_op.o)
                0x000000000006d824                operator delete(void*)
 .text          0x000000000006d828        0x0 /home/olf/projects/circle/gcc-arm-9.2-2019.12-x86_64-arm-none-eabi/bin/../lib/gcc/arm-none-eabi/9.2.1/../../../../arm-none-eabi/lib/thumb/v8-a+simd/hard/libstdc++.a(eh_alloc.o)
 .text._ZN12_GLOBAL__N_14pool4freeEPv.constprop.0
                0x000000000006d828       0x84 /home/olf/projects/circle/gcc-arm-9.2-2019.12-x86_64-arm-none-eabi/bin/../lib/gcc/arm-none-eabi/9.2.1/../../../../arm-none-eabi/lib/thumb/v8-a+simd/hard/libstdc++.a(eh_alloc.o)
 .text._ZN12_GLOBAL__N_14pool8allocateEj.constprop.0
                0x000000000006d8ac       0x54 /home/olf/projects/circle/gcc-arm-9.2-2019.12-x86_64-arm-none-eabi/bin/../lib/gcc/arm-none-eabi/9.2.1/../../../../arm-none-eabi/lib/thumb/v8-a+simd/hard/libstdc++.a(eh_alloc.o)
 .text._ZN9__gnu_cxx9__freeresEv
                0x000000000006d900       0x18 /home/olf/projects/circle/gcc-arm-9.2-2019.12-x86_64-arm-none-eabi/bin/../lib/gcc/arm-none-eabi/9.2.1/../../../../arm-none-eabi/lib/thumb/v8-a+simd/hard/libstdc++.a(eh_alloc.o)
                0x000000000006d900                __gnu_cxx::__freeres()
 .text.__cxa_allocate_exception
                0x000000000006d918       0x30 /home/olf/projects/circle/gcc-arm-9.2-2019.12-x86_64-arm-none-eabi/bin/../lib/gcc/arm-none-eabi/9.2.1/../../../../arm-none-eabi/lib/thumb/v8-a+simd/hard/libstdc++.a(eh_alloc.o)
                0x000000000006d918                __cxa_allocate_exception
 .text.__cxa_free_exception
                0x000000000006d948       0x20 /home/olf/projects/circle/gcc-arm-9.2-2019.12-x86_64-arm-none-eabi/bin/../lib/gcc/arm-none-eabi/9.2.1/../../../../arm-none-eabi/lib/thumb/v8-a+simd/hard/libstdc++.a(eh_alloc.o)
                0x000000000006d948                __cxa_free_exception
 .text.__cxa_allocate_dependent_exception
                0x000000000006d968       0x28 /home/olf/projects/circle/gcc-arm-9.2-2019.12-x86_64-arm-none-eabi/bin/../lib/gcc/arm-none-eabi/9.2.1/../../../../arm-none-eabi/lib/thumb/v8-a+simd/hard/libstdc++.a(eh_alloc.o)
                0x000000000006d968                __cxa_allocate_dependent_exception
 .text.__cxa_free_dependent_exception
                0x000000000006d990       0x24 /home/olf/projects/circle/gcc-arm-9.2-2019.12-x86_64-arm-none-eabi/bin/../lib/gcc/arm-none-eabi/9.2.1/../../../../arm-none-eabi/lib/thumb/v8-a+simd/hard/libstdc++.a(eh_alloc.o)
                0x000000000006d990                __cxa_free_dependent_exception
 .text.startup._GLOBAL__sub_I__ZN9__gnu_cxx9__freeresEv
                0x000000000006d9b4       0x2c /home/olf/projects/circle/gcc-arm-9.2-2019.12-x86_64-arm-none-eabi/bin/../lib/gcc/arm-none-eabi/9.2.1/../../../../arm-none-eabi/lib/thumb/v8-a+simd/hard/libstdc++.a(eh_alloc.o)
 .text          0x000000000006d9e0        0x0 /home/olf/projects/circle/gcc-arm-9.2-2019.12-x86_64-arm-none-eabi/bin/../lib/gcc/arm-none-eabi/9.2.1/../../../../arm-none-eabi/lib/thumb/v8-a+simd/hard/libstdc++.a(eh_call.o)
 .text._ZN10__cxxabiv1L24__is_gxx_exception_classEPc
                0x000000000006d9e0       0x3c /home/olf/projects/circle/gcc-arm-9.2-2019.12-x86_64-arm-none-eabi/bin/../lib/gcc/arm-none-eabi/9.2.1/../../../../arm-none-eabi/lib/thumb/v8-a+simd/hard/libstdc++.a(eh_call.o)
 .text.__cxa_call_terminate
                0x000000000006da1c       0x20 /home/olf/projects/circle/gcc-arm-9.2-2019.12-x86_64-arm-none-eabi/bin/../lib/gcc/arm-none-eabi/9.2.1/../../../../arm-none-eabi/lib/thumb/v8-a+simd/hard/libstdc++.a(eh_call.o)
                0x000000000006da1c                __cxa_call_terminate
 .text.unlikely.__cxa_call_unexpected
                0x000000000006da3c       0xf4 /home/olf/projects/circle/gcc-arm-9.2-2019.12-x86_64-arm-none-eabi/bin/../lib/gcc/arm-none-eabi/9.2.1/../../../../arm-none-eabi/lib/thumb/v8-a+simd/hard/libstdc++.a(eh_call.o)
                0x000000000006da3c                __cxa_call_unexpected
 .text          0x000000000006db30        0x0 /home/olf/projects/circle/gcc-arm-9.2-2019.12-x86_64-arm-none-eabi/bin/../lib/gcc/arm-none-eabi/9.2.1/../../../../arm-none-eabi/lib/thumb/v8-a+simd/hard/libstdc++.a(eh_catch.o)
 .text.__cxa_get_exception_ptr
                0x000000000006db30        0x4 /home/olf/projects/circle/gcc-arm-9.2-2019.12-x86_64-arm-none-eabi/bin/../lib/gcc/arm-none-eabi/9.2.1/../../../../arm-none-eabi/lib/thumb/v8-a+simd/hard/libstdc++.a(eh_catch.o)
                0x000000000006db30                __cxa_get_exception_ptr
 .text.__cxa_begin_catch
                0x000000000006db34       0x7c /home/olf/projects/circle/gcc-arm-9.2-2019.12-x86_64-arm-none-eabi/bin/../lib/gcc/arm-none-eabi/9.2.1/../../../../arm-none-eabi/lib/thumb/v8-a+simd/hard/libstdc++.a(eh_catch.o)
                0x000000000006db34                __cxa_begin_catch
 .text.__cxa_end_catch
                0x000000000006dbb0       0x88 /home/olf/projects/circle/gcc-arm-9.2-2019.12-x86_64-arm-none-eabi/bin/../lib/gcc/arm-none-eabi/9.2.1/../../../../arm-none-eabi/lib/thumb/v8-a+simd/hard/libstdc++.a(eh_catch.o)
                0x000000000006dbb0                __cxa_end_catch
 .text._ZSt18uncaught_exceptionv
                0x000000000006dc38       0x10 /home/olf/projects/circle/gcc-arm-9.2-2019.12-x86_64-arm-none-eabi/bin/../lib/gcc/arm-none-eabi/9.2.1/../../../../arm-none-eabi/lib/thumb/v8-a+simd/hard/libstdc++.a(eh_catch.o)
                0x000000000006dc38                std::uncaught_exception()
 .text._ZSt19uncaught_exceptionsv
                0x000000000006dc48        0xc /home/olf/projects/circle/gcc-arm-9.2-2019.12-x86_64-arm-none-eabi/bin/../lib/gcc/arm-none-eabi/9.2.1/../../../../arm-none-eabi/lib/thumb/v8-a+simd/hard/libstdc++.a(eh_catch.o)
                0x000000000006dc48                std::uncaught_exceptions()
 .text          0x000000000006dc54        0x0 /home/olf/projects/circle/gcc-arm-9.2-2019.12-x86_64-arm-none-eabi/bin/../lib/gcc/arm-none-eabi/9.2.1/../../../../arm-none-eabi/lib/thumb/v8-a+simd/hard/libstdc++.a(eh_term_handler.o)
 .text          0x000000000006dc54        0x0 /home/olf/projects/circle/gcc-arm-9.2-2019.12-x86_64-arm-none-eabi/bin/../lib/gcc/arm-none-eabi/9.2.1/../../../../arm-none-eabi/lib/thumb/v8-a+simd/hard/libstdc++.a(eh_type.o)
 .text.__cxa_current_exception_type
                0x000000000006dc54       0x1c /home/olf/projects/circle/gcc-arm-9.2-2019.12-x86_64-arm-none-eabi/bin/../lib/gcc/arm-none-eabi/9.2.1/../../../../arm-none-eabi/lib/thumb/v8-a+simd/hard/libstdc++.a(eh_type.o)
                0x000000000006dc54                __cxa_current_exception_type
 .text          0x000000000006dc70        0x0 /home/olf/projects/circle/gcc-arm-9.2-2019.12-x86_64-arm-none-eabi/bin/../lib/gcc/arm-none-eabi/9.2.1/../../../../arm-none-eabi/lib/thumb/v8-a+simd/hard/libstdc++.a(new_handler.o)
 .text._ZSt15set_new_handlerPFvvE
                0x000000000006dc70       0x18 /home/olf/projects/circle/gcc-arm-9.2-2019.12-x86_64-arm-none-eabi/bin/../lib/gcc/arm-none-eabi/9.2.1/../../../../arm-none-eabi/lib/thumb/v8-a+simd/hard/libstdc++.a(new_handler.o)
                0x000000000006dc70                std::set_new_handler(void (*)())
 .text._ZSt15get_new_handlerv
                0x000000000006dc88       0x10 /home/olf/projects/circle/gcc-arm-9.2-2019.12-x86_64-arm-none-eabi/bin/../lib/gcc/arm-none-eabi/9.2.1/../../../../arm-none-eabi/lib/thumb/v8-a+simd/hard/libstdc++.a(new_handler.o)
                0x000000000006dc88                std::get_new_handler()
 .text          0x000000000006dc98       0xa0 /home/olf/projects/circle/gcc-arm-9.2-2019.12-x86_64-arm-none-eabi/bin/../lib/gcc/arm-none-eabi/9.2.1/thumb/v8-a+simd/hard/libgcc.a(_aeabi_ldivmod.o)
                0x000000000006dc98                __aeabi_ldivmod
 .text          0x000000000006dd38       0x30 /home/olf/projects/circle/gcc-arm-9.2-2019.12-x86_64-arm-none-eabi/bin/../lib/gcc/arm-none-eabi/9.2.1/thumb/v8-a+simd/hard/libgcc.a(_aeabi_uldivmod.o)
                0x000000000006dd38                __aeabi_uldivmod
 .text          0x000000000006dd68        0x0 /home/olf/projects/circle/gcc-arm-9.2-2019.12-x86_64-arm-none-eabi/bin/../lib/gcc/arm-none-eabi/9.2.1/thumb/v8-a+simd/hard/libgcc.a(_udivmoddi4.o)
 .text.__udivmoddi4
                0x000000000006dd68      0x348 /home/olf/projects/circle/gcc-arm-9.2-2019.12-x86_64-arm-none-eabi/bin/../lib/gcc/arm-none-eabi/9.2.1/thumb/v8-a+simd/hard/libgcc.a(_udivmoddi4.o)
                0x000000000006dd68                __udivmoddi4
 .text          0x000000000006e0b0        0x0 /home/olf/projects/circle/gcc-arm-9.2-2019.12-x86_64-arm-none-eabi/bin/../lib/gcc/arm-none-eabi/9.2.1/thumb/v8-a+simd/hard/libgcc.a(unwind-arm.o)
 .text.selfrel_offset31
                0x000000000006e0b0       0x18 /home/olf/projects/circle/gcc-arm-9.2-2019.12-x86_64-arm-none-eabi/bin/../lib/gcc/arm-none-eabi/9.2.1/thumb/v8-a+simd/hard/libgcc.a(unwind-arm.o)
 .text.search_EIT_table
                0x000000000006e0c8       0x64 /home/olf/projects/circle/gcc-arm-9.2-2019.12-x86_64-arm-none-eabi/bin/../lib/gcc/arm-none-eabi/9.2.1/thumb/v8-a+simd/hard/libgcc.a(unwind-arm.o)
 .text.__gnu_unwind_get_pr_addr
                0x000000000006e12c       0x2c /home/olf/projects/circle/gcc-arm-9.2-2019.12-x86_64-arm-none-eabi/bin/../lib/gcc/arm-none-eabi/9.2.1/thumb/v8-a+simd/hard/libgcc.a(unwind-arm.o)
 .text.get_eit_entry
                0x000000000006e158       0xa4 /home/olf/projects/circle/gcc-arm-9.2-2019.12-x86_64-arm-none-eabi/bin/../lib/gcc/arm-none-eabi/9.2.1/thumb/v8-a+simd/hard/libgcc.a(unwind-arm.o)
 .text.restore_non_core_regs
                0x000000000006e1fc       0x58 /home/olf/projects/circle/gcc-arm-9.2-2019.12-x86_64-arm-none-eabi/bin/../lib/gcc/arm-none-eabi/9.2.1/thumb/v8-a+simd/hard/libgcc.a(unwind-arm.o)
 .text._Unwind_decode_typeinfo_ptr.isra.0
                0x000000000006e254        0xc /home/olf/projects/circle/gcc-arm-9.2-2019.12-x86_64-arm-none-eabi/bin/../lib/gcc/arm-none-eabi/9.2.1/thumb/v8-a+simd/hard/libgcc.a(unwind-arm.o)
 .text.__gnu_unwind_24bit.isra.0
                0x000000000006e260        0x4 /home/olf/projects/circle/gcc-arm-9.2-2019.12-x86_64-arm-none-eabi/bin/../lib/gcc/arm-none-eabi/9.2.1/thumb/v8-a+simd/hard/libgcc.a(unwind-arm.o)
 .text._Unwind_DebugHook
                0x000000000006e264        0x4 /home/olf/projects/circle/gcc-arm-9.2-2019.12-x86_64-arm-none-eabi/bin/../lib/gcc/arm-none-eabi/9.2.1/thumb/v8-a+simd/hard/libgcc.a(unwind-arm.o)
 .text.unwind_phase2
                0x000000000006e268       0x3c /home/olf/projects/circle/gcc-arm-9.2-2019.12-x86_64-arm-none-eabi/bin/../lib/gcc/arm-none-eabi/9.2.1/thumb/v8-a+simd/hard/libgcc.a(unwind-arm.o)
 .text.unwind_phase2_forced
                0x000000000006e2a4       0xdc /home/olf/projects/circle/gcc-arm-9.2-2019.12-x86_64-arm-none-eabi/bin/../lib/gcc/arm-none-eabi/9.2.1/thumb/v8-a+simd/hard/libgcc.a(unwind-arm.o)
 .text._Unwind_GetCFA
                0x000000000006e380        0x4 /home/olf/projects/circle/gcc-arm-9.2-2019.12-x86_64-arm-none-eabi/bin/../lib/gcc/arm-none-eabi/9.2.1/thumb/v8-a+simd/hard/libgcc.a(unwind-arm.o)
                0x000000000006e380                _Unwind_GetCFA
 .text.__gnu_Unwind_RaiseException
                0x000000000006e384       0x60 /home/olf/projects/circle/gcc-arm-9.2-2019.12-x86_64-arm-none-eabi/bin/../lib/gcc/arm-none-eabi/9.2.1/thumb/v8-a+simd/hard/libgcc.a(unwind-arm.o)
                0x000000000006e384                __gnu_Unwind_RaiseException
 .text.__gnu_Unwind_ForcedUnwind
                0x000000000006e3e4       0x18 /home/olf/projects/circle/gcc-arm-9.2-2019.12-x86_64-arm-none-eabi/bin/../lib/gcc/arm-none-eabi/9.2.1/thumb/v8-a+simd/hard/libgcc.a(unwind-arm.o)
                0x000000000006e3e4                __gnu_Unwind_ForcedUnwind
 .text.__gnu_Unwind_Resume
                0x000000000006e3fc       0x44 /home/olf/projects/circle/gcc-arm-9.2-2019.12-x86_64-arm-none-eabi/bin/../lib/gcc/arm-none-eabi/9.2.1/thumb/v8-a+simd/hard/libgcc.a(unwind-arm.o)
                0x000000000006e3fc                __gnu_Unwind_Resume
 .text.__gnu_Unwind_Resume_or_Rethrow
                0x000000000006e440       0x18 /home/olf/projects/circle/gcc-arm-9.2-2019.12-x86_64-arm-none-eabi/bin/../lib/gcc/arm-none-eabi/9.2.1/thumb/v8-a+simd/hard/libgcc.a(unwind-arm.o)
                0x000000000006e440                __gnu_Unwind_Resume_or_Rethrow
 .text._Unwind_Complete
                0x000000000006e458        0x4 /home/olf/projects/circle/gcc-arm-9.2-2019.12-x86_64-arm-none-eabi/bin/../lib/gcc/arm-none-eabi/9.2.1/thumb/v8-a+simd/hard/libgcc.a(unwind-arm.o)
                0x000000000006e458                _Unwind_Complete
 .text._Unwind_DeleteException
                0x000000000006e45c        0xc /home/olf/projects/circle/gcc-arm-9.2-2019.12-x86_64-arm-none-eabi/bin/../lib/gcc/arm-none-eabi/9.2.1/thumb/v8-a+simd/hard/libgcc.a(unwind-arm.o)
                0x000000000006e45c                _Unwind_DeleteException
 .text._Unwind_VRS_Get
                0x000000000006e468       0x3c /home/olf/projects/circle/gcc-arm-9.2-2019.12-x86_64-arm-none-eabi/bin/../lib/gcc/arm-none-eabi/9.2.1/thumb/v8-a+simd/hard/libgcc.a(unwind-arm.o)
                0x000000000006e468                _Unwind_VRS_Get
 .text._Unwind_GetGR
                0x000000000006e4a4       0x1c /home/olf/projects/circle/gcc-arm-9.2-2019.12-x86_64-arm-none-eabi/bin/../lib/gcc/arm-none-eabi/9.2.1/thumb/v8-a+simd/hard/libgcc.a(unwind-arm.o)
 .text._Unwind_VRS_Set
                0x000000000006e4c0       0x3c /home/olf/projects/circle/gcc-arm-9.2-2019.12-x86_64-arm-none-eabi/bin/../lib/gcc/arm-none-eabi/9.2.1/thumb/v8-a+simd/hard/libgcc.a(unwind-arm.o)
                0x000000000006e4c0                _Unwind_VRS_Set
 .text._Unwind_SetGR
                0x000000000006e4fc       0x1c /home/olf/projects/circle/gcc-arm-9.2-2019.12-x86_64-arm-none-eabi/bin/../lib/gcc/arm-none-eabi/9.2.1/thumb/v8-a+simd/hard/libgcc.a(unwind-arm.o)
 .text.__gnu_Unwind_Backtrace
                0x000000000006e518       0x78 /home/olf/projects/circle/gcc-arm-9.2-2019.12-x86_64-arm-none-eabi/bin/../lib/gcc/arm-none-eabi/9.2.1/thumb/v8-a+simd/hard/libgcc.a(unwind-arm.o)
                0x000000000006e518                __gnu_Unwind_Backtrace
 .text.__gnu_unwind_pr_common
                0x000000000006e590      0x2dc /home/olf/projects/circle/gcc-arm-9.2-2019.12-x86_64-arm-none-eabi/bin/../lib/gcc/arm-none-eabi/9.2.1/thumb/v8-a+simd/hard/libgcc.a(unwind-arm.o)
 .text.__aeabi_unwind_cpp_pr0
                0x000000000006e86c        0x8 /home/olf/projects/circle/gcc-arm-9.2-2019.12-x86_64-arm-none-eabi/bin/../lib/gcc/arm-none-eabi/9.2.1/thumb/v8-a+simd/hard/libgcc.a(unwind-arm.o)
                0x000000000006e86c                __aeabi_unwind_cpp_pr0
 .text.__aeabi_unwind_cpp_pr1
                0x000000000006e874        0x8 /home/olf/projects/circle/gcc-arm-9.2-2019.12-x86_64-arm-none-eabi/bin/../lib/gcc/arm-none-eabi/9.2.1/thumb/v8-a+simd/hard/libgcc.a(unwind-arm.o)
                0x000000000006e874                __aeabi_unwind_cpp_pr1
 .text.__aeabi_unwind_cpp_pr2
                0x000000000006e87c        0x8 /home/olf/projects/circle/gcc-arm-9.2-2019.12-x86_64-arm-none-eabi/bin/../lib/gcc/arm-none-eabi/9.2.1/thumb/v8-a+simd/hard/libgcc.a(unwind-arm.o)
                0x000000000006e87c                __aeabi_unwind_cpp_pr2
 .text._Unwind_VRS_Pop
                0x000000000006e884      0x2a4 /home/olf/projects/circle/gcc-arm-9.2-2019.12-x86_64-arm-none-eabi/bin/../lib/gcc/arm-none-eabi/9.2.1/thumb/v8-a+simd/hard/libgcc.a(unwind-arm.o)
                0x000000000006e884                _Unwind_VRS_Pop
 .text          0x000000000006eb28      0x1ac /home/olf/projects/circle/gcc-arm-9.2-2019.12-x86_64-arm-none-eabi/bin/../lib/gcc/arm-none-eabi/9.2.1/thumb/v8-a+simd/hard/libgcc.a(libunwind.o)
                0x000000000006eb28                __restore_core_regs
                0x000000000006eb28                restore_core_regs
                0x000000000006eb40                __gnu_Unwind_Restore_VFP
                0x000000000006eb48                __gnu_Unwind_Save_VFP
                0x000000000006eb50                __gnu_Unwind_Restore_VFP_D
                0x000000000006eb58                __gnu_Unwind_Save_VFP_D
                0x000000000006eb60                __gnu_Unwind_Restore_VFP_D_16_to_31
                0x000000000006eb68                __gnu_Unwind_Save_VFP_D_16_to_31
                0x000000000006eb70                __gnu_Unwind_Restore_WMMXD
                0x000000000006ebb4                __gnu_Unwind_Save_WMMXD
                0x000000000006ebf8                __gnu_Unwind_Restore_WMMXC
                0x000000000006ec0c                __gnu_Unwind_Save_WMMXC
                0x000000000006ec20                ___Unwind_RaiseException
                0x000000000006ec20                _Unwind_RaiseException
                0x000000000006ec44                ___Unwind_Resume
                0x000000000006ec44                _Unwind_Resume
                0x000000000006ec68                _Unwind_Resume_or_Rethrow
                0x000000000006ec68                ___Unwind_Resume_or_Rethrow
                0x000000000006ec8c                ___Unwind_ForcedUnwind
                0x000000000006ec8c                _Unwind_ForcedUnwind
                0x000000000006ecb0                _Unwind_Backtrace
                0x000000000006ecb0                ___Unwind_Backtrace
 .text          0x000000000006ecd4        0x0 /home/olf/projects/circle/gcc-arm-9.2-2019.12-x86_64-arm-none-eabi/bin/../lib/gcc/arm-none-eabi/9.2.1/thumb/v8-a+simd/hard/libgcc.a(pr-support.o)
 .text.next_unwind_byte
                0x000000000006ecd4       0x34 /home/olf/projects/circle/gcc-arm-9.2-2019.12-x86_64-arm-none-eabi/bin/../lib/gcc/arm-none-eabi/9.2.1/thumb/v8-a+simd/hard/libgcc.a(pr-support.o)
 .text._Unwind_GetGR.constprop.0
                0x000000000006ed08       0x1c /home/olf/projects/circle/gcc-arm-9.2-2019.12-x86_64-arm-none-eabi/bin/../lib/gcc/arm-none-eabi/9.2.1/thumb/v8-a+simd/hard/libgcc.a(pr-support.o)
 .text.unwind_UCB_from_context
                0x000000000006ed24        0x4 /home/olf/projects/circle/gcc-arm-9.2-2019.12-x86_64-arm-none-eabi/bin/../lib/gcc/arm-none-eabi/9.2.1/thumb/v8-a+simd/hard/libgcc.a(pr-support.o)
 .text.__gnu_unwind_execute
                0x000000000006ed28      0x2b8 /home/olf/projects/circle/gcc-arm-9.2-2019.12-x86_64-arm-none-eabi/bin/../lib/gcc/arm-none-eabi/9.2.1/thumb/v8-a+simd/hard/libgcc.a(pr-support.o)
                0x000000000006ed28                __gnu_unwind_execute
 .text.__gnu_unwind_frame
                0x000000000006efe0       0x2c /home/olf/projects/circle/gcc-arm-9.2-2019.12-x86_64-arm-none-eabi/bin/../lib/gcc/arm-none-eabi/9.2.1/thumb/v8-a+simd/hard/libgcc.a(pr-support.o)
                0x000000000006efe0                __gnu_unwind_frame
 .text._Unwind_GetRegionStart
                0x000000000006f00c        0xc /home/olf/projects/circle/gcc-arm-9.2-2019.12-x86_64-arm-none-eabi/bin/../lib/gcc/arm-none-eabi/9.2.1/thumb/v8-a+simd/hard/libgcc.a(pr-support.o)
                0x000000000006f00c                _Unwind_GetRegionStart
 .text._Unwind_GetLanguageSpecificData
                0x000000000006f018       0x14 /home/olf/projects/circle/gcc-arm-9.2-2019.12-x86_64-arm-none-eabi/bin/../lib/gcc/arm-none-eabi/9.2.1/thumb/v8-a+simd/hard/libgcc.a(pr-support.o)
                0x000000000006f018                _Unwind_GetLanguageSpecificData
 .text.unlikely._Unwind_GetDataRelBase
                0x000000000006f02c        0x6 /home/olf/projects/circle/gcc-arm-9.2-2019.12-x86_64-arm-none-eabi/bin/../lib/gcc/arm-none-eabi/9.2.1/thumb/v8-a+simd/hard/libgcc.a(pr-support.o)
                0x000000000006f02c                _Unwind_GetDataRelBase
 .text.unlikely._Unwind_GetTextRelBase
                0x000000000006f032        0x6 /home/olf/projects/circle/gcc-arm-9.2-2019.12-x86_64-arm-none-eabi/bin/../lib/gcc/arm-none-eabi/9.2.1/thumb/v8-a+simd/hard/libgcc.a(pr-support.o)
                0x000000000006f032                _Unwind_GetTextRelBase
 .text          0x000000000006f038        0x4 /home/olf/projects/circle/gcc-arm-9.2-2019.12-x86_64-arm-none-eabi/bin/../lib/gcc/arm-none-eabi/9.2.1/thumb/v8-a+simd/hard/libgcc.a(_dvmd_tls.o)
                0x000000000006f038                __aeabi_ldiv0
                0x000000000006f038                __aeabi_idiv0
 *fill*         0x000000000006f03c        0x4 
 .text.__stub   0x000000000006f040       0x18 linker stubs
                0x000000000006f058                _etext = .

.glue_7         0x000000000006f058        0x0
 .glue_7        0x000000000006f058        0x0 linker stubs

.glue_7t        0x000000000006f058        0x0
 .glue_7t       0x000000000006f058        0x0 linker stubs

.vfp11_veneer   0x000000000006f058        0x0
 .vfp11_veneer  0x000000000006f058        0x0 linker stubs

.v4_bx          0x000000000006f058        0x0
 .v4_bx         0x000000000006f058        0x0 linker stubs

.iplt           0x000000000006f058        0x0
 .iplt          0x000000000006f058        0x0 main.o

.rodata         0x000000000006f058    0x16495
 *(.rodata*)
 .rodata.str1.4
                0x000000000006f058       0xa9 kernel.o
 *fill*         0x000000000006f101        0x3 
 .rodata        0x000000000006f104        0x7 kernel.o
 *fill*         0x000000000006f10b        0x1 
 .rodata.str1.4
                0x000000000006f10c       0x2f ../../../addon/wlan/hostap/wpa_supplicant/libwpa_supplicant.a(wpasupplicant.o)
 *fill*         0x000000000006f13b        0x1 
 .rodata.str1.4
                0x000000000006f13c       0x54 ../../../addon/wlan/hostap/wpa_supplicant/libwpa_supplicant.a(os_circle.o)
                                         0x57 (size before relaxing)
 .rodata        0x000000000006f190        0x4 ../../../addon/wlan/hostap/wpa_supplicant/libwpa_supplicant.a(os_circle.o)
 .rodata.str1.4
                0x000000000006f194        0xe ../../../addon/wlan/hostap/wpa_supplicant/libwpa_supplicant.a(main_circle.o)
 *fill*         0x000000000006f1a2        0x2 
 .rodata.str1.4
                0x000000000006f1a4     0x19f0 ../../../addon/wlan/hostap/wpa_supplicant/libwpa_supplicant.a(wpa_supplicant.o)
                                       0x19fc (size before relaxing)
 .rodata        0x0000000000070b94       0x34 ../../../addon/wlan/hostap/wpa_supplicant/libwpa_supplicant.a(wpa_supplicant.o)
 .rodata.str1.4
                0x0000000000070bc8      0x3a3 ../../../addon/wlan/hostap/wpa_supplicant/libwpa_supplicant.a(wpas_glue.o)
                                        0x3b3 (size before relaxing)
 *fill*         0x0000000000070f6b        0x1 
 .rodata.str1.4
                0x0000000000070f6c      0x2bf ../../../addon/wlan/hostap/wpa_supplicant/libwpa_supplicant.a(driver_circle.o)
                                        0x2df (size before relaxing)
 *fill*         0x000000000007122b        0x1 
 .rodata        0x000000000007122c      0x3b8 ../../../addon/wlan/hostap/wpa_supplicant/libwpa_supplicant.a(driver_circle.o)
                0x000000000007146c                wpa_driver_circle_ops
 .rodata.str1.4
                0x00000000000715e4      0xd00 ../../../addon/wlan/hostap/wpa_supplicant/libwpa_supplicant.a(eapol_supp_sm.o)
                                        0xd04 (size before relaxing)
 .rodata        0x00000000000722e4        0xc ../../../addon/wlan/hostap/wpa_supplicant/libwpa_supplicant.a(eapol_supp_sm.o)
 .rodata.str1.4
                0x00000000000722f0      0xc01 ../../../addon/wlan/hostap/wpa_supplicant/libwpa_supplicant.a(eap.o)
                                        0xc55 (size before relaxing)
 *fill*         0x0000000000072ef1        0x3 
 .rodata        0x0000000000072ef4       0x20 ../../../addon/wlan/hostap/wpa_supplicant/libwpa_supplicant.a(eap.o)
 .rodata.str1.4
                0x0000000000072f14        0xd ../../../addon/wlan/hostap/wpa_supplicant/libwpa_supplicant.a(eap_methods.o)
 .rodata.str1.4
                0x0000000000072f14       0xa6 ../../../addon/wlan/hostap/wpa_supplicant/libwpa_supplicant.a(l2_packet_circle.o)
                                         0xd1 (size before relaxing)
 *fill*         0x0000000000072fba        0x2 
 .rodata.str1.4
                0x0000000000072fbc      0x228 ../../../addon/wlan/hostap/wpa_supplicant/libwpa_supplicant.a(pmksa_cache.o)
 .rodata.str1.4
                0x00000000000731e4      0x487 ../../../addon/wlan/hostap/wpa_supplicant/libwpa_supplicant.a(preauth.o)
                                        0x4b3 (size before relaxing)
 *fill*         0x000000000007366b        0x1 
 .rodata.str1.4
                0x000000000007366c     0x1667 ../../../addon/wlan/hostap/wpa_supplicant/libwpa_supplicant.a(wpa.o)
                                       0x167b (size before relaxing)
 *fill*         0x0000000000074cd3        0x1 
 .rodata        0x0000000000074cd4        0x8 ../../../addon/wlan/hostap/wpa_supplicant/libwpa_supplicant.a(wpa.o)
 .rodata.str1.4
                0x0000000000074cdc      0x228 ../../../addon/wlan/hostap/wpa_supplicant/libwpa_supplicant.a(wpa_ie.o)
 .rodata        0x0000000000074f04       0x15 ../../../addon/wlan/hostap/wpa_supplicant/libwpa_supplicant.a(wpa_ie.o)
 .rodata.str1.4
                0x0000000000074f19      0x228 ../../../addon/wlan/hostap/wpa_supplicant/libwpa_supplicant.a(common.o)
                                          0xd (size before relaxing)
 *fill*         0x0000000000074f19        0x3 
 .rodata.str1.4
                0x0000000000074f1c      0x163 ../../../addon/wlan/hostap/wpa_supplicant/libwpa_supplicant.a(wpa_debug.o)
                                        0x173 (size before relaxing)
 *fill*         0x000000000007507f        0x1 
 .rodata.str1.4
                0x0000000000075080       0x2f ../../../addon/wlan/hostap/wpa_supplicant/libwpa_supplicant.a(wpabuf.o)
 *fill*         0x00000000000750af        0x1 
 .rodata.str1.4
                0x00000000000750b0      0x103 ../../../addon/wlan/hostap/wpa_supplicant/libwpa_supplicant.a(blacklist.o)
 *fill*         0x00000000000751b3        0x1 
 .rodata.str1.4
                0x00000000000751b4      0x97f ../../../addon/wlan/hostap/wpa_supplicant/libwpa_supplicant.a(config.o)
                                        0xa03 (size before relaxing)
 *fill*         0x0000000000075b33        0x1 
 .rodata        0x0000000000075b34      0x800 ../../../addon/wlan/hostap/wpa_supplicant/libwpa_supplicant.a(config.o)
 .rodata.str1.4
                0x0000000000076334      0x5d0 ../../../addon/wlan/hostap/wpa_supplicant/libwpa_supplicant.a(config_file_circle.o)
                                        0x97c (size before relaxing)
 .rodata        0x0000000000076904       0xc8 ../../../addon/wlan/hostap/wpa_supplicant/libwpa_supplicant.a(config_file_circle.o)
 .rodata.str1.4
                0x00000000000769cc      0xa23 ../../../addon/wlan/hostap/wpa_supplicant/libwpa_supplicant.a(events.o)
                                        0xa33 (size before relaxing)
 *fill*         0x00000000000773ef        0x1 
 .rodata        0x00000000000773f0        0x7 ../../../addon/wlan/hostap/wpa_supplicant/libwpa_supplicant.a(events.o)
 *fill*         0x00000000000773f7        0x1 
 .rodata.str1.4
                0x00000000000773f8      0x280 ../../../addon/wlan/hostap/wpa_supplicant/libwpa_supplicant.a(scan.o)
 .rodata.str1.4
                0x0000000000077678      0x142 ../../../addon/wlan/hostap/wpa_supplicant/libwpa_supplicant.a(wpa_common.o)
                                        0x29a (size before relaxing)
 *fill*         0x00000000000777ba        0x2 
 .rodata        0x00000000000777bc       0x84 ../../../addon/wlan/hostap/wpa_supplicant/libwpa_supplicant.a(wpa_common.o)
 .rodata.str1.4
                0x0000000000077840       0x94 ../../../addon/wlan/hostap/wpa_supplicant/libwpa_supplicant.a(eap_common.o)
 .rodata        0x00000000000778d4       0x41 ../../../addon/wlan/hostap/wpa_supplicant/libwpa_supplicant.a(base64.o)
 *fill*         0x0000000000077915        0x3 
 .rodata        0x0000000000077918      0x90c ../../../addon/wlan/hostap/wpa_supplicant/libwpa_supplicant.a(aes-internal.o)
                0x0000000000077918                rcons
                0x0000000000077924                Te0
                0x0000000000077d24                Td4s
                0x0000000000077e24                Td0
 .rodata.str1.4
                0x0000000000078224        0x2 ../../../addon/wlan/hostap/wpa_supplicant/libwpa_supplicant.a(sha1-internal.o)
 *fill*         0x0000000000078226        0x2 
 .rodata        0x0000000000078228        0x2 ../../../addon/wlan/hostap/wpa_supplicant/libwpa_supplicant.a(sha1-internal.o)
 *fill*         0x000000000007822a        0x2 
 .rodata.str1.4
                0x000000000007822c      0x185 ../../../addon/wlan/libwlan.a(bcm4343.o)
                                        0x1a5 (size before relaxing)
 *fill*         0x00000000000783b1        0x3 
 .rodata._ZTS10CNetDevice
                0x00000000000783b4        0xd ../../../addon/wlan/libwlan.a(bcm4343.o)
                0x00000000000783b4                typeinfo name for CNetDevice
 *fill*         0x00000000000783c1        0x3 
 .rodata._ZTI10CNetDevice
                0x00000000000783c4        0x8 ../../../addon/wlan/libwlan.a(bcm4343.o)
                0x00000000000783c4                typeinfo for CNetDevice
 .rodata        0x00000000000783cc       0x50 ../../../addon/wlan/libwlan.a(bcm4343.o)
                0x00000000000783cc                vtable for CBcm4343Device
                0x00000000000783fc                typeinfo name for CBcm4343Device
                0x0000000000078410                typeinfo for CBcm4343Device
 .rodata.str1.4
                0x000000000007841c      0xd3a ../../../addon/wlan/libwlan.a(ether4330.o)
                                        0xdda (size before relaxing)
 *fill*         0x0000000000079156        0x2 
 .rodata        0x0000000000079158      0x2a8 ../../../addon/wlan/libwlan.a(ether4330.o)
 .rodata.str1.4
                0x0000000000079400      0x239 ../../../addon/wlan/libwlan.a(emmc.o)
                                        0x245 (size before relaxing)
 *fill*         0x0000000000079639        0x3 
 .rodata        0x000000000007963c      0x100 ../../../addon/wlan/libwlan.a(emmc.o)
 .rodata.str1.4
                0x000000000007973c       0x4e ../../../addon/wlan/libwlan.a(p9chan.o)
                                         0x78 (size before relaxing)
 *fill*         0x000000000007978a        0x2 
 .rodata.str1.4
                0x000000000007978c       0x44 ../../../addon/wlan/libwlan.a(p9cmd.o)
                                         0x51 (size before relaxing)
 .rodata.str1.4
                0x00000000000797d0       0x2b ../../../addon/wlan/libwlan.a(p9error.o)
                                         0x37 (size before relaxing)
 *fill*         0x00000000000797fb        0x1 
 .rodata.str1.4
                0x00000000000797fc       0x77 ../../../addon/wlan/libwlan.a(p9ether.o)
                                         0x83 (size before relaxing)
 *fill*         0x0000000000079873        0x1 
 .rodata.str1.4
                0x0000000000079874       0x27 ../../../addon/wlan/libwlan.a(p9proc.o)
                                         0x2b (size before relaxing)
 *fill*         0x000000000007989b        0x1 
 .rodata._ZTS6CKProc
                0x000000000007989c        0x8 ../../../addon/wlan/libwlan.a(p9proc.o)
                0x000000000007989c                typeinfo name for CKProc
 .rodata._ZTI6CKProc
                0x00000000000798a4        0xc ../../../addon/wlan/libwlan.a(p9proc.o)
                0x00000000000798a4                typeinfo for CKProc
 .rodata._ZTV6CKProc
                0x00000000000798b0       0x14 ../../../addon/wlan/libwlan.a(p9proc.o)
                0x00000000000798b0                vtable for CKProc
 .rodata.str1.4
                0x00000000000798c4       0x16 ../../../addon/wlan/libwlan.a(p9util.o)
                                         0x1a (size before relaxing)
 *fill*         0x00000000000798da        0x2 
 .rodata        0x00000000000798dc        0x5 ../../../addon/wlan/libwlan.a(p9util.o)
 *fill*         0x00000000000798e1        0x3 
 .rodata.str1.4
                0x00000000000798e4       0x35 ../../../addon/fatfs/libfatfs.a(ff.o)
 *fill*         0x0000000000079919        0x3 
 .rodata        0x000000000007991c       0xb2 ../../../addon/fatfs/libfatfs.a(ff.o)
 *fill*         0x00000000000799ce        0x2 
 .rodata.str1.4
                0x00000000000799d0       0x36 ../../../addon/fatfs/libfatfs.a(diskio.o)
 *fill*         0x0000000000079a06        0x2 
 .rodata        0x0000000000079a08       0x10 ../../../addon/fatfs/libfatfs.a(diskio.o)
 .rodata.str1.4
                0x0000000000079a18       0x1f ../../../addon/fatfs/libfatfs.a(ffsystem.o)
 *fill*         0x0000000000079a37        0x1 
 .rodata        0x0000000000079a38      0x3b0 ../../../addon/fatfs/libfatfs.a(ffunicode.o)
 .rodata        0x0000000000079de8      0x9be ../../../addon/SDCard/libsdcard.a(emmc.o)
                0x0000000000079e1c                CEMMCDevice::sd_commands
                0x0000000000079f1c                CEMMCDevice::sd_acommands
                0x000000000007a01c                vtable for CEMMCDevice
                0x000000000007a78c                typeinfo for CEMMCDevice
                0x000000000007a798                typeinfo name for CEMMCDevice
 *fill*         0x000000000007a7a6        0x2 
 .rodata.str1.4
                0x000000000007a7a8       0x49 ../../../lib/net/libnet.a(netsubsystem.o)
                                         0x5d (size before relaxing)
 *fill*         0x000000000007a7f1        0x3 
 .rodata.str1.4
                0x000000000007a7f4       0x21 ../../../lib/net/libnet.a(nettask.o)
 *fill*         0x000000000007a815        0x3 
 .rodata        0x000000000007a818       0x2c ../../../lib/net/libnet.a(nettask.o)
                0x000000000007a818                vtable for CNetTask
                0x000000000007a82c                typeinfo name for CNetTask
                0x000000000007a838                typeinfo for CNetTask
 .rodata.str1.4
                0x000000000007a844       0xa8 ../../../lib/net/libnet.a(transportlayer.o)
                                         0xb5 (size before relaxing)
 .rodata.str1.4
                0x000000000007a8ec      0x119 ../../../lib/net/libnet.a(networklayer.o)
                                        0x15d (size before relaxing)
 *fill*         0x000000000007aa05        0x3 
 .rodata.str1.4
                0x000000000007aa08       0xeb ../../../lib/net/libnet.a(linklayer.o)
                                        0x153 (size before relaxing)
 *fill*         0x000000000007aaf3        0x1 
 .rodata.str1.4
                0x000000000007aaf4       0x77 ../../../lib/net/libnet.a(netdevlayer.o)
                                         0x97 (size before relaxing)
 *fill*         0x000000000007ab6b        0x1 
 .rodata        0x000000000007ab6c        0x7 ../../../lib/net/libnet.a(netdevlayer.o)
 *fill*         0x000000000007ab73        0x1 
 .rodata.str1.4
                0x000000000007ab74        0xc ../../../lib/net/libnet.a(phytask.o)
                                         0x1b (size before relaxing)
 .rodata        0x000000000007ab80       0x2c ../../../lib/net/libnet.a(phytask.o)
                0x000000000007ab80                vtable for CPHYTask
                0x000000000007ab94                typeinfo name for CPHYTask
                0x000000000007aba0                typeinfo for CPHYTask
 .rodata.str1.4
                0x000000000007abac       0xa2 ../../../lib/net/libnet.a(arphandler.o)
                                        0x116 (size before relaxing)
 *fill*         0x000000000007ac4e        0x2 
 .rodata.str1.4
                0x000000000007ac50      0x266 ../../../lib/net/libnet.a(icmphandler.o)
                                        0x2b2 (size before relaxing)
 *fill*         0x000000000007aeb6        0x2 
 .rodata        0x000000000007aeb8        0x5 ../../../lib/net/libnet.a(icmphandler.o)
 *fill*         0x000000000007aebd        0x3 
 .rodata.str1.4
                0x000000000007aec0       0x3c ../../../lib/net/libnet.a(routecache.o)
 .rodata.str1.4
                0x000000000007aefc       0x24 ../../../lib/net/libnet.a(netconnection.o)
                                         0x50 (size before relaxing)
 .rodata        0x000000000007af20       0x60 ../../../lib/net/libnet.a(netconnection.o)
                0x000000000007af20                vtable for CNetConnection
                0x000000000007af64                typeinfo name for CNetConnection
                0x000000000007af78                typeinfo for CNetConnection
 .rodata.str1.4
                0x000000000007af80       0x25 ../../../lib/net/libnet.a(udpconnection.o)
                                         0x6d (size before relaxing)
 *fill*         0x000000000007afa5        0x3 
 .rodata        0x000000000007afa8       0x64 ../../../lib/net/libnet.a(udpconnection.o)
                0x000000000007afa8                vtable for CUDPConnection
                0x000000000007afec                typeinfo name for CUDPConnection
                0x000000000007b000                typeinfo for CUDPConnection
 .rodata.str1.4
                0x000000000007b00c      0x236 ../../../lib/net/libnet.a(tcpconnection.o)
                                        0x2d2 (size before relaxing)
 *fill*         0x000000000007b242        0x2 
 .rodata        0x000000000007b244       0x94 ../../../lib/net/libnet.a(tcpconnection.o)
                0x000000000007b244                vtable for CTCPConnection
                0x000000000007b2b8                typeinfo name for CTCPConnection
                0x000000000007b2cc                typeinfo for CTCPConnection
 .rodata.str1.4
                0x000000000007b2d8       0xb0 ../../../lib/net/libnet.a(retransmissionqueue.o)
                                         0xc4 (size before relaxing)
 .rodata.str1.4
                0x000000000007b388       0x17 ../../../lib/net/libnet.a(retranstimeoutcalc.o)
                                         0x26 (size before relaxing)
 *fill*         0x000000000007b39f        0x1 
 .rodata.str1.4
                0x000000000007b3a0       0x29 ../../../lib/net/libnet.a(tcprejector.o)
                                         0x66 (size before relaxing)
 *fill*         0x000000000007b3c9        0x3 
 .rodata        0x000000000007b3cc       0x60 ../../../lib/net/libnet.a(tcprejector.o)
                0x000000000007b3cc                vtable for CTCPRejector
                0x000000000007b410                typeinfo name for CTCPRejector
                0x000000000007b420                typeinfo for CTCPRejector
 .rodata        0x000000000007b42c        0x4 ../../../lib/net/libnet.a(netconfig.o)
 .rodata.str1.4
                0x000000000007b430       0x8e ../../../lib/net/libnet.a(ipaddress.o)
                                         0x9e (size before relaxing)
 *fill*         0x000000000007b4be        0x2 
 .rodata.str1.4
                0x000000000007b4c0       0x71 ../../../lib/net/libnet.a(netqueue.o)
                                         0xb9 (size before relaxing)
 *fill*         0x000000000007b531        0x3 
 .rodata.str1.4
                0x000000000007b534       0x3a ../../../lib/net/libnet.a(checksumcalculator.o)
                                         0x55 (size before relaxing)
 *fill*         0x000000000007b56e        0x2 
 .rodata.str1.4
                0x000000000007b570      0x336 ../../../lib/net/libnet.a(dhcpclient.o)
                                        0x38e (size before relaxing)
 *fill*         0x000000000007b8a6        0x2 
 .rodata        0x000000000007b8a8       0x60 ../../../lib/net/libnet.a(dhcpclient.o)
                0x000000000007b8b0                vtable for CDHCPClient
                0x000000000007b8dc                CDHCPClient::s_TimeoutHZ
                0x000000000007b8ec                typeinfo name for CDHCPClient
                0x000000000007b8fc                typeinfo for CDHCPClient
 .rodata.str1.4
                0x000000000007b908       0x6a ../../../lib/net/libnet.a(ntpdaemon.o)
                                         0x82 (size before relaxing)
 *fill*         0x000000000007b972        0x2 
 .rodata        0x000000000007b974       0x38 ../../../lib/net/libnet.a(ntpdaemon.o)
                0x000000000007b97c                vtable for CNTPDaemon
                0x000000000007b990                typeinfo name for CNTPDaemon
                0x000000000007b9a0                typeinfo for CNTPDaemon
 .rodata.str1.4
                0x000000000007b9ac       0xd9 ../../../lib/net/libnet.a(socket.o)
                                        0x121 (size before relaxing)
 *fill*         0x000000000007ba85        0x3 
 .rodata        0x000000000007ba88       0x54 ../../../lib/net/libnet.a(socket.o)
                0x000000000007ba88                vtable for CSocket
                0x000000000007bac4                typeinfo name for CSocket
                0x000000000007bad0                typeinfo for CSocket
 .rodata.str1.4
                0x000000000007badc       0x8d ../../../lib/net/libnet.a(dnsclient.o)
                                         0xa9 (size before relaxing)
 *fill*         0x000000000007bb69        0x3 
 .rodata.str1.4
                0x000000000007bb6c       0x4b ../../../lib/net/libnet.a(ntpclient.o)
                                         0x63 (size before relaxing)
 *fill*         0x000000000007bbb7        0x1 
 .rodata        0x000000000007bbb8        0x4 ../../../lib/net/libnet.a(ntpclient.o)
 .rodata.str1.4
                0x000000000007bbbc       0x40 ../../../lib/net/libnet.a(netsocket.o)
                                         0x6b (size before relaxing)
 .rodata        0x000000000007bbfc       0x60 ../../../lib/net/libnet.a(netsocket.o)
                0x000000000007bc08                vtable for CNetSocket
                0x000000000007bc44                typeinfo name for CNetSocket
                0x000000000007bc54                typeinfo for CNetSocket
 .rodata.str1.4
                0x000000000007bc5c       0x6c ../../../lib/sched/libsched.a(task.o)
                                         0x7c (size before relaxing)
 .rodata        0x000000000007bcc8       0x24 ../../../lib/sched/libsched.a(task.o)
                0x000000000007bcc8                vtable for CTask
                0x000000000007bcdc                typeinfo name for CTask
                0x000000000007bce4                typeinfo for CTask
 .rodata.str1.4
                0x000000000007bcec      0x14a ../../../lib/sched/libsched.a(scheduler.o)
                                        0x179 (size before relaxing)
 *fill*         0x000000000007be36        0x2 
 .rodata        0x000000000007be38        0x6 ../../../lib/sched/libsched.a(scheduler.o)
 *fill*         0x000000000007be3e        0x2 
 .rodata.str1.4
                0x000000000007be40       0x39 ../../../lib/sched/libsched.a(synchronizationevent.o)
 *fill*         0x000000000007be79        0x3 
 .rodata        0x000000000007be7c      0x332 ../../../lib/usb/libusb.a(xhcidevice.o)
                0x000000000007be84                vtable for CXHCIDevice
                0x000000000007c194                typeinfo for CXHCIDevice
                0x000000000007c1a0                typeinfo name for CXHCIDevice
 *fill*         0x000000000007c1ae        0x2 
 .rodata.str1.4
                0x000000000007c1b0      0x2d3 ../../../lib/usb/libusb.a(xhciendpoint.o)
                                        0x31b (size before relaxing)
 *fill*         0x000000000007c483        0x1 
 .rodata        0x000000000007c484        0x7 ../../../lib/usb/libusb.a(xhciendpoint.o)
 *fill*         0x000000000007c48b        0x1 
 .rodata.str1.4
                0x000000000007c48c       0xd3 ../../../lib/usb/libusb.a(xhcieventmanager.o)
                                         0xe7 (size before relaxing)
 *fill*         0x000000000007c55f        0x1 
 .rodata        0x000000000007c560        0x8 ../../../lib/usb/libusb.a(xhcieventmanager.o)
 .rodata.str1.4
                0x000000000007c568       0x48 ../../../lib/usb/libusb.a(xhcimmiospace.o)
 .rodata.str1.4
                0x000000000007c5b0      0x1a6 ../../../lib/usb/libusb.a(xhciring.o)
 *fill*         0x000000000007c756        0x2 
 .rodata        0x000000000007c758        0x9 ../../../lib/usb/libusb.a(xhciring.o)
 *fill*         0x000000000007c761        0x3 
 .rodata.str1.4
                0x000000000007c764       0x39 ../../../lib/usb/libusb.a(xhciroothub.o)
 *fill*         0x000000000007c79d        0x3 
 .rodata.str1.4
                0x000000000007c7a0      0x10e ../../../lib/usb/libusb.a(xhcirootport.o)
                                        0x132 (size before relaxing)
 *fill*         0x000000000007c8ae        0x2 
 .rodata._ZTS15CUSBHCIRootPort
                0x000000000007c8b0       0x12 ../../../lib/usb/libusb.a(xhcirootport.o)
                0x000000000007c8b0                typeinfo name for CUSBHCIRootPort
 *fill*         0x000000000007c8c2        0x2 
 .rodata._ZTI15CUSBHCIRootPort
                0x000000000007c8c4        0x8 ../../../lib/usb/libusb.a(xhcirootport.o)
                0x000000000007c8c4                typeinfo for CUSBHCIRootPort
 .rodata        0x000000000007c8cc       0x48 ../../../lib/usb/libusb.a(xhcirootport.o)
                0x000000000007c8cc                vtable for CXHCIRootPort
                0x000000000007c8f8                typeinfo name for CXHCIRootPort
                0x000000000007c908                typeinfo for CXHCIRootPort
 .rodata.str1.4
                0x000000000007c914      0x1c6 ../../../lib/usb/libusb.a(xhcisharedmemallocator.o)
                                        0x1d2 (size before relaxing)
 *fill*         0x000000000007cada        0x2 
 .rodata        0x000000000007cadc        0xa ../../../lib/usb/libusb.a(xhcisharedmemallocator.o)
 *fill*         0x000000000007cae6        0x2 
 .rodata.str1.4
                0x000000000007cae8       0xe6 ../../../lib/usb/libusb.a(xhcislotmanager.o)
 *fill*         0x000000000007cbce        0x2 
 .rodata.str1.4
                0x000000000007cbd0      0x173 ../../../lib/usb/libusb.a(xhciusbdevice.o)
                                        0x1d7 (size before relaxing)
 *fill*         0x000000000007cd43        0x1 
 .rodata        0x000000000007cd44       0x44 ../../../lib/usb/libusb.a(xhciusbdevice.o)
                0x000000000007cd44                vtable for CXHCIUSBDevice
                0x000000000007cd68                typeinfo name for CXHCIUSBDevice
                0x000000000007cd7c                typeinfo for CXHCIUSBDevice
 .rodata.str1.4
                0x000000000007cd88      0x36e ../../../lib/usb/libusb.a(usbdevice.o)
                                        0x38a (size before relaxing)
 *fill*         0x000000000007d0f6        0x2 
 .rodata        0x000000000007d0f8       0x3c ../../../lib/usb/libusb.a(usbdevice.o)
                0x000000000007d0f8                vtable for CUSBDevice
                0x000000000007d11c                typeinfo name for CUSBDevice
                0x000000000007d12c                typeinfo for CUSBDevice
 .rodata.str1.4
                0x000000000007d134      0x16e ../../../lib/usb/libusb.a(usbdevicefactory.o)
                                        0x17a (size before relaxing)
 *fill*         0x000000000007d2a2        0x2 
 .rodata.str1.4
                0x000000000007d2a4       0x25 ../../../lib/usb/libusb.a(usbendpoint.o)
                                         0x95 (size before relaxing)
 *fill*         0x000000000007d2c9        0x3 
 .rodata.str1.4
                0x000000000007d2cc       0x9d ../../../lib/usb/libusb.a(usbfunction.o)
                                         0xcd (size before relaxing)
 *fill*         0x000000000007d369        0x3 
 .rodata        0x000000000007d36c       0x54 ../../../lib/usb/libusb.a(usbfunction.o)
                0x000000000007d36c                vtable for CUSBFunction
                0x000000000007d3a4                typeinfo name for CUSBFunction
                0x000000000007d3b4                typeinfo for CUSBFunction
 .rodata.str1.4
                0x000000000007d3c0       0x7d ../../../lib/usb/libusb.a(usbgamepadps3.o)
                                         0x81 (size before relaxing)
 *fill*         0x000000000007d43d        0x3 
 .rodata        0x000000000007d440       0xec ../../../lib/usb/libusb.a(usbgamepadps3.o)
                0x000000000007d440                vtable for CUSBGamePadPS3Device
                0x000000000007d49c                CUSBGamePadPS3Device::s_CommandDefault
                0x000000000007d508                typeinfo name for CUSBGamePadPS3Device
                0x000000000007d520                typeinfo for CUSBGamePadPS3Device
 .rodata.str1.4
                0x000000000007d52c       0x47 ../../../lib/usb/libusb.a(usbgamepadps4.o)
                                         0x68 (size before relaxing)
 *fill*         0x000000000007d573        0x1 
 .rodata        0x000000000007d574       0xa4 ../../../lib/usb/libusb.a(usbgamepadps4.o)
                0x000000000007d598                vtable for CUSBGamePadPS4Device
                0x000000000007d5f4                typeinfo name for CUSBGamePadPS4Device
                0x000000000007d60c                typeinfo for CUSBGamePadPS4Device
 .rodata.str1.4
                0x000000000007d618       0x6c ../../../lib/usb/libusb.a(usbgamepadstandard.o)
                                         0x8c (size before relaxing)
 .rodata        0x000000000007d684       0x84 ../../../lib/usb/libusb.a(usbgamepadstandard.o)
                0x000000000007d684                vtable for CUSBGamePadStandardDevice
                0x000000000007d6e0                typeinfo name for CUSBGamePadStandardDevice
                0x000000000007d6fc                typeinfo for CUSBGamePadStandardDevice
 .rodata.str1.4
                0x000000000007d708       0xfa ../../../lib/usb/libusb.a(usbgamepadswitchpro.o)
                                        0x11a (size before relaxing)
 *fill*         0x000000000007d802        0x2 
 .rodata        0x000000000007d804      0x10c ../../../lib/usb/libusb.a(usbgamepadswitchpro.o)
                0x000000000007d804                vtable for CUSBGamePadSwitchProDevice
                0x000000000007d8e4                typeinfo name for CUSBGamePadSwitchProDevice
                0x000000000007d904                typeinfo for CUSBGamePadSwitchProDevice
 .rodata.str1.4
                0x000000000007d910       0x39 ../../../lib/usb/libusb.a(usbgamepadxbox360.o)
                                         0x70 (size before relaxing)
 *fill*         0x000000000007d949        0x3 
 .rodata        0x000000000007d94c       0xe8 ../../../lib/usb/libusb.a(usbgamepadxbox360.o)
                0x000000000007d94c                vtable for CUSBGamePadXbox360Device
                0x000000000007da0c                typeinfo name for CUSBGamePadXbox360Device
                0x000000000007da28                typeinfo for CUSBGamePadXbox360Device
 .rodata.str1.4
                0x000000000007da34       0x42 ../../../lib/usb/libusb.a(usbgamepadxboxone.o)
                                         0x66 (size before relaxing)
 *fill*         0x000000000007da76        0x2 
 .rodata        0x000000000007da78      0x148 ../../../lib/usb/libusb.a(usbgamepadxboxone.o)
                0x000000000007da78                vtable for CUSBGamePadXboxOneDevice
                0x000000000007db98                typeinfo name for CUSBGamePadXboxOneDevice
                0x000000000007dbb4                typeinfo for CUSBGamePadXboxOneDevice
 .rodata.str1.4
                0x000000000007dbc0       0xf7 ../../../lib/usb/libusb.a(usbhiddevice.o)
                                        0x143 (size before relaxing)
 *fill*         0x000000000007dcb7        0x1 
 .rodata        0x000000000007dcb8       0x58 ../../../lib/usb/libusb.a(usbhiddevice.o)
                0x000000000007dcc0                vtable for CUSBHIDDevice
                0x000000000007dcf4                typeinfo name for CUSBHIDDevice
                0x000000000007dd04                typeinfo for CUSBHIDDevice
 .rodata.str1.4
                0x000000000007dd10       0x5e ../../../lib/usb/libusb.a(usbhostcontroller.o)
                                         0x89 (size before relaxing)
 *fill*         0x000000000007dd6e        0x2 
 .rodata        0x000000000007dd70       0x3c ../../../lib/usb/libusb.a(usbhostcontroller.o)
                0x000000000007dd70                vtable for CUSBHostController
                0x000000000007dd8c                typeinfo name for CUSBHostController
                0x000000000007dda4                typeinfo for CUSBHostController
 .rodata.str1.4
                0x000000000007ddac       0x5e ../../../lib/usb/libusb.a(usbkeyboard.o)
 *fill*         0x000000000007de0a        0x2 
 .rodata        0x000000000007de0c       0x68 ../../../lib/usb/libusb.a(usbkeyboard.o)
                0x000000000007de0c                vtable for CUSBKeyboardDevice
                0x000000000007de50                typeinfo name for CUSBKeyboardDevice
                0x000000000007de68                typeinfo for CUSBKeyboardDevice
 .rodata        0x000000000007de74      0x324 ../../../lib/usb/libusb.a(usbmassdevice.o)
                0x000000000007de7c                vtable for CUSBBulkOnlyMassStorageDevice
                0x000000000007e16c                typeinfo for CUSBBulkOnlyMassStorageDevice
                0x000000000007e178                typeinfo name for CUSBBulkOnlyMassStorageDevice
 .rodata.str1.4
                0x000000000007e198       0xf1 ../../../lib/usb/libusb.a(usbmidi.o)
                                        0x13d (size before relaxing)
 *fill*         0x000000000007e289        0x3 
 .rodata        0x000000000007e28c       0xa0 ../../../lib/usb/libusb.a(usbmidi.o)
                0x000000000007e28c                vtable for CUSBMIDIDevice
                0x000000000007e30c                typeinfo name for CUSBMIDIDevice
                0x000000000007e320                typeinfo for CUSBMIDIDevice
 .rodata.str1.4
                0x000000000007e32c       0x40 ../../../lib/usb/libusb.a(usbmouse.o)
 .rodata        0x000000000007e32c       0x5c ../../../lib/usb/libusb.a(usbmouse.o)
                0x000000000007e32c                vtable for CUSBMouseDevice
                0x000000000007e368                typeinfo name for CUSBMouseDevice
                0x000000000007e37c                typeinfo for CUSBMouseDevice
 .rodata.str1.4
                0x000000000007e388       0x39 ../../../lib/usb/libusb.a(usbprinter.o)
                                         0x85 (size before relaxing)
 *fill*         0x000000000007e3c1        0x3 
 .rodata        0x000000000007e3c4       0x60 ../../../lib/usb/libusb.a(usbprinter.o)
                0x000000000007e3c4                vtable for CUSBPrinterDevice
                0x000000000007e404                typeinfo name for CUSBPrinterDevice
                0x000000000007e418                typeinfo for CUSBPrinterDevice
 .rodata.str1.4
                0x000000000007e424      0x114 ../../../lib/usb/libusb.a(usbrequest.o)
 .rodata.str1.4
                0x000000000007e538      0x381 ../../../lib/usb/libusb.a(usbstandardhub.o)
                                        0x3f1 (size before relaxing)
 *fill*         0x000000000007e8b9        0x3 
 .rodata        0x000000000007e8bc       0x60 ../../../lib/usb/libusb.a(usbstandardhub.o)
                0x000000000007e8bc                vtable for CUSBStandardHub
                0x000000000007e8fc                typeinfo name for CUSBStandardHub
                0x000000000007e910                typeinfo for CUSBStandardHub
 .rodata.str1.4
                0x000000000007e91c       0x95 ../../../lib/usb/libusb.a(xhcicommandmanager.o)
                                         0xd5 (size before relaxing)
 *fill*         0x000000000007e9b1        0x3 
 .rodata        0x000000000007e9b4        0x8 ../../../lib/usb/libusb.a(xhcicommandmanager.o)
 .rodata.str1.4
                0x000000000007e9bc      0x198 ../../../lib/usb/libusb.a(lan7800.o)
                                        0x1d4 (size before relaxing)
 .rodata        0x000000000007eb54       0xb8 ../../../lib/usb/libusb.a(lan7800.o)
                0x000000000007eb54                vtable for CLAN7800Device
                0x000000000007ebd8                typeinfo name for CLAN7800Device
                0x000000000007ebec                typeinfo for CLAN7800Device
 .rodata.str1.4
                0x000000000007ec0c      0x12c ../../../lib/usb/libusb.a(smsc951x.o)
                                        0x228 (size before relaxing)
 .rodata        0x000000000007ed38       0xbc ../../../lib/usb/libusb.a(smsc951x.o)
                0x000000000007ed38                vtable for CSMSC951xDevice
                0x000000000007edc0                typeinfo name for CSMSC951xDevice
                0x000000000007edd4                typeinfo for CSMSC951xDevice
 .rodata.str1.4
                0x000000000007edf4       0x8d ../../../lib/usb/libusb.a(usbbluetooth.o)
                                        0x109 (size before relaxing)
 *fill*         0x000000000007ee81        0x3 
 .rodata        0x000000000007ee84       0x60 ../../../lib/usb/libusb.a(usbbluetooth.o)
                0x000000000007ee84                vtable for CUSBBluetoothDevice
                0x000000000007eec0                typeinfo name for CUSBBluetoothDevice
                0x000000000007eed8                typeinfo for CUSBBluetoothDevice
 .rodata.str1.4
                0x000000000007eee4       0x24 ../../../lib/usb/libusb.a(usbcdcethernet.o)
                                         0xd9 (size before relaxing)
 .rodata        0x000000000007ef08       0xac ../../../lib/usb/libusb.a(usbcdcethernet.o)
                0x000000000007ef08                vtable for CUSBCDCEthernetDevice
                0x000000000007ef7c                typeinfo name for CUSBCDCEthernetDevice
                0x000000000007ef94                typeinfo for CUSBCDCEthernetDevice
 .rodata.str1.4
                0x000000000007efb4       0x8b ../../../lib/usb/libusb.a(usbconfigparser.o)
                                         0xb7 (size before relaxing)
 *fill*         0x000000000007f03f        0x1 
 .rodata.str1.4
                0x000000000007f040       0x3e ../../../lib/usb/libusb.a(usbgamepad.o)
                                         0x85 (size before relaxing)
 *fill*         0x000000000007f07e        0x2 
 .rodata        0x000000000007f080       0x80 ../../../lib/usb/libusb.a(usbgamepad.o)
                0x000000000007f090                vtable for CUSBGamePadDevice
                0x000000000007f0e0                typeinfo name for CUSBGamePadDevice
                0x000000000007f0f4                typeinfo for CUSBGamePadDevice
 .rodata.str1.4
                0x000000000007f100       0xa5 ../../../lib/usb/libusb.a(usbstring.o)
                                         0xc5 (size before relaxing)
 *fill*         0x000000000007f1a5        0x3 
 .rodata.str1.4
                0x000000000007f1a8       0x77 ../../../lib/input/libinput.a(keyboardbehaviour.o)
                                         0x93 (size before relaxing)
 *fill*         0x000000000007f21f        0x1 
 .rodata.str1.4
                0x000000000007f220      0x112 ../../../lib/input/libinput.a(keymap.o)
                                        0x14a (size before relaxing)
 *fill*         0x000000000007f332        0x2 
 .rodata        0x000000000007f334     0x1800 ../../../lib/input/libinput.a(keymap.o)
                0x000000000007f334                CKeyMap::s_DefaultMap
 .rodata.str1.4
                0x0000000000080b34        0xa ../../../lib/input/libinput.a(mouse.o)
                                         0x3a (size before relaxing)
 *fill*         0x0000000000080b3e        0x2 
 .rodata        0x0000000000080b40       0x4c ../../../lib/input/libinput.a(mouse.o)
                0x0000000000080b40                vtable for CMouseDevice
                0x0000000000080b70                typeinfo name for CMouseDevice
                0x0000000000080b80                typeinfo for CMouseDevice
 .rodata.str1.4
                0x0000000000080b8c       0xb6 ../../../lib/input/libinput.a(mousebehaviour.o)
                                         0xce (size before relaxing)
 *fill*         0x0000000000080c42        0x2 
 .rodata        0x0000000000080c44      0x400 ../../../lib/input/libinput.a(mousebehaviour.o)
 .rodata.str1.4
                0x0000000000081044       0x7d ../../../lib/fs/libfs.a(partitionmanager.o)
 *fill*         0x00000000000810c1        0x3 
 .rodata        0x00000000000810c4        0x6 ../../../lib/fs/libfs.a(partitionmanager.o)
 *fill*         0x00000000000810ca        0x2 
 .rodata.str1.4
                0x00000000000810cc        0xe ../../../lib/fs/libfs.a(partition.o)
                                         0x1f (size before relaxing)
 *fill*         0x00000000000810da        0x2 
 .rodata        0x00000000000810dc       0x3c ../../../lib/fs/libfs.a(partition.o)
                0x00000000000810dc                vtable for CPartition
                0x00000000000810fc                typeinfo name for CPartition
                0x000000000008110c                typeinfo for CPartition
 .rodata.str1.4
                0x0000000000081118       0x1d ../../../lib/libcircle.a(alloc.o)
 *fill*         0x0000000000081135        0x3 
 .rodata.str1.4
                0x0000000000081138       0x1d ../../../lib/libcircle.a(assert.o)
 *fill*         0x0000000000081155        0x3 
 .rodata        0x0000000000081158       0x97 ../../../lib/libcircle.a(bcmpropertytags.o)
 *fill*         0x00000000000811ef        0x1 
 .rodata.str1.4
                0x00000000000811f0       0xe1 ../../../lib/libcircle.a(classallocator.o)
                                         0xed (size before relaxing)
 *fill*         0x00000000000812d1        0x3 
 .rodata.str1.4
                0x00000000000812d4       0x93 ../../../lib/libcircle.a(debug.o)
 *fill*         0x0000000000081367        0x1 
 .rodata        0x0000000000081368        0x6 ../../../lib/libcircle.a(debug.o)
 *fill*         0x000000000008136e        0x2 
 .rodata        0x0000000000081370       0x34 ../../../lib/libcircle.a(device.o)
                0x0000000000081370                vtable for CDevice
                0x0000000000081390                typeinfo name for CDevice
                0x000000000008139c                typeinfo for CDevice
 .rodata.str1.4
                0x00000000000813a4       0x7f ../../../lib/libcircle.a(devicenameservice.o)
                                         0x96 (size before relaxing)
 *fill*         0x0000000000081423        0x1 
 .rodata        0x0000000000081424      0x387 ../../../lib/libcircle.a(dmachannel.o)
 *fill*         0x00000000000817ab        0x1 
 .rodata        0x00000000000817ac      0x306 ../../../lib/libcircle.a(gpiopin.o)
                0x00000000000817ac                vtable for CGPIOPin
                0x0000000000081aa0                typeinfo for CGPIOPin
                0x0000000000081aa8                typeinfo name for CGPIOPin
 *fill*         0x0000000000081ab2        0x2 
 .rodata.str1.4
                0x0000000000081ab4       0x9d ../../../lib/libcircle.a(koptions.o)
                                         0xa9 (size before relaxing)
 *fill*         0x0000000000081b51        0x3 
 .rodata        0x0000000000081b54       0x3d ../../../lib/libcircle.a(logger.o)
 *fill*         0x0000000000081b91        0x3 
 .rodata        0x0000000000081b94      0x233 ../../../lib/libcircle.a(machineinfo.o)
 *fill*         0x0000000000081dc7        0x1 
 .rodata.str1.4
                0x0000000000081dc8       0x95 ../../../lib/libcircle.a(ptrarray.o)
 *fill*         0x0000000000081e5d        0x3 
 .rodata.str1.4
                0x0000000000081e60      0x176 ../../../lib/libcircle.a(ptrlist.o)
 .rodata.str1.4
                0x0000000000081fd6        0x5 ../../../lib/libcircle.a(screen.o)
 *fill*         0x0000000000081fd6        0x2 
 .rodata        0x0000000000081fd8       0x64 ../../../lib/libcircle.a(screen.o)
                0x0000000000081fd8                CScreenDevice::m_AnsiColor
                0x0000000000081ff8                vtable for CScreenDevice
                0x0000000000082020                typeinfo for CScreenDevice
                0x000000000008202c                typeinfo name for CScreenDevice
 .rodata        0x000000000008203c      0x1ac ../../../lib/libcircle.a(serial.o)
                0x000000000008203c                vtable for CSerialDevice
                0x00000000000821cc                typeinfo for CSerialDevice
                0x00000000000821d8                typeinfo name for CSerialDevice
 .rodata.str1.4
                0x00000000000821e8       0x13 ../../../lib/libcircle.a(string.o)
                                         0x17 (size before relaxing)
 *fill*         0x00000000000821fb        0x1 
 .rodata        0x00000000000821fc       0x24 ../../../lib/libcircle.a(string.o)
                0x00000000000821fc                vtable for CString
                0x000000000008220c                typeinfo name for CString
                0x0000000000082218                typeinfo for CString
 .rodata.str1.4
                0x0000000000082220      0x190 ../../../lib/libcircle.a(timer.o)
                                        0x1d8 (size before relaxing)
 .rodata        0x00000000000823b0       0x36 ../../../lib/libcircle.a(timer.o)
                0x00000000000823b0                CTimer::s_nDaysOfMonth
 *fill*         0x00000000000823e6        0x2 
 .rodata        0x00000000000823e8       0x4a ../../../lib/libcircle.a(virtualgpiopin.o)
                0x00000000000823e8                vtable for CVirtualGPIOPin
                0x0000000000082418                typeinfo for CVirtualGPIOPin
                0x0000000000082420                typeinfo name for CVirtualGPIOPin
 *fill*         0x0000000000082432        0x2 
 .rodata.str1.4
                0x0000000000082434       0x2e ../../../lib/libcircle.a(macaddress.o)
                                         0x6a (size before relaxing)
 *fill*         0x0000000000082462        0x2 
 .rodata.str1.4
                0x0000000000082464       0x8f ../../../lib/libcircle.a(netdevice.o)
                                         0x97 (size before relaxing)
 *fill*         0x00000000000824f3        0x1 
 .rodata.str1.4
                0x00000000000824f4       0x7b ../../../lib/libcircle.a(heapallocator.o)
 *fill*         0x000000000008256f        0x1 
 .rodata        0x0000000000082570       0x48 ../../../lib/libcircle.a(pageallocator.o)
 .rodata.str1.4
                0x00000000000825b8       0x94 ../../../lib/libcircle.a(numberpool.o)
 .rodata.str1.4
                0x000000000008264c       0xaf ../../../lib/libcircle.a(exceptionhandler.o)
                                         0xe4 (size before relaxing)
 *fill*         0x00000000000826fb        0x1 
 .rodata        0x00000000000826fc        0x7 ../../../lib/libcircle.a(exceptionhandler.o)
 *fill*         0x0000000000082703        0x1 
 .rodata        0x0000000000082704       0x6e ../../../lib/libcircle.a(memory.o)
 *fill*         0x0000000000082772        0x2 
 .rodata.str1.4
                0x0000000000082774       0x1c ../../../lib/libcircle.a(pagetable.o)
 .rodata.str1.4
                0x0000000000082790       0xb5 ../../../lib/libcircle.a(synchronize.o)
 *fill*         0x0000000000082845        0x3 
 .rodata.str1.4
                0x0000000000082848      0x1b6 ../../../lib/libcircle.a(bcm54213.o)
                                        0x236 (size before relaxing)
 *fill*         0x00000000000829fe        0x2 
 .rodata        0x0000000000082a00       0x7c ../../../lib/libcircle.a(bcm54213.o)
                0x0000000000082a08                vtable for CBcm54213Device
                0x0000000000082a5c                typeinfo name for CBcm54213Device
                0x0000000000082a70                typeinfo for CBcm54213Device
 .rodata.str1.4
                0x0000000000082a7c      0x26c ../../../lib/libcircle.a(bcmpciehostbridge.o)
                                        0x28c (size before relaxing)
 .rodata        0x0000000000082ce8       0x28 ../../../lib/libcircle.a(bcmpciehostbridge.o)
 .rodata.str1.4
                0x0000000000082d10       0xeb ../../../lib/libcircle.a(interruptgic.o)
                                        0x10b (size before relaxing)
 *fill*         0x0000000000082dfb        0x1 
 .rodata        0x0000000000082dfc      0x333 ../../../lib/libcircle.a(dma4channel.o)
 *fill*         0x000000000008312f        0x1 
 .rodata.str1.4
                0x0000000000083130       0xd1 ../../../lib/libcircle.a(devicetreeblob.o)
                                         0xdd (size before relaxing)
 *fill*         0x0000000000083201        0x3 
 .rodata        0x0000000000083204        0x4 ../../../lib/libcircle.a(devicetreeblob.o)
 .rodata.str1.4
                0x0000000000083208       0x23 ../../../lib/libcircle.a(bcmmailbox.o)
 *fill*         0x000000000008322b        0x1 
 .rodata.str1.4
                0x000000000008322c       0x29 ../../../lib/libcircle.a(chargenerator.o)
 *fill*         0x0000000000083255        0x3 
 .rodata        0x0000000000083258      0xdf0 ../../../lib/libcircle.a(chargenerator.o)
 .rodata.str1.4
                0x0000000000084048       0x88 ../../../lib/libcircle.a(gpiomanager.o)
                                         0x9c (size before relaxing)
 .rodata._ZTIN10__cxxabiv117__class_type_infoE
                0x00000000000840d0        0xc /home/olf/projects/circle/gcc-arm-9.2-2019.12-x86_64-arm-none-eabi/bin/../lib/gcc/arm-none-eabi/9.2.1/../../../../arm-none-eabi/lib/thumb/v8-a+simd/hard/libstdc++.a(class_type_info.o)
                0x00000000000840d0                typeinfo for __cxxabiv1::__class_type_info
 .rodata._ZTSN10__cxxabiv117__class_type_infoE
                0x00000000000840dc       0x22 /home/olf/projects/circle/gcc-arm-9.2-2019.12-x86_64-arm-none-eabi/bin/../lib/gcc/arm-none-eabi/9.2.1/../../../../arm-none-eabi/lib/thumb/v8-a+simd/hard/libstdc++.a(class_type_info.o)
                0x00000000000840dc                typeinfo name for __cxxabiv1::__class_type_info
 *fill*         0x00000000000840fe        0x2 
 .rodata._ZTVN10__cxxabiv117__class_type_infoE
                0x0000000000084100       0x2c /home/olf/projects/circle/gcc-arm-9.2-2019.12-x86_64-arm-none-eabi/bin/../lib/gcc/arm-none-eabi/9.2.1/../../../../arm-none-eabi/lib/thumb/v8-a+simd/hard/libstdc++.a(class_type_info.o)
                0x0000000000084100                vtable for __cxxabiv1::__class_type_info
 .rodata._ZNKSt9exception4whatEv.str1.4
                0x000000000008412c        0xf /home/olf/projects/circle/gcc-arm-9.2-2019.12-x86_64-arm-none-eabi/bin/../lib/gcc/arm-none-eabi/9.2.1/../../../../arm-none-eabi/lib/thumb/v8-a+simd/hard/libstdc++.a(eh_exception.o)
 *fill*         0x000000000008413b        0x1 
 .rodata._ZNKSt13bad_exception4whatEv.str1.4
                0x000000000008413c       0x13 /home/olf/projects/circle/gcc-arm-9.2-2019.12-x86_64-arm-none-eabi/bin/../lib/gcc/arm-none-eabi/9.2.1/../../../../arm-none-eabi/lib/thumb/v8-a+simd/hard/libstdc++.a(eh_exception.o)
 *fill*         0x000000000008414f        0x1 
 .rodata._ZTIN10__cxxabiv115__forced_unwindE
                0x0000000000084150        0x8 /home/olf/projects/circle/gcc-arm-9.2-2019.12-x86_64-arm-none-eabi/bin/../lib/gcc/arm-none-eabi/9.2.1/../../../../arm-none-eabi/lib/thumb/v8-a+simd/hard/libstdc++.a(eh_exception.o)
                0x0000000000084150                typeinfo for __cxxabiv1::__forced_unwind
 .rodata._ZTIN10__cxxabiv119__foreign_exceptionE
                0x0000000000084158        0x8 /home/olf/projects/circle/gcc-arm-9.2-2019.12-x86_64-arm-none-eabi/bin/../lib/gcc/arm-none-eabi/9.2.1/../../../../arm-none-eabi/lib/thumb/v8-a+simd/hard/libstdc++.a(eh_exception.o)
                0x0000000000084158                typeinfo for __cxxabiv1::__foreign_exception
 .rodata._ZTISt13bad_exception
                0x0000000000084160        0xc /home/olf/projects/circle/gcc-arm-9.2-2019.12-x86_64-arm-none-eabi/bin/../lib/gcc/arm-none-eabi/9.2.1/../../../../arm-none-eabi/lib/thumb/v8-a+simd/hard/libstdc++.a(eh_exception.o)
                0x0000000000084160                typeinfo for std::bad_exception
 .rodata._ZTISt9exception
                0x000000000008416c        0x8 /home/olf/projects/circle/gcc-arm-9.2-2019.12-x86_64-arm-none-eabi/bin/../lib/gcc/arm-none-eabi/9.2.1/../../../../arm-none-eabi/lib/thumb/v8-a+simd/hard/libstdc++.a(eh_exception.o)
                0x000000000008416c                typeinfo for std::exception
 .rodata._ZTSN10__cxxabiv115__forced_unwindE
                0x0000000000084174       0x20 /home/olf/projects/circle/gcc-arm-9.2-2019.12-x86_64-arm-none-eabi/bin/../lib/gcc/arm-none-eabi/9.2.1/../../../../arm-none-eabi/lib/thumb/v8-a+simd/hard/libstdc++.a(eh_exception.o)
                0x0000000000084174                typeinfo name for __cxxabiv1::__forced_unwind
 .rodata._ZTSN10__cxxabiv119__foreign_exceptionE
                0x0000000000084194       0x24 /home/olf/projects/circle/gcc-arm-9.2-2019.12-x86_64-arm-none-eabi/bin/../lib/gcc/arm-none-eabi/9.2.1/../../../../arm-none-eabi/lib/thumb/v8-a+simd/hard/libstdc++.a(eh_exception.o)
                0x0000000000084194                typeinfo name for __cxxabiv1::__foreign_exception
 .rodata._ZTSSt13bad_exception
                0x00000000000841b8       0x12 /home/olf/projects/circle/gcc-arm-9.2-2019.12-x86_64-arm-none-eabi/bin/../lib/gcc/arm-none-eabi/9.2.1/../../../../arm-none-eabi/lib/thumb/v8-a+simd/hard/libstdc++.a(eh_exception.o)
                0x00000000000841b8                typeinfo name for std::bad_exception
 *fill*         0x00000000000841ca        0x2 
 .rodata._ZTSSt9exception
                0x00000000000841cc        0xd /home/olf/projects/circle/gcc-arm-9.2-2019.12-x86_64-arm-none-eabi/bin/../lib/gcc/arm-none-eabi/9.2.1/../../../../arm-none-eabi/lib/thumb/v8-a+simd/hard/libstdc++.a(eh_exception.o)
                0x00000000000841cc                typeinfo name for std::exception
 *fill*         0x00000000000841d9        0x3 
 .rodata._ZTVN10__cxxabiv115__forced_unwindE
                0x00000000000841dc       0x14 /home/olf/projects/circle/gcc-arm-9.2-2019.12-x86_64-arm-none-eabi/bin/../lib/gcc/arm-none-eabi/9.2.1/../../../../arm-none-eabi/lib/thumb/v8-a+simd/hard/libstdc++.a(eh_exception.o)
                0x00000000000841dc                vtable for __cxxabiv1::__forced_unwind
 .rodata._ZTVN10__cxxabiv119__foreign_exceptionE
                0x00000000000841f0       0x14 /home/olf/projects/circle/gcc-arm-9.2-2019.12-x86_64-arm-none-eabi/bin/../lib/gcc/arm-none-eabi/9.2.1/../../../../arm-none-eabi/lib/thumb/v8-a+simd/hard/libstdc++.a(eh_exception.o)
                0x00000000000841f0                vtable for __cxxabiv1::__foreign_exception
 .rodata._ZTVSt13bad_exception
                0x0000000000084204       0x14 /home/olf/projects/circle/gcc-arm-9.2-2019.12-x86_64-arm-none-eabi/bin/../lib/gcc/arm-none-eabi/9.2.1/../../../../arm-none-eabi/lib/thumb/v8-a+simd/hard/libstdc++.a(eh_exception.o)
                0x0000000000084204                vtable for std::bad_exception
 .rodata._ZTVSt9exception
                0x0000000000084218       0x14 /home/olf/projects/circle/gcc-arm-9.2-2019.12-x86_64-arm-none-eabi/bin/../lib/gcc/arm-none-eabi/9.2.1/../../../../arm-none-eabi/lib/thumb/v8-a+simd/hard/libstdc++.a(eh_exception.o)
                0x0000000000084218                vtable for std::exception
 .rodata.__cxa_pure_virtual.str1.4
                0x000000000008422c       0x1c /home/olf/projects/circle/gcc-arm-9.2-2019.12-x86_64-arm-none-eabi/bin/../lib/gcc/arm-none-eabi/9.2.1/../../../../arm-none-eabi/lib/thumb/v8-a+simd/hard/libstdc++.a(pure.o)
 .rodata.__cxa_deleted_virtual.str1.4
                0x0000000000084248       0x1f /home/olf/projects/circle/gcc-arm-9.2-2019.12-x86_64-arm-none-eabi/bin/../lib/gcc/arm-none-eabi/9.2.1/../../../../arm-none-eabi/lib/thumb/v8-a+simd/hard/libstdc++.a(pure.o)
 *fill*         0x0000000000084267        0x1 
 .rodata._ZTIN10__cxxabiv120__si_class_type_infoE
                0x0000000000084268        0xc /home/olf/projects/circle/gcc-arm-9.2-2019.12-x86_64-arm-none-eabi/bin/../lib/gcc/arm-none-eabi/9.2.1/../../../../arm-none-eabi/lib/thumb/v8-a+simd/hard/libstdc++.a(si_class_type_info.o)
                0x0000000000084268                typeinfo for __cxxabiv1::__si_class_type_info
 .rodata._ZTSN10__cxxabiv120__si_class_type_infoE
                0x0000000000084274       0x25 /home/olf/projects/circle/gcc-arm-9.2-2019.12-x86_64-arm-none-eabi/bin/../lib/gcc/arm-none-eabi/9.2.1/../../../../arm-none-eabi/lib/thumb/v8-a+simd/hard/libstdc++.a(si_class_type_info.o)
                0x0000000000084274                typeinfo name for __cxxabiv1::__si_class_type_info
 *fill*         0x0000000000084299        0x3 
 .rodata._ZTVN10__cxxabiv120__si_class_type_infoE
                0x000000000008429c       0x2c /home/olf/projects/circle/gcc-arm-9.2-2019.12-x86_64-arm-none-eabi/bin/../lib/gcc/arm-none-eabi/9.2.1/../../../../arm-none-eabi/lib/thumb/v8-a+simd/hard/libstdc++.a(si_class_type_info.o)
                0x000000000008429c                vtable for __cxxabiv1::__si_class_type_info
 .rodata._ZTISt9type_info
                0x00000000000842c8        0x8 /home/olf/projects/circle/gcc-arm-9.2-2019.12-x86_64-arm-none-eabi/bin/../lib/gcc/arm-none-eabi/9.2.1/../../../../arm-none-eabi/lib/thumb/v8-a+simd/hard/libstdc++.a(tinfo.o)
                0x00000000000842c8                typeinfo for std::type_info
 .rodata._ZTSSt9type_info
                0x00000000000842d0        0xd /home/olf/projects/circle/gcc-arm-9.2-2019.12-x86_64-arm-none-eabi/bin/../lib/gcc/arm-none-eabi/9.2.1/../../../../arm-none-eabi/lib/thumb/v8-a+simd/hard/libstdc++.a(tinfo.o)
                0x00000000000842d0                typeinfo name for std::type_info
 *fill*         0x00000000000842dd        0x3 
 .rodata._ZTVSt9type_info
                0x00000000000842e0       0x20 /home/olf/projects/circle/gcc-arm-9.2-2019.12-x86_64-arm-none-eabi/bin/../lib/gcc/arm-none-eabi/9.2.1/../../../../arm-none-eabi/lib/thumb/v8-a+simd/hard/libstdc++.a(tinfo.o)
                0x00000000000842e0                vtable for std::type_info
 .rodata._ZTIN10__cxxabiv121__vmi_class_type_infoE
                0x0000000000084300        0xc /home/olf/projects/circle/gcc-arm-9.2-2019.12-x86_64-arm-none-eabi/bin/../lib/gcc/arm-none-eabi/9.2.1/../../../../arm-none-eabi/lib/thumb/v8-a+simd/hard/libstdc++.a(vmi_class_type_info.o)
                0x0000000000084300                typeinfo for __cxxabiv1::__vmi_class_type_info
 .rodata._ZTSN10__cxxabiv121__vmi_class_type_infoE
                0x000000000008430c       0x26 /home/olf/projects/circle/gcc-arm-9.2-2019.12-x86_64-arm-none-eabi/bin/../lib/gcc/arm-none-eabi/9.2.1/../../../../arm-none-eabi/lib/thumb/v8-a+simd/hard/libstdc++.a(vmi_class_type_info.o)
                0x000000000008430c                typeinfo name for __cxxabiv1::__vmi_class_type_info
 *fill*         0x0000000000084332        0x2 
 .rodata._ZTVN10__cxxabiv121__vmi_class_type_infoE
                0x0000000000084334       0x2c /home/olf/projects/circle/gcc-arm-9.2-2019.12-x86_64-arm-none-eabi/bin/../lib/gcc/arm-none-eabi/9.2.1/../../../../arm-none-eabi/lib/thumb/v8-a+simd/hard/libstdc++.a(vmi_class_type_info.o)
                0x0000000000084334                vtable for __cxxabiv1::__vmi_class_type_info
 .rodata._ZN9__gnu_cxx27__verbose_terminate_handlerEv.str1.4
                0x0000000000084360       0x94 /home/olf/projects/circle/gcc-arm-9.2-2019.12-x86_64-arm-none-eabi/bin/../lib/gcc/arm-none-eabi/9.2.1/../../../../arm-none-eabi/lib/thumb/v8-a+simd/hard/libstdc++.a(vterminate.o)
 .rodata._ZNKSt9bad_alloc4whatEv.str1.4
                0x00000000000843f4        0xf /home/olf/projects/circle/gcc-arm-9.2-2019.12-x86_64-arm-none-eabi/bin/../lib/gcc/arm-none-eabi/9.2.1/../../../../arm-none-eabi/lib/thumb/v8-a+simd/hard/libstdc++.a(bad_alloc.o)
 *fill*         0x0000000000084403        0x1 
 .rodata._ZTISt9bad_alloc
                0x0000000000084404        0xc /home/olf/projects/circle/gcc-arm-9.2-2019.12-x86_64-arm-none-eabi/bin/../lib/gcc/arm-none-eabi/9.2.1/../../../../arm-none-eabi/lib/thumb/v8-a+simd/hard/libstdc++.a(bad_alloc.o)
                0x0000000000084404                typeinfo for std::bad_alloc
 .rodata._ZTSSt9bad_alloc
                0x0000000000084410        0xd /home/olf/projects/circle/gcc-arm-9.2-2019.12-x86_64-arm-none-eabi/bin/../lib/gcc/arm-none-eabi/9.2.1/../../../../arm-none-eabi/lib/thumb/v8-a+simd/hard/libstdc++.a(bad_alloc.o)
                0x0000000000084410                typeinfo name for std::bad_alloc
 *fill*         0x000000000008441d        0x3 
 .rodata._ZTVSt9bad_alloc
                0x0000000000084420       0x14 /home/olf/projects/circle/gcc-arm-9.2-2019.12-x86_64-arm-none-eabi/bin/../lib/gcc/arm-none-eabi/9.2.1/../../../../arm-none-eabi/lib/thumb/v8-a+simd/hard/libstdc++.a(bad_alloc.o)
                0x0000000000084420                vtable for std::bad_alloc
 .rodata._ZNKSt20bad_array_new_length4whatEv.str1.4
                0x0000000000084434       0x1a /home/olf/projects/circle/gcc-arm-9.2-2019.12-x86_64-arm-none-eabi/bin/../lib/gcc/arm-none-eabi/9.2.1/../../../../arm-none-eabi/lib/thumb/v8-a+simd/hard/libstdc++.a(bad_array_new.o)
 *fill*         0x000000000008444e        0x2 
 .rodata._ZTISt20bad_array_new_length
                0x0000000000084450        0xc /home/olf/projects/circle/gcc-arm-9.2-2019.12-x86_64-arm-none-eabi/bin/../lib/gcc/arm-none-eabi/9.2.1/../../../../arm-none-eabi/lib/thumb/v8-a+simd/hard/libstdc++.a(bad_array_new.o)
                0x0000000000084450                typeinfo for std::bad_array_new_length
 .rodata._ZTSSt20bad_array_new_length
                0x000000000008445c       0x19 /home/olf/projects/circle/gcc-arm-9.2-2019.12-x86_64-arm-none-eabi/bin/../lib/gcc/arm-none-eabi/9.2.1/../../../../arm-none-eabi/lib/thumb/v8-a+simd/hard/libstdc++.a(bad_array_new.o)
                0x000000000008445c                typeinfo name for std::bad_array_new_length
 *fill*         0x0000000000084475        0x3 
 .rodata._ZTVSt20bad_array_new_length
                0x0000000000084478       0x14 /home/olf/projects/circle/gcc-arm-9.2-2019.12-x86_64-arm-none-eabi/bin/../lib/gcc/arm-none-eabi/9.2.1/../../../../arm-none-eabi/lib/thumb/v8-a+simd/hard/libstdc++.a(bad_array_new.o)
                0x0000000000084478                vtable for std::bad_array_new_length
 .rodata._ZNKSt8bad_cast4whatEv.str1.4
                0x000000000008448c        0xe /home/olf/projects/circle/gcc-arm-9.2-2019.12-x86_64-arm-none-eabi/bin/../lib/gcc/arm-none-eabi/9.2.1/../../../../arm-none-eabi/lib/thumb/v8-a+simd/hard/libstdc++.a(bad_cast.o)
 *fill*         0x000000000008449a        0x2 
 .rodata._ZTISt8bad_cast
                0x000000000008449c        0xc /home/olf/projects/circle/gcc-arm-9.2-2019.12-x86_64-arm-none-eabi/bin/../lib/gcc/arm-none-eabi/9.2.1/../../../../arm-none-eabi/lib/thumb/v8-a+simd/hard/libstdc++.a(bad_cast.o)
                0x000000000008449c                typeinfo for std::bad_cast
 .rodata._ZTSSt8bad_cast
                0x00000000000844a8        0xc /home/olf/projects/circle/gcc-arm-9.2-2019.12-x86_64-arm-none-eabi/bin/../lib/gcc/arm-none-eabi/9.2.1/../../../../arm-none-eabi/lib/thumb/v8-a+simd/hard/libstdc++.a(bad_cast.o)
                0x00000000000844a8                typeinfo name for std::bad_cast
 .rodata._ZTVSt8bad_cast
                0x00000000000844b4       0x14 /home/olf/projects/circle/gcc-arm-9.2-2019.12-x86_64-arm-none-eabi/bin/../lib/gcc/arm-none-eabi/9.2.1/../../../../arm-none-eabi/lib/thumb/v8-a+simd/hard/libstdc++.a(bad_cast.o)
                0x00000000000844b4                vtable for std::bad_cast
 .rodata._ZNKSt10bad_typeid4whatEv.str1.4
                0x00000000000844c8       0x10 /home/olf/projects/circle/gcc-arm-9.2-2019.12-x86_64-arm-none-eabi/bin/../lib/gcc/arm-none-eabi/9.2.1/../../../../arm-none-eabi/lib/thumb/v8-a+simd/hard/libstdc++.a(bad_typeid.o)
 .rodata._ZTISt10bad_typeid
                0x00000000000844d8        0xc /home/olf/projects/circle/gcc-arm-9.2-2019.12-x86_64-arm-none-eabi/bin/../lib/gcc/arm-none-eabi/9.2.1/../../../../arm-none-eabi/lib/thumb/v8-a+simd/hard/libstdc++.a(bad_typeid.o)
                0x00000000000844d8                typeinfo for std::bad_typeid
 .rodata._ZTSSt10bad_typeid
                0x00000000000844e4        0xf /home/olf/projects/circle/gcc-arm-9.2-2019.12-x86_64-arm-none-eabi/bin/../lib/gcc/arm-none-eabi/9.2.1/../../../../arm-none-eabi/lib/thumb/v8-a+simd/hard/libstdc++.a(bad_typeid.o)
                0x00000000000844e4                typeinfo name for std::bad_typeid
 *fill*         0x00000000000844f3        0x1 
 .rodata._ZTVSt10bad_typeid
                0x00000000000844f4       0x14 /home/olf/projects/circle/gcc-arm-9.2-2019.12-x86_64-arm-none-eabi/bin/../lib/gcc/arm-none-eabi/9.2.1/../../../../arm-none-eabi/lib/thumb/v8-a+simd/hard/libstdc++.a(bad_typeid.o)
                0x00000000000844f4                vtable for std::bad_typeid
 .rodata.d_source_name.str1.4
                0x0000000000084508       0x22 /home/olf/projects/circle/gcc-arm-9.2-2019.12-x86_64-arm-none-eabi/bin/../lib/gcc/arm-none-eabi/9.2.1/../../../../arm-none-eabi/lib/thumb/v8-a+simd/hard/libstdc++.a(cp-demangle.o)
 *fill*         0x000000000008452a        0x2 
 .rodata.d_name.str1.4
                0x000000000008452c       0x14 /home/olf/projects/circle/gcc-arm-9.2-2019.12-x86_64-arm-none-eabi/bin/../lib/gcc/arm-none-eabi/9.2.1/../../../../arm-none-eabi/lib/thumb/v8-a+simd/hard/libstdc++.a(cp-demangle.o)
 .rodata.d_type.str1.4
                0x0000000000084540       0x17 /home/olf/projects/circle/gcc-arm-9.2-2019.12-x86_64-arm-none-eabi/bin/../lib/gcc/arm-none-eabi/9.2.1/../../../../arm-none-eabi/lib/thumb/v8-a+simd/hard/libstdc++.a(cp-demangle.o)
 *fill*         0x0000000000084557        0x1 
 .rodata.d_print_comp.str1.4
                0x0000000000084558      0x295 /home/olf/projects/circle/gcc-arm-9.2-2019.12-x86_64-arm-none-eabi/bin/../lib/gcc/arm-none-eabi/9.2.1/../../../../arm-none-eabi/lib/thumb/v8-a+simd/hard/libstdc++.a(cp-demangle.o)
                                        0x2e5 (size before relaxing)
 *fill*         0x00000000000847ed        0x3 
 .rodata.d_print_mod.str1.4
                0x00000000000847f0       0x73 /home/olf/projects/circle/gcc-arm-9.2-2019.12-x86_64-arm-none-eabi/bin/../lib/gcc/arm-none-eabi/9.2.1/../../../../arm-none-eabi/lib/thumb/v8-a+simd/hard/libstdc++.a(cp-demangle.o)
 .rodata.d_print_array_type.isra.0.str1.4
                0x0000000000084863       0x73 /home/olf/projects/circle/gcc-arm-9.2-2019.12-x86_64-arm-none-eabi/bin/../lib/gcc/arm-none-eabi/9.2.1/../../../../arm-none-eabi/lib/thumb/v8-a+simd/hard/libstdc++.a(cp-demangle.o)
                                          0x3 (size before relaxing)
 *fill*         0x0000000000084863        0x1 
 .rodata.d_maybe_print_fold_expression.isra.0.str1.4
                0x0000000000084864        0xd /home/olf/projects/circle/gcc-arm-9.2-2019.12-x86_64-arm-none-eabi/bin/../lib/gcc/arm-none-eabi/9.2.1/../../../../arm-none-eabi/lib/thumb/v8-a+simd/hard/libstdc++.a(cp-demangle.o)
 *fill*         0x0000000000084871        0x3 
 .rodata.str1.4
                0x0000000000084874      0x4ca /home/olf/projects/circle/gcc-arm-9.2-2019.12-x86_64-arm-none-eabi/bin/../lib/gcc/arm-none-eabi/9.2.1/../../../../arm-none-eabi/lib/thumb/v8-a+simd/hard/libstdc++.a(cp-demangle.o)
                                        0x51a (size before relaxing)
 *fill*         0x0000000000084d3e        0x2 
 .rodata.cplus_demangle_builtin_types
                0x0000000000084d40      0x2a8 /home/olf/projects/circle/gcc-arm-9.2-2019.12-x86_64-arm-none-eabi/bin/../lib/gcc/arm-none-eabi/9.2.1/../../../../arm-none-eabi/lib/thumb/v8-a+simd/hard/libstdc++.a(cp-demangle.o)
 .rodata.cplus_demangle_operators
                0x0000000000084fe8      0x440 /home/olf/projects/circle/gcc-arm-9.2-2019.12-x86_64-arm-none-eabi/bin/../lib/gcc/arm-none-eabi/9.2.1/../../../../arm-none-eabi/lib/thumb/v8-a+simd/hard/libstdc++.a(cp-demangle.o)
 .rodata.standard_subs
                0x0000000000085428       0xc4 /home/olf/projects/circle/gcc-arm-9.2-2019.12-x86_64-arm-none-eabi/bin/../lib/gcc/arm-none-eabi/9.2.1/../../../../arm-none-eabi/lib/thumb/v8-a+simd/hard/libstdc++.a(cp-demangle.o)
 .rodata._ZSt7nothrow
                0x00000000000854ec        0x1 /home/olf/projects/circle/gcc-arm-9.2-2019.12-x86_64-arm-none-eabi/bin/../lib/gcc/arm-none-eabi/9.2.1/../../../../arm-none-eabi/lib/thumb/v8-a+simd/hard/libstdc++.a(new_handler.o)
                0x00000000000854ec                std::nothrow

.ARM.extab.text.startup
                0x00000000000854f0       0x1c
 .ARM.extab.text.startup
                0x00000000000854f0       0x1c main.o
 .ARM.extab.text.startup
                0x000000000008550c        0x0 ../../../lib/usb/libusb.a(usbkeyboard.o)
 .ARM.extab.text.startup
                0x000000000008550c        0x0 ../../../lib/usb/libusb.a(usbmassdevice.o)
 .ARM.extab.text.startup
                0x000000000008550c        0x0 ../../../lib/usb/libusb.a(usbmidi.o)
 .ARM.extab.text.startup
                0x000000000008550c        0x0 ../../../lib/usb/libusb.a(usbprinter.o)
 .ARM.extab.text.startup
                0x000000000008550c        0x0 ../../../lib/usb/libusb.a(usbstandardhub.o)
 .ARM.extab.text.startup
                0x000000000008550c        0x0 ../../../lib/usb/libusb.a(usbbluetooth.o)
 .ARM.extab.text.startup
                0x000000000008550c        0x0 ../../../lib/usb/libusb.a(usbgamepad.o)
 .ARM.extab.text.startup
                0x000000000008550c        0x0 ../../../lib/input/libinput.a(mouse.o)
 .ARM.extab.text.startup
                0x000000000008550c        0x0 ../../../lib/libcircle.a(gpiopin.o)
 .ARM.extab.text.startup
                0x000000000008550c        0x0 ../../../lib/libcircle.a(virtualgpiopin.o)
 .ARM.extab.text.startup
                0x000000000008550c        0x0 ../../../lib/libcircle.a(bcmrandom200.o)
 .ARM.extab.text.startup
                0x000000000008550c        0x0 ../../../lib/libcircle.a(bcmmailbox.o)

.ARM.extab      0x000000000008550c     0x1a4c
 .ARM.extab     0x000000000008550c       0x9a kernel.o
 *fill*         0x00000000000855a6        0x2 
 .ARM.extab     0x00000000000855a8       0x28 ../../../addon/wlan/hostap/wpa_supplicant/libwpa_supplicant.a(wpasupplicant.o)
 .ARM.extab     0x00000000000855d0       0x70 ../../../addon/wlan/hostap/wpa_supplicant/libwpa_supplicant.a(os_circle.o)
 .ARM.extab     0x0000000000085640        0x0 ../../../addon/wlan/hostap/wpa_supplicant/libwpa_supplicant.a(main_circle.o)
 .ARM.extab     0x0000000000085640       0xa9 ../../../addon/wlan/hostap/wpa_supplicant/libwpa_supplicant.a(driver_circle.o)
 *fill*         0x00000000000856e9        0x3 
 .ARM.extab     0x00000000000856ec       0x2c ../../../addon/wlan/hostap/wpa_supplicant/libwpa_supplicant.a(l2_packet_circle.o)
 .ARM.extab     0x0000000000085718       0x67 ../../../addon/wlan/libwlan.a(bcm4343.o)
 *fill*         0x000000000008577f        0x1 
 .ARM.extab     0x0000000000085780       0x18 ../../../addon/wlan/libwlan.a(p9arch.o)
 .ARM.extab     0x0000000000085798       0x3d ../../../addon/wlan/libwlan.a(p9chan.o)
 *fill*         0x00000000000857d5        0x3 
 .ARM.extab     0x00000000000857d8       0x37 ../../../addon/wlan/libwlan.a(p9cmd.o)
 .ARM.extab     0x000000000008580f        0x0 ../../../addon/wlan/libwlan.a(p9error.o)
 .ARM.extab     0x000000000008580f        0x0 ../../../addon/wlan/libwlan.a(p9ether.o)
 *fill*         0x000000000008580f        0x1 
 .ARM.extab     0x0000000000085810       0x18 ../../../addon/wlan/libwlan.a(p9proc.o)
 .ARM.extab     0x0000000000085828       0x7f ../../../addon/wlan/libwlan.a(p9util.o)
 .ARM.extab     0x00000000000858a7        0x0 ../../../addon/fatfs/libfatfs.a(diskio.o)
 .ARM.extab     0x00000000000858a7        0x0 ../../../addon/fatfs/libfatfs.a(ffsystem.o)
 *fill*         0x00000000000858a7        0x1 
 .ARM.extab     0x00000000000858a8       0xdc ../../../addon/SDCard/libsdcard.a(emmc.o)
 .ARM.extab     0x0000000000085984       0x5f ../../../lib/net/libnet.a(netsubsystem.o)
 .ARM.extab     0x00000000000859e3        0x0 ../../../lib/net/libnet.a(nettask.o)
 *fill*         0x00000000000859e3        0x1 
 .ARM.extab     0x00000000000859e4       0xa8 ../../../lib/net/libnet.a(transportlayer.o)
 .ARM.extab     0x0000000000085a8c       0xad ../../../lib/net/libnet.a(networklayer.o)
 *fill*         0x0000000000085b39        0x3 
 .ARM.extab     0x0000000000085b3c       0x8c ../../../lib/net/libnet.a(linklayer.o)
 .ARM.extab     0x0000000000085bc8       0x58 ../../../lib/net/libnet.a(netdevlayer.o)
 .ARM.extab     0x0000000000085c20        0x0 ../../../lib/net/libnet.a(phytask.o)
 .ARM.extab     0x0000000000085c20       0x8a ../../../lib/net/libnet.a(arphandler.o)
 *fill*         0x0000000000085caa        0x2 
 .ARM.extab     0x0000000000085cac       0x72 ../../../lib/net/libnet.a(icmphandler.o)
 *fill*         0x0000000000085d1e        0x2 
 .ARM.extab     0x0000000000085d20        0xc ../../../lib/net/libnet.a(routecache.o)
 .ARM.extab     0x0000000000085d2c       0x40 ../../../lib/net/libnet.a(netconnection.o)
 .ARM.extab     0x0000000000085d6c       0x61 ../../../lib/net/libnet.a(udpconnection.o)
 *fill*         0x0000000000085dcd        0x3 
 .ARM.extab     0x0000000000085dd0       0x9c ../../../lib/net/libnet.a(tcpconnection.o)
 .ARM.extab     0x0000000000085e6c        0x0 ../../../lib/net/libnet.a(retransmissionqueue.o)
 .ARM.extab     0x0000000000085e6c        0x0 ../../../lib/net/libnet.a(retranstimeoutcalc.o)
 .ARM.extab     0x0000000000085e6c        0xc ../../../lib/net/libnet.a(tcprejector.o)
 .ARM.extab     0x0000000000085e78       0x2e ../../../lib/net/libnet.a(netconfig.o)
 .ARM.extab     0x0000000000085ea6        0x0 ../../../lib/net/libnet.a(ipaddress.o)
 *fill*         0x0000000000085ea6        0x2 
 .ARM.extab     0x0000000000085ea8        0xc ../../../lib/net/libnet.a(netqueue.o)
 .ARM.extab     0x0000000000085eb4        0x0 ../../../lib/net/libnet.a(checksumcalculator.o)
 .ARM.extab     0x0000000000085eb4       0xb8 ../../../lib/net/libnet.a(dhcpclient.o)
 .ARM.extab     0x0000000000085f6c       0x4a ../../../lib/net/libnet.a(ntpdaemon.o)
 *fill*         0x0000000000085fb6        0x2 
 .ARM.extab     0x0000000000085fb8       0x79 ../../../lib/net/libnet.a(socket.o)
 *fill*         0x0000000000086031        0x3 
 .ARM.extab     0x0000000000086034       0x3c ../../../lib/net/libnet.a(dnsclient.o)
 .ARM.extab     0x0000000000086070       0x26 ../../../lib/net/libnet.a(ntpclient.o)
 *fill*         0x0000000000086096        0x2 
 .ARM.extab     0x0000000000086098       0x21 ../../../lib/net/libnet.a(netsocket.o)
 *fill*         0x00000000000860b9        0x3 
 .ARM.extab     0x00000000000860bc       0x26 ../../../lib/sched/libsched.a(task.o)
 *fill*         0x00000000000860e2        0x2 
 .ARM.extab     0x00000000000860e4       0x1a ../../../lib/sched/libsched.a(scheduler.o)
 *fill*         0x00000000000860fe        0x2 
 .ARM.extab     0x0000000000086100        0xc ../../../lib/sched/libsched.a(synchronizationevent.o)
 .ARM.extab     0x000000000008610c       0x90 ../../../lib/usb/libusb.a(xhcidevice.o)
 .ARM.extab     0x000000000008619c       0x42 ../../../lib/usb/libusb.a(xhciendpoint.o)
 *fill*         0x00000000000861de        0x2 
 .ARM.extab     0x00000000000861e0       0x28 ../../../lib/usb/libusb.a(xhcieventmanager.o)
 .ARM.extab     0x0000000000086208        0x0 ../../../lib/usb/libusb.a(xhcimmiospace.o)
 .ARM.extab     0x0000000000086208        0xc ../../../lib/usb/libusb.a(xhciring.o)
 .ARM.extab     0x0000000000086214       0x19 ../../../lib/usb/libusb.a(xhciroothub.o)
 *fill*         0x000000000008622d        0x3 
 .ARM.extab     0x0000000000086230       0x1b ../../../lib/usb/libusb.a(xhcirootport.o)
 .ARM.extab     0x000000000008624b        0x0 ../../../lib/usb/libusb.a(xhcisharedmemallocator.o)
 *fill*         0x000000000008624b        0x1 
 .ARM.extab     0x000000000008624c        0xc ../../../lib/usb/libusb.a(xhcislotmanager.o)
 .ARM.extab     0x0000000000086258       0x42 ../../../lib/usb/libusb.a(xhciusbdevice.o)
 *fill*         0x000000000008629a        0x2 
 .ARM.extab     0x000000000008629c       0xd1 ../../../lib/usb/libusb.a(usbdevice.o)
 *fill*         0x000000000008636d        0x3 
 .ARM.extab     0x0000000000086370       0xc1 ../../../lib/usb/libusb.a(usbdevicefactory.o)
 *fill*         0x0000000000086431        0x3 
 .ARM.extab     0x0000000000086434       0x38 ../../../lib/usb/libusb.a(usbendpoint.o)
 .ARM.extab     0x000000000008646c       0x64 ../../../lib/usb/libusb.a(usbfunction.o)
 .ARM.extab     0x00000000000864d0       0x18 ../../../lib/usb/libusb.a(usbgamepadps3.o)
 .ARM.extab     0x00000000000864e8       0x34 ../../../lib/usb/libusb.a(usbgamepadps4.o)
 .ARM.extab     0x000000000008651c        0x0 ../../../lib/usb/libusb.a(usbgamepadstandard.o)
 .ARM.extab     0x000000000008651c       0x24 ../../../lib/usb/libusb.a(usbgamepadswitchpro.o)
 .ARM.extab     0x0000000000086540        0x0 ../../../lib/usb/libusb.a(usbgamepadxbox360.o)
 .ARM.extab     0x0000000000086540        0x0 ../../../lib/usb/libusb.a(usbgamepadxboxone.o)
 .ARM.extab     0x0000000000086540       0x7f ../../../lib/usb/libusb.a(usbhiddevice.o)
 *fill*         0x00000000000865bf        0x1 
 .ARM.extab     0x00000000000865c0       0x34 ../../../lib/usb/libusb.a(usbhostcontroller.o)
 .ARM.extab     0x00000000000865f4       0x24 ../../../lib/usb/libusb.a(usbkeyboard.o)
 .ARM.extab     0x0000000000086618       0x62 ../../../lib/usb/libusb.a(usbmassdevice.o)
 *fill*         0x000000000008667a        0x2 
 .ARM.extab     0x000000000008667c       0x49 ../../../lib/usb/libusb.a(usbmidi.o)
 *fill*         0x00000000000866c5        0x3 
 .ARM.extab     0x00000000000866c8       0x1c ../../../lib/usb/libusb.a(usbmouse.o)
 .ARM.extab     0x00000000000866e4       0x33 ../../../lib/usb/libusb.a(usbprinter.o)
 *fill*         0x0000000000086717        0x1 
 .ARM.extab     0x0000000000086718       0x32 ../../../lib/usb/libusb.a(usbrequest.o)
 *fill*         0x000000000008674a        0x2 
 .ARM.extab     0x000000000008674c       0x68 ../../../lib/usb/libusb.a(usbstandardhub.o)
 .ARM.extab     0x00000000000867b4       0x28 ../../../lib/usb/libusb.a(xhcicommandmanager.o)
 .ARM.extab     0x00000000000867dc       0x98 ../../../lib/usb/libusb.a(lan7800.o)
 .ARM.extab     0x0000000000086874       0x8a ../../../lib/usb/libusb.a(smsc951x.o)
 *fill*         0x00000000000868fe        0x2 
 .ARM.extab     0x0000000000086900       0x5e ../../../lib/usb/libusb.a(usbbluetooth.o)
 *fill*         0x000000000008695e        0x2 
 .ARM.extab     0x0000000000086960       0x8a ../../../lib/usb/libusb.a(usbcdcethernet.o)
 .ARM.extab     0x00000000000869ea        0x0 ../../../lib/usb/libusb.a(usbconfigparser.o)
 *fill*         0x00000000000869ea        0x2 
 .ARM.extab     0x00000000000869ec        0xc ../../../lib/usb/libusb.a(usbgamepad.o)
 .ARM.extab     0x00000000000869f8       0x51 ../../../lib/usb/libusb.a(usbstring.o)
 .ARM.extab     0x0000000000086a49        0x0 ../../../lib/input/libinput.a(keyboardbehaviour.o)
 .ARM.extab     0x0000000000086a49        0x0 ../../../lib/input/libinput.a(keymap.o)
 *fill*         0x0000000000086a49        0x3 
 .ARM.extab     0x0000000000086a4c       0x29 ../../../lib/input/libinput.a(mouse.o)
 *fill*         0x0000000000086a75        0x3 
 .ARM.extab     0x0000000000086a78       0x44 ../../../lib/input/libinput.a(mousebehaviour.o)
 .ARM.extab     0x0000000000086abc       0x33 ../../../lib/fs/libfs.a(partitionmanager.o)
 *fill*         0x0000000000086aef        0x1 
 .ARM.extab     0x0000000000086af0       0x1a ../../../lib/fs/libfs.a(partition.o)
 *fill*         0x0000000000086b0a        0x2 
 .ARM.extab     0x0000000000086b0c       0x24 ../../../lib/libcircle.a(actled.o)
 .ARM.extab     0x0000000000086b30        0x0 ../../../lib/libcircle.a(alloc.o)
 .ARM.extab     0x0000000000086b30       0x1a ../../../lib/libcircle.a(assert.o)
 .ARM.extab     0x0000000000086b4a        0x0 ../../../lib/libcircle.a(bcmpropertytags.o)
 .ARM.extab     0x0000000000086b4a        0x0 ../../../lib/libcircle.a(classallocator.o)
 .ARM.extab     0x0000000000086b4a        0x0 ../../../lib/libcircle.a(debug.o)
 *fill*         0x0000000000086b4a        0x2 
 .ARM.extab     0x0000000000086b4c       0x18 ../../../lib/libcircle.a(device.o)
 .ARM.extab     0x0000000000086b64       0x71 ../../../lib/libcircle.a(devicenameservice.o)
 *fill*         0x0000000000086bd5        0x3 
 .ARM.extab     0x0000000000086bd8       0x28 ../../../lib/libcircle.a(dmachannel.o)
 .ARM.extab     0x0000000000086c00        0x0 ../../../lib/libcircle.a(gpiopin.o)
 .ARM.extab     0x0000000000086c00       0x1c ../../../lib/libcircle.a(koptions.o)
 .ARM.extab     0x0000000000086c1c       0x2c ../../../lib/libcircle.a(logger.o)
 .ARM.extab     0x0000000000086c48       0x54 ../../../lib/libcircle.a(machineinfo.o)
 .ARM.extab     0x0000000000086c9c        0x0 ../../../lib/libcircle.a(ptrarray.o)
 .ARM.extab     0x0000000000086c9c        0xc ../../../lib/libcircle.a(ptrlist.o)
 .ARM.extab     0x0000000000086ca8       0x3d ../../../lib/libcircle.a(screen.o)
 *fill*         0x0000000000086ce5        0x3 
 .ARM.extab     0x0000000000086ce8       0x3c ../../../lib/libcircle.a(serial.o)
 .ARM.extab     0x0000000000086d24       0x28 ../../../lib/libcircle.a(string.o)
 .ARM.extab     0x0000000000086d4c       0x20 ../../../lib/libcircle.a(sysinit.o)
 .ARM.extab     0x0000000000086d6c       0x45 ../../../lib/libcircle.a(timer.o)
 .ARM.extab     0x0000000000086db1        0x0 ../../../lib/libcircle.a(util.o)
 *fill*         0x0000000000086db1        0x3 
 .ARM.extab     0x0000000000086db4       0x36 ../../../lib/libcircle.a(virtualgpiopin.o)
 .ARM.extab     0x0000000000086dea        0x0 ../../../lib/libcircle.a(chainboot.o)
 .ARM.extab     0x0000000000086dea        0x0 ../../../lib/libcircle.a(macaddress.o)
 .ARM.extab     0x0000000000086dea        0x0 ../../../lib/libcircle.a(netdevice.o)
 .ARM.extab     0x0000000000086dea        0x0 ../../../lib/libcircle.a(new.o)
 .ARM.extab     0x0000000000086dea        0x0 ../../../lib/libcircle.a(heapallocator.o)
 .ARM.extab     0x0000000000086dea        0x0 ../../../lib/libcircle.a(pageallocator.o)
 .ARM.extab     0x0000000000086dea        0x0 ../../../lib/libcircle.a(numberpool.o)
 .ARM.extab     0x0000000000086dea        0x0 ../../../lib/libcircle.a(exceptionhandler.o)
 *fill*         0x0000000000086dea        0x2 
 .ARM.extab     0x0000000000086dec       0x44 ../../../lib/libcircle.a(memory.o)
 .ARM.extab     0x0000000000086e30        0x0 ../../../lib/libcircle.a(pagetable.o)
 .ARM.extab     0x0000000000086e30        0x0 ../../../lib/libcircle.a(synchronize.o)
 .ARM.extab     0x0000000000086e30       0x63 ../../../lib/libcircle.a(bcm54213.o)
 *fill*         0x0000000000086e93        0x1 
 .ARM.extab     0x0000000000086e94        0xc ../../../lib/libcircle.a(bcmpciehostbridge.o)
 .ARM.extab     0x0000000000086ea0        0x0 ../../../lib/libcircle.a(bcmrandom200.o)
 .ARM.extab     0x0000000000086ea0        0x0 ../../../lib/libcircle.a(interruptgic.o)
 .ARM.extab     0x0000000000086ea0        0xc ../../../lib/libcircle.a(dma4channel.o)
 .ARM.extab     0x0000000000086eac        0x0 ../../../lib/libcircle.a(devicetreeblob.o)
 .ARM.extab     0x0000000000086eac       0xa0 ../../../lib/libcircle.a(bcmframebuffer.o)
 .ARM.extab     0x0000000000086f4c        0x0 ../../../lib/libcircle.a(bcmmailbox.o)
 .ARM.extab     0x0000000000086f4c        0x0 ../../../lib/libcircle.a(chargenerator.o)
 .ARM.extab     0x0000000000086f4c        0xc ../../../lib/libcircle.a(gpiomanager.o)

.ARM.extab.text._ZN10CNetDevice20IsSendFrameAdvisableEv
                0x0000000000086f58        0x0
 .ARM.extab.text._ZN10CNetDevice20IsSendFrameAdvisableEv
                0x0000000000086f58        0x0 ../../../addon/wlan/libwlan.a(bcm4343.o)

.ARM.extab.text._ZN10CNetDevice8IsLinkUpEv
                0x0000000000086f58        0x0
 .ARM.extab.text._ZN10CNetDevice8IsLinkUpEv
                0x0000000000086f58        0x0 ../../../addon/wlan/libwlan.a(bcm4343.o)

.ARM.extab.text._ZN10CNetDevice12GetLinkSpeedEv
                0x0000000000086f58        0x0
 .ARM.extab.text._ZN10CNetDevice12GetLinkSpeedEv
                0x0000000000086f58        0x0 ../../../addon/wlan/libwlan.a(bcm4343.o)

.ARM.extab.text._ZN10CNetDevice9UpdatePHYEv
                0x0000000000086f58        0x0
 .ARM.extab.text._ZN10CNetDevice9UpdatePHYEv
                0x0000000000086f58        0x0 ../../../addon/wlan/libwlan.a(bcm4343.o)

.ARM.extab.text._ZN14CBcm4343Device7GetTypeEv
                0x0000000000086f58        0x0
 .ARM.extab.text._ZN14CBcm4343Device7GetTypeEv
                0x0000000000086f58        0x0 ../../../addon/wlan/libwlan.a(bcm4343.o)

.ARM.extab.text._ZN6CKProc3RunEv
                0x0000000000086f58        0x0
 .ARM.extab.text._ZN6CKProc3RunEv
                0x0000000000086f58        0x0 ../../../addon/wlan/libwlan.a(p9proc.o)

.ARM.extab.text._ZN6CKProcD2Ev
                0x0000000000086f58        0x0
 .ARM.extab.text._ZN6CKProcD2Ev
                0x0000000000086f58        0x0 ../../../addon/wlan/libwlan.a(p9proc.o)

.ARM.extab.text._ZN6CKProcD0Ev
                0x0000000000086f58        0x0
 .ARM.extab.text._ZN6CKProcD0Ev
                0x0000000000086f58        0x0 ../../../addon/wlan/libwlan.a(p9proc.o)

.ARM.extab.text._ZN12CTCPRejector7ConnectEv
                0x0000000000086f58        0x0
 .ARM.extab.text._ZN12CTCPRejector7ConnectEv
                0x0000000000086f58        0x0 ../../../lib/net/libnet.a(transportlayer.o)

.ARM.extab.text._ZN12CTCPRejector6AcceptEP10CIPAddressPt
                0x0000000000086f58        0x0
 .ARM.extab.text._ZN12CTCPRejector6AcceptEP10CIPAddressPt
                0x0000000000086f58        0x0 ../../../lib/net/libnet.a(transportlayer.o)

.ARM.extab.text._ZN12CTCPRejector5CloseEv
                0x0000000000086f58        0x0
 .ARM.extab.text._ZN12CTCPRejector5CloseEv
                0x0000000000086f58        0x0 ../../../lib/net/libnet.a(transportlayer.o)

.ARM.extab.text._ZN12CTCPRejector4SendEPKvji
                0x0000000000086f58        0x0
 .ARM.extab.text._ZN12CTCPRejector4SendEPKvji
                0x0000000000086f58        0x0 ../../../lib/net/libnet.a(transportlayer.o)

.ARM.extab.text._ZN12CTCPRejector7ReceiveEPvi
                0x0000000000086f58        0x0
 .ARM.extab.text._ZN12CTCPRejector7ReceiveEPvi
                0x0000000000086f58        0x0 ../../../lib/net/libnet.a(transportlayer.o)

.ARM.extab.text._ZN12CTCPRejector6SendToEPKvjiR10CIPAddresst
                0x0000000000086f58        0x0
 .ARM.extab.text._ZN12CTCPRejector6SendToEPKvjiR10CIPAddresst
                0x0000000000086f58        0x0 ../../../lib/net/libnet.a(transportlayer.o)

.ARM.extab.text._ZN12CTCPRejector11ReceiveFromEPviP10CIPAddressPt
                0x0000000000086f58        0x0
 .ARM.extab.text._ZN12CTCPRejector11ReceiveFromEPviP10CIPAddressPt
                0x0000000000086f58        0x0 ../../../lib/net/libnet.a(transportlayer.o)

.ARM.extab.text._ZN12CTCPRejector18SetOptionBroadcastEb
                0x0000000000086f58        0x0
 .ARM.extab.text._ZN12CTCPRejector18SetOptionBroadcastEb
                0x0000000000086f58        0x0 ../../../lib/net/libnet.a(transportlayer.o)

.ARM.extab.text._ZNK12CTCPRejector11IsConnectedEv
                0x0000000000086f58        0x0
 .ARM.extab.text._ZNK12CTCPRejector11IsConnectedEv
                0x0000000000086f58        0x0 ../../../lib/net/libnet.a(transportlayer.o)

.ARM.extab.text._ZNK12CTCPRejector12IsTerminatedEv
                0x0000000000086f58        0x0
 .ARM.extab.text._ZNK12CTCPRejector12IsTerminatedEv
                0x0000000000086f58        0x0 ../../../lib/net/libnet.a(transportlayer.o)

.ARM.extab.text._ZN12CTCPRejector7ProcessEv
                0x0000000000086f58        0x0
 .ARM.extab.text._ZN12CTCPRejector7ProcessEv
                0x0000000000086f58        0x0 ../../../lib/net/libnet.a(transportlayer.o)

.ARM.extab.text._ZN12CTCPRejector20NotificationReceivedE21TICMPNotificationTypeR10CIPAddressS2_tti
                0x0000000000086f58        0x0
 .ARM.extab.text._ZN12CTCPRejector20NotificationReceivedE21TICMPNotificationTypeR10CIPAddressS2_tti
                0x0000000000086f58        0x0 ../../../lib/net/libnet.a(transportlayer.o)

.ARM.extab.text._ZN10CNetSocket4BindEt
                0x0000000000086f58        0x0
 .ARM.extab.text._ZN10CNetSocket4BindEt
                0x0000000000086f58        0x0 ../../../lib/net/libnet.a(netsocket.o)

.ARM.extab.text._ZN10CNetSocket6ListenEj
                0x0000000000086f58        0x0
 .ARM.extab.text._ZN10CNetSocket6ListenEj
                0x0000000000086f58        0x0 ../../../lib/net/libnet.a(netsocket.o)

.ARM.extab.text._ZN10CNetSocket6AcceptEP10CIPAddressPt
                0x0000000000086f58        0x0
 .ARM.extab.text._ZN10CNetSocket6AcceptEP10CIPAddressPt
                0x0000000000086f58        0x0 ../../../lib/net/libnet.a(netsocket.o)

.ARM.extab.text._ZN10CNetSocket6SendToEPKvjiR10CIPAddresst
                0x0000000000086f58        0x0
 .ARM.extab.text._ZN10CNetSocket6SendToEPKvjiR10CIPAddresst
                0x0000000000086f58        0x0 ../../../lib/net/libnet.a(netsocket.o)

.ARM.extab.text._ZN10CNetSocket11ReceiveFromEPvjiP10CIPAddressPt
                0x0000000000086f58        0x0
 .ARM.extab.text._ZN10CNetSocket11ReceiveFromEPvjiP10CIPAddressPt
                0x0000000000086f58        0x0 ../../../lib/net/libnet.a(netsocket.o)

.ARM.extab.text._ZN10CNetSocket18SetOptionBroadcastEb
                0x0000000000086f58        0x0
 .ARM.extab.text._ZN10CNetSocket18SetOptionBroadcastEb
                0x0000000000086f58        0x0 ../../../lib/net/libnet.a(netsocket.o)

.ARM.extab.text._ZN18CUSBHostController24CancelDeviceTransactionsEP10CUSBDevice
                0x0000000000086f58        0x0
 .ARM.extab.text._ZN18CUSBHostController24CancelDeviceTransactionsEP10CUSBDevice
                0x0000000000086f58        0x0 ../../../lib/usb/libusb.a(xhcidevice.o)

.ARM.extab.text._ZNK12CUSBFunction10GetHubInfoEv
                0x0000000000086f58        0x0
 .ARM.extab.text._ZNK12CUSBFunction10GetHubInfoEv
                0x0000000000086f58        0x0 ../../../lib/usb/libusb.a(xhciusbdevice.o)

.ARM.extab.text._ZN17CUSBGamePadDevice10SetLEDModeEjhh
                0x0000000000086f58        0x0
 .ARM.extab.text._ZN17CUSBGamePadDevice10SetLEDModeEjhh
                0x0000000000086f58        0x0 ../../../lib/usb/libusb.a(usbgamepadps3.o)

.ARM.extab.text._ZN20CUSBGamePadPS3Device13GetPropertiesEv
                0x0000000000086f58        0x0
 .ARM.extab.text._ZN20CUSBGamePadPS3Device13GetPropertiesEv
                0x0000000000086f58        0x0 ../../../lib/usb/libusb.a(usbgamepadps3.o)

.ARM.extab.text._ZN20CUSBGamePadPS4Device13GetPropertiesEv
                0x0000000000086f58        0x0
 .ARM.extab.text._ZN20CUSBGamePadPS4Device13GetPropertiesEv
                0x0000000000086f58        0x0 ../../../lib/usb/libusb.a(usbgamepadps4.o)

.ARM.extab.text._ZN17CUSBGamePadDevice13GetPropertiesEv
                0x0000000000086f58        0x0
 .ARM.extab.text._ZN17CUSBGamePadDevice13GetPropertiesEv
                0x0000000000086f58        0x0 ../../../lib/usb/libusb.a(usbgamepadstandard.o)

.ARM.extab.text._ZN17CUSBGamePadDevice10SetLEDModeE15TGamePadLEDMode
                0x0000000000086f58        0x0
 .ARM.extab.text._ZN17CUSBGamePadDevice10SetLEDModeE15TGamePadLEDMode
                0x0000000000086f58        0x0 ../../../lib/usb/libusb.a(usbgamepadstandard.o)

.ARM.extab.text._ZN17CUSBGamePadDevice13SetRumbleModeE18TGamePadRumbleMode
                0x0000000000086f58        0x0
 .ARM.extab.text._ZN17CUSBGamePadDevice13SetRumbleModeE18TGamePadRumbleMode
                0x0000000000086f58        0x0 ../../../lib/usb/libusb.a(usbgamepadstandard.o)

.ARM.extab.text._ZN26CUSBGamePadSwitchProDevice13GetPropertiesEv
                0x0000000000086f58        0x0
 .ARM.extab.text._ZN26CUSBGamePadSwitchProDevice13GetPropertiesEv
                0x0000000000086f58        0x0 ../../../lib/usb/libusb.a(usbgamepadswitchpro.o)

.ARM.extab.text._ZN24CUSBGamePadXbox360Device13GetPropertiesEv
                0x0000000000086f58        0x0
 .ARM.extab.text._ZN24CUSBGamePadXbox360Device13GetPropertiesEv
                0x0000000000086f58        0x0 ../../../lib/usb/libusb.a(usbgamepadxbox360.o)

.ARM.extab.text._ZN24CUSBGamePadXboxOneDevice13GetPropertiesEv
                0x0000000000086f58        0x0
 .ARM.extab.text._ZN24CUSBGamePadXboxOneDevice13GetPropertiesEv
                0x0000000000086f58        0x0 ../../../lib/usb/libusb.a(usbgamepadxboxone.o)

.ARM.extab.text._ZN10CNetDevice7GetTypeEv
                0x0000000000086f58        0x0
 .ARM.extab.text._ZN10CNetDevice7GetTypeEv
                0x0000000000086f58        0x0 ../../../lib/usb/libusb.a(lan7800.o)

.ARM.extab.text._ZNK10__cxxabiv117__class_type_info11__do_upcastEPKS0_PPv
                0x0000000000086f58        0x0
 .ARM.extab.text._ZNK10__cxxabiv117__class_type_info11__do_upcastEPKS0_PPv
                0x0000000000086f58        0x0 /home/olf/projects/circle/gcc-arm-9.2-2019.12-x86_64-arm-none-eabi/bin/../lib/gcc/arm-none-eabi/9.2.1/../../../../arm-none-eabi/lib/thumb/v8-a+simd/hard/libstdc++.a(class_type_info.o)

.ARM.extab.text._ZNK10__cxxabiv117__class_type_info20__do_find_public_srcEiPKvPKS0_S2_
                0x0000000000086f58        0x0
 .ARM.extab.text._ZNK10__cxxabiv117__class_type_info20__do_find_public_srcEiPKvPKS0_S2_
                0x0000000000086f58        0x0 /home/olf/projects/circle/gcc-arm-9.2-2019.12-x86_64-arm-none-eabi/bin/../lib/gcc/arm-none-eabi/9.2.1/../../../../arm-none-eabi/lib/thumb/v8-a+simd/hard/libstdc++.a(class_type_info.o)

.ARM.extab.text._ZN10__cxxabiv117__class_type_infoD2Ev
                0x0000000000086f58        0x0
 .ARM.extab.text._ZN10__cxxabiv117__class_type_infoD2Ev
                0x0000000000086f58        0x0 /home/olf/projects/circle/gcc-arm-9.2-2019.12-x86_64-arm-none-eabi/bin/../lib/gcc/arm-none-eabi/9.2.1/../../../../arm-none-eabi/lib/thumb/v8-a+simd/hard/libstdc++.a(class_type_info.o)

.ARM.extab.text._ZN10__cxxabiv117__class_type_infoD0Ev
                0x0000000000086f58        0x0
 .ARM.extab.text._ZN10__cxxabiv117__class_type_infoD0Ev
                0x0000000000086f58        0x0 /home/olf/projects/circle/gcc-arm-9.2-2019.12-x86_64-arm-none-eabi/bin/../lib/gcc/arm-none-eabi/9.2.1/../../../../arm-none-eabi/lib/thumb/v8-a+simd/hard/libstdc++.a(class_type_info.o)

.ARM.extab.text._ZNK10__cxxabiv117__class_type_info12__do_dyncastEiNS0_10__sub_kindEPKS0_PKvS3_S5_RNS0_16__dyncast_resultE
                0x0000000000086f58        0x0
 .ARM.extab.text._ZNK10__cxxabiv117__class_type_info12__do_dyncastEiNS0_10__sub_kindEPKS0_PKvS3_S5_RNS0_16__dyncast_resultE
                0x0000000000086f58        0x0 /home/olf/projects/circle/gcc-arm-9.2-2019.12-x86_64-arm-none-eabi/bin/../lib/gcc/arm-none-eabi/9.2.1/../../../../arm-none-eabi/lib/thumb/v8-a+simd/hard/libstdc++.a(class_type_info.o)

.ARM.extab.text._ZNK10__cxxabiv117__class_type_info11__do_upcastEPKS0_PKvRNS0_15__upcast_resultE
                0x0000000000086f58        0x0
 .ARM.extab.text._ZNK10__cxxabiv117__class_type_info11__do_upcastEPKS0_PKvRNS0_15__upcast_resultE
                0x0000000000086f58        0x0 /home/olf/projects/circle/gcc-arm-9.2-2019.12-x86_64-arm-none-eabi/bin/../lib/gcc/arm-none-eabi/9.2.1/../../../../arm-none-eabi/lib/thumb/v8-a+simd/hard/libstdc++.a(class_type_info.o)

.ARM.extab.text._ZNK10__cxxabiv117__class_type_info10__do_catchEPKSt9type_infoPPvj
                0x0000000000086f58        0x0
 .ARM.extab.text._ZNK10__cxxabiv117__class_type_info10__do_catchEPKSt9type_infoPPvj
                0x0000000000086f58        0x0 /home/olf/projects/circle/gcc-arm-9.2-2019.12-x86_64-arm-none-eabi/bin/../lib/gcc/arm-none-eabi/9.2.1/../../../../arm-none-eabi/lib/thumb/v8-a+simd/hard/libstdc++.a(class_type_info.o)

.ARM.extab.text._ZdlPvj
                0x0000000000086f58        0x0
 .ARM.extab.text._ZdlPvj
                0x0000000000086f58        0x0 /home/olf/projects/circle/gcc-arm-9.2-2019.12-x86_64-arm-none-eabi/bin/../lib/gcc/arm-none-eabi/9.2.1/../../../../arm-none-eabi/lib/thumb/v8-a+simd/hard/libstdc++.a(del_ops.o)

.ARM.extab.text._ZdaPv
                0x0000000000086f58        0x0
 .ARM.extab.text._ZdaPv
                0x0000000000086f58        0x0 /home/olf/projects/circle/gcc-arm-9.2-2019.12-x86_64-arm-none-eabi/bin/../lib/gcc/arm-none-eabi/9.2.1/../../../../arm-none-eabi/lib/thumb/v8-a+simd/hard/libstdc++.a(del_opv.o)

.ARM.extab.text.__cxa_type_match
                0x0000000000086f58        0x0
 .ARM.extab.text.__cxa_type_match
                0x0000000000086f58        0x0 /home/olf/projects/circle/gcc-arm-9.2-2019.12-x86_64-arm-none-eabi/bin/../lib/gcc/arm-none-eabi/9.2.1/../../../../arm-none-eabi/lib/thumb/v8-a+simd/hard/libstdc++.a(eh_arm.o)

.ARM.extab.text.__cxa_begin_cleanup
                0x0000000000086f58        0x0
 .ARM.extab.text.__cxa_begin_cleanup
                0x0000000000086f58        0x0 /home/olf/projects/circle/gcc-arm-9.2-2019.12-x86_64-arm-none-eabi/bin/../lib/gcc/arm-none-eabi/9.2.1/../../../../arm-none-eabi/lib/thumb/v8-a+simd/hard/libstdc++.a(eh_arm.o)

.ARM.extab.text.__gnu_end_cleanup
                0x0000000000086f58        0x0
 .ARM.extab.text.__gnu_end_cleanup
                0x0000000000086f58        0x0 /home/olf/projects/circle/gcc-arm-9.2-2019.12-x86_64-arm-none-eabi/bin/../lib/gcc/arm-none-eabi/9.2.1/../../../../arm-none-eabi/lib/thumb/v8-a+simd/hard/libstdc++.a(eh_arm.o)

.ARM.extab.text.unlikely.__cxa_bad_cast
                0x0000000000086f58        0xc
 .ARM.extab.text.unlikely.__cxa_bad_cast
                0x0000000000086f58        0xc /home/olf/projects/circle/gcc-arm-9.2-2019.12-x86_64-arm-none-eabi/bin/../lib/gcc/arm-none-eabi/9.2.1/../../../../arm-none-eabi/lib/thumb/v8-a+simd/hard/libstdc++.a(eh_aux_runtime.o)

.ARM.extab.text.unlikely.__cxa_bad_typeid
                0x0000000000086f64        0xc
 .ARM.extab.text.unlikely.__cxa_bad_typeid
                0x0000000000086f64        0xc /home/olf/projects/circle/gcc-arm-9.2-2019.12-x86_64-arm-none-eabi/bin/../lib/gcc/arm-none-eabi/9.2.1/../../../../arm-none-eabi/lib/thumb/v8-a+simd/hard/libstdc++.a(eh_aux_runtime.o)

.ARM.extab.text.unlikely.__cxa_throw_bad_array_new_length
                0x0000000000086f70        0xc
 .ARM.extab.text.unlikely.__cxa_throw_bad_array_new_length
                0x0000000000086f70        0xc /home/olf/projects/circle/gcc-arm-9.2-2019.12-x86_64-arm-none-eabi/bin/../lib/gcc/arm-none-eabi/9.2.1/../../../../arm-none-eabi/lib/thumb/v8-a+simd/hard/libstdc++.a(eh_aux_runtime.o)

.ARM.extab.text._ZNSt9exceptionD2Ev
                0x0000000000086f7c        0x0
 .ARM.extab.text._ZNSt9exceptionD2Ev
                0x0000000000086f7c        0x0 /home/olf/projects/circle/gcc-arm-9.2-2019.12-x86_64-arm-none-eabi/bin/../lib/gcc/arm-none-eabi/9.2.1/../../../../arm-none-eabi/lib/thumb/v8-a+simd/hard/libstdc++.a(eh_exception.o)

.ARM.extab.text._ZNSt13bad_exceptionD2Ev
                0x0000000000086f7c        0x0
 .ARM.extab.text._ZNSt13bad_exceptionD2Ev
                0x0000000000086f7c        0x0 /home/olf/projects/circle/gcc-arm-9.2-2019.12-x86_64-arm-none-eabi/bin/../lib/gcc/arm-none-eabi/9.2.1/../../../../arm-none-eabi/lib/thumb/v8-a+simd/hard/libstdc++.a(eh_exception.o)

.ARM.extab.text._ZNKSt9exception4whatEv
                0x0000000000086f7c        0x0
 .ARM.extab.text._ZNKSt9exception4whatEv
                0x0000000000086f7c        0x0 /home/olf/projects/circle/gcc-arm-9.2-2019.12-x86_64-arm-none-eabi/bin/../lib/gcc/arm-none-eabi/9.2.1/../../../../arm-none-eabi/lib/thumb/v8-a+simd/hard/libstdc++.a(eh_exception.o)

.ARM.extab.text._ZNKSt13bad_exception4whatEv
                0x0000000000086f7c        0x0
 .ARM.extab.text._ZNKSt13bad_exception4whatEv
                0x0000000000086f7c        0x0 /home/olf/projects/circle/gcc-arm-9.2-2019.12-x86_64-arm-none-eabi/bin/../lib/gcc/arm-none-eabi/9.2.1/../../../../arm-none-eabi/lib/thumb/v8-a+simd/hard/libstdc++.a(eh_exception.o)

.ARM.extab.text._ZNSt9exceptionD0Ev
                0x0000000000086f7c        0x0
 .ARM.extab.text._ZNSt9exceptionD0Ev
                0x0000000000086f7c        0x0 /home/olf/projects/circle/gcc-arm-9.2-2019.12-x86_64-arm-none-eabi/bin/../lib/gcc/arm-none-eabi/9.2.1/../../../../arm-none-eabi/lib/thumb/v8-a+simd/hard/libstdc++.a(eh_exception.o)

.ARM.extab.text._ZNSt13bad_exceptionD0Ev
                0x0000000000086f7c        0x0
 .ARM.extab.text._ZNSt13bad_exceptionD0Ev
                0x0000000000086f7c        0x0 /home/olf/projects/circle/gcc-arm-9.2-2019.12-x86_64-arm-none-eabi/bin/../lib/gcc/arm-none-eabi/9.2.1/../../../../arm-none-eabi/lib/thumb/v8-a+simd/hard/libstdc++.a(eh_exception.o)

.ARM.extab.text._ZN10__cxxabiv115__forced_unwindD2Ev
                0x0000000000086f7c        0x0
 .ARM.extab.text._ZN10__cxxabiv115__forced_unwindD2Ev
                0x0000000000086f7c        0x0 /home/olf/projects/circle/gcc-arm-9.2-2019.12-x86_64-arm-none-eabi/bin/../lib/gcc/arm-none-eabi/9.2.1/../../../../arm-none-eabi/lib/thumb/v8-a+simd/hard/libstdc++.a(eh_exception.o)

.ARM.extab.text._ZN10__cxxabiv115__forced_unwindD0Ev
                0x0000000000086f7c        0x0
 .ARM.extab.text._ZN10__cxxabiv115__forced_unwindD0Ev
                0x0000000000086f7c        0x0 /home/olf/projects/circle/gcc-arm-9.2-2019.12-x86_64-arm-none-eabi/bin/../lib/gcc/arm-none-eabi/9.2.1/../../../../arm-none-eabi/lib/thumb/v8-a+simd/hard/libstdc++.a(eh_exception.o)

.ARM.extab.text._ZN10__cxxabiv119__foreign_exceptionD2Ev
                0x0000000000086f7c        0x0
 .ARM.extab.text._ZN10__cxxabiv119__foreign_exceptionD2Ev
                0x0000000000086f7c        0x0 /home/olf/projects/circle/gcc-arm-9.2-2019.12-x86_64-arm-none-eabi/bin/../lib/gcc/arm-none-eabi/9.2.1/../../../../arm-none-eabi/lib/thumb/v8-a+simd/hard/libstdc++.a(eh_exception.o)

.ARM.extab.text._ZN10__cxxabiv119__foreign_exceptionD0Ev
                0x0000000000086f7c        0x0
 .ARM.extab.text._ZN10__cxxabiv119__foreign_exceptionD0Ev
                0x0000000000086f7c        0x0 /home/olf/projects/circle/gcc-arm-9.2-2019.12-x86_64-arm-none-eabi/bin/../lib/gcc/arm-none-eabi/9.2.1/../../../../arm-none-eabi/lib/thumb/v8-a+simd/hard/libstdc++.a(eh_exception.o)

.ARM.extab.text._ZGTtNKSt9exceptionD1Ev
                0x0000000000086f7c        0x0
 .ARM.extab.text._ZGTtNKSt9exceptionD1Ev
                0x0000000000086f7c        0x0 /home/olf/projects/circle/gcc-arm-9.2-2019.12-x86_64-arm-none-eabi/bin/../lib/gcc/arm-none-eabi/9.2.1/../../../../arm-none-eabi/lib/thumb/v8-a+simd/hard/libstdc++.a(eh_exception.o)

.ARM.extab.text._ZGTtNKSt13bad_exceptionD1Ev
                0x0000000000086f7c        0x0
 .ARM.extab.text._ZGTtNKSt13bad_exceptionD1Ev
                0x0000000000086f7c        0x0 /home/olf/projects/circle/gcc-arm-9.2-2019.12-x86_64-arm-none-eabi/bin/../lib/gcc/arm-none-eabi/9.2.1/../../../../arm-none-eabi/lib/thumb/v8-a+simd/hard/libstdc++.a(eh_exception.o)

.ARM.extab.text.__cxa_get_globals_fast
                0x0000000000086f7c        0x0
 .ARM.extab.text.__cxa_get_globals_fast
                0x0000000000086f7c        0x0 /home/olf/projects/circle/gcc-arm-9.2-2019.12-x86_64-arm-none-eabi/bin/../lib/gcc/arm-none-eabi/9.2.1/../../../../arm-none-eabi/lib/thumb/v8-a+simd/hard/libstdc++.a(eh_globals.o)

.ARM.extab.text.__cxa_get_globals
                0x0000000000086f7c        0x0
 .ARM.extab.text.__cxa_get_globals
                0x0000000000086f7c        0x0 /home/olf/projects/circle/gcc-arm-9.2-2019.12-x86_64-arm-none-eabi/bin/../lib/gcc/arm-none-eabi/9.2.1/../../../../arm-none-eabi/lib/thumb/v8-a+simd/hard/libstdc++.a(eh_globals.o)

.ARM.extab.text._ZL28read_encoded_value_with_basehjPKhPj
                0x0000000000086f7c        0x0
 .ARM.extab.text._ZL28read_encoded_value_with_basehjPKhPj
                0x0000000000086f7c        0x0 /home/olf/projects/circle/gcc-arm-9.2-2019.12-x86_64-arm-none-eabi/bin/../lib/gcc/arm-none-eabi/9.2.1/../../../../arm-none-eabi/lib/thumb/v8-a+simd/hard/libstdc++.a(eh_personality.o)

.ARM.extab.text._ZL21base_of_encoded_valuehP15_Unwind_Context
                0x0000000000086f7c        0xc
 .ARM.extab.text._ZL21base_of_encoded_valuehP15_Unwind_Context
                0x0000000000086f7c        0xc /home/olf/projects/circle/gcc-arm-9.2-2019.12-x86_64-arm-none-eabi/bin/../lib/gcc/arm-none-eabi/9.2.1/../../../../arm-none-eabi/lib/thumb/v8-a+simd/hard/libstdc++.a(eh_personality.o)

.ARM.extab.text._ZL17parse_lsda_headerP15_Unwind_ContextPKhP16lsda_header_info
                0x0000000000086f88        0x0
 .ARM.extab.text._ZL17parse_lsda_headerP15_Unwind_ContextPKhP16lsda_header_info
                0x0000000000086f88        0x0 /home/olf/projects/circle/gcc-arm-9.2-2019.12-x86_64-arm-none-eabi/bin/../lib/gcc/arm-none-eabi/9.2.1/../../../../arm-none-eabi/lib/thumb/v8-a+simd/hard/libstdc++.a(eh_personality.o)

.ARM.extab.text.__gxx_personality_v0
                0x0000000000086f88       0x24
 .ARM.extab.text.__gxx_personality_v0
                0x0000000000086f88       0x24 /home/olf/projects/circle/gcc-arm-9.2-2019.12-x86_64-arm-none-eabi/bin/../lib/gcc/arm-none-eabi/9.2.1/../../../../arm-none-eabi/lib/thumb/v8-a+simd/hard/libstdc++.a(eh_personality.o)

.ARM.extab.text._ZN10__cxxabiv111__terminateEPFvvE
                0x0000000000086fac       0x2c
 .ARM.extab.text._ZN10__cxxabiv111__terminateEPFvvE
                0x0000000000086fac       0x2c /home/olf/projects/circle/gcc-arm-9.2-2019.12-x86_64-arm-none-eabi/bin/../lib/gcc/arm-none-eabi/9.2.1/../../../../arm-none-eabi/lib/thumb/v8-a+simd/hard/libstdc++.a(eh_terminate.o)

.ARM.extab.text._ZSt9terminatev
                0x0000000000086fd8        0x0
 .ARM.extab.text._ZSt9terminatev
                0x0000000000086fd8        0x0 /home/olf/projects/circle/gcc-arm-9.2-2019.12-x86_64-arm-none-eabi/bin/../lib/gcc/arm-none-eabi/9.2.1/../../../../arm-none-eabi/lib/thumb/v8-a+simd/hard/libstdc++.a(eh_terminate.o)

.ARM.extab.text._ZN10__cxxabiv112__unexpectedEPFvvE
                0x0000000000086fd8        0xc
 .ARM.extab.text._ZN10__cxxabiv112__unexpectedEPFvvE
                0x0000000000086fd8        0xc /home/olf/projects/circle/gcc-arm-9.2-2019.12-x86_64-arm-none-eabi/bin/../lib/gcc/arm-none-eabi/9.2.1/../../../../arm-none-eabi/lib/thumb/v8-a+simd/hard/libstdc++.a(eh_terminate.o)

.ARM.extab.text._ZSt10unexpectedv
                0x0000000000086fe4        0xc
 .ARM.extab.text._ZSt10unexpectedv
                0x0000000000086fe4        0xc /home/olf/projects/circle/gcc-arm-9.2-2019.12-x86_64-arm-none-eabi/bin/../lib/gcc/arm-none-eabi/9.2.1/../../../../arm-none-eabi/lib/thumb/v8-a+simd/hard/libstdc++.a(eh_terminate.o)

.ARM.extab.text._ZSt13set_terminatePFvvE
                0x0000000000086ff0        0x0
 .ARM.extab.text._ZSt13set_terminatePFvvE
                0x0000000000086ff0        0x0 /home/olf/projects/circle/gcc-arm-9.2-2019.12-x86_64-arm-none-eabi/bin/../lib/gcc/arm-none-eabi/9.2.1/../../../../arm-none-eabi/lib/thumb/v8-a+simd/hard/libstdc++.a(eh_terminate.o)

.ARM.extab.text._ZSt13get_terminatev
                0x0000000000086ff0        0x0
 .ARM.extab.text._ZSt13get_terminatev
                0x0000000000086ff0        0x0 /home/olf/projects/circle/gcc-arm-9.2-2019.12-x86_64-arm-none-eabi/bin/../lib/gcc/arm-none-eabi/9.2.1/../../../../arm-none-eabi/lib/thumb/v8-a+simd/hard/libstdc++.a(eh_terminate.o)

.ARM.extab.text._ZSt14set_unexpectedPFvvE
                0x0000000000086ff0        0x0
 .ARM.extab.text._ZSt14set_unexpectedPFvvE
                0x0000000000086ff0        0x0 /home/olf/projects/circle/gcc-arm-9.2-2019.12-x86_64-arm-none-eabi/bin/../lib/gcc/arm-none-eabi/9.2.1/../../../../arm-none-eabi/lib/thumb/v8-a+simd/hard/libstdc++.a(eh_terminate.o)

.ARM.extab.text._ZSt14get_unexpectedv
                0x0000000000086ff0        0x0
 .ARM.extab.text._ZSt14get_unexpectedv
                0x0000000000086ff0        0x0 /home/olf/projects/circle/gcc-arm-9.2-2019.12-x86_64-arm-none-eabi/bin/../lib/gcc/arm-none-eabi/9.2.1/../../../../arm-none-eabi/lib/thumb/v8-a+simd/hard/libstdc++.a(eh_terminate.o)

.ARM.extab.text._ZL23__gxx_exception_cleanup19_Unwind_Reason_CodeP21_Unwind_Control_Block
                0x0000000000086ff0        0x0
 .ARM.extab.text._ZL23__gxx_exception_cleanup19_Unwind_Reason_CodeP21_Unwind_Control_Block
                0x0000000000086ff0        0x0 /home/olf/projects/circle/gcc-arm-9.2-2019.12-x86_64-arm-none-eabi/bin/../lib/gcc/arm-none-eabi/9.2.1/../../../../arm-none-eabi/lib/thumb/v8-a+simd/hard/libstdc++.a(eh_throw.o)

.ARM.extab.text.__cxa_init_primary_exception
                0x0000000000086ff0        0x0
 .ARM.extab.text.__cxa_init_primary_exception
                0x0000000000086ff0        0x0 /home/olf/projects/circle/gcc-arm-9.2-2019.12-x86_64-arm-none-eabi/bin/../lib/gcc/arm-none-eabi/9.2.1/../../../../arm-none-eabi/lib/thumb/v8-a+simd/hard/libstdc++.a(eh_throw.o)

.ARM.extab.text.__cxa_throw
                0x0000000000086ff0        0x0
 .ARM.extab.text.__cxa_throw
                0x0000000000086ff0        0x0 /home/olf/projects/circle/gcc-arm-9.2-2019.12-x86_64-arm-none-eabi/bin/../lib/gcc/arm-none-eabi/9.2.1/../../../../arm-none-eabi/lib/thumb/v8-a+simd/hard/libstdc++.a(eh_throw.o)

.ARM.extab.text.__cxa_rethrow
                0x0000000000086ff0        0x0
 .ARM.extab.text.__cxa_rethrow
                0x0000000000086ff0        0x0 /home/olf/projects/circle/gcc-arm-9.2-2019.12-x86_64-arm-none-eabi/bin/../lib/gcc/arm-none-eabi/9.2.1/../../../../arm-none-eabi/lib/thumb/v8-a+simd/hard/libstdc++.a(eh_throw.o)

.ARM.extab.text._Znwj
                0x0000000000086ff0        0x0
 .ARM.extab.text._Znwj
                0x0000000000086ff0        0x0 /home/olf/projects/circle/gcc-arm-9.2-2019.12-x86_64-arm-none-eabi/bin/../lib/gcc/arm-none-eabi/9.2.1/../../../../arm-none-eabi/lib/thumb/v8-a+simd/hard/libstdc++.a(new_op.o)

.ARM.extab.text._Znaj
                0x0000000000086ff0        0x0
 .ARM.extab.text._Znaj
                0x0000000000086ff0        0x0 /home/olf/projects/circle/gcc-arm-9.2-2019.12-x86_64-arm-none-eabi/bin/../lib/gcc/arm-none-eabi/9.2.1/../../../../arm-none-eabi/lib/thumb/v8-a+simd/hard/libstdc++.a(new_opv.o)

.ARM.extab.text.__cxa_pure_virtual
                0x0000000000086ff0        0xc
 .ARM.extab.text.__cxa_pure_virtual
                0x0000000000086ff0        0xc /home/olf/projects/circle/gcc-arm-9.2-2019.12-x86_64-arm-none-eabi/bin/../lib/gcc/arm-none-eabi/9.2.1/../../../../arm-none-eabi/lib/thumb/v8-a+simd/hard/libstdc++.a(pure.o)

.ARM.extab.text.__cxa_deleted_virtual
                0x0000000000086ffc        0xc
 .ARM.extab.text.__cxa_deleted_virtual
                0x0000000000086ffc        0xc /home/olf/projects/circle/gcc-arm-9.2-2019.12-x86_64-arm-none-eabi/bin/../lib/gcc/arm-none-eabi/9.2.1/../../../../arm-none-eabi/lib/thumb/v8-a+simd/hard/libstdc++.a(pure.o)

.ARM.extab.text._ZN10__cxxabiv120__si_class_type_infoD2Ev
                0x0000000000087008        0x0
 .ARM.extab.text._ZN10__cxxabiv120__si_class_type_infoD2Ev
                0x0000000000087008        0x0 /home/olf/projects/circle/gcc-arm-9.2-2019.12-x86_64-arm-none-eabi/bin/../lib/gcc/arm-none-eabi/9.2.1/../../../../arm-none-eabi/lib/thumb/v8-a+simd/hard/libstdc++.a(si_class_type_info.o)

.ARM.extab.text._ZN10__cxxabiv120__si_class_type_infoD0Ev
                0x0000000000087008        0x0
 .ARM.extab.text._ZN10__cxxabiv120__si_class_type_infoD0Ev
                0x0000000000087008        0x0 /home/olf/projects/circle/gcc-arm-9.2-2019.12-x86_64-arm-none-eabi/bin/../lib/gcc/arm-none-eabi/9.2.1/../../../../arm-none-eabi/lib/thumb/v8-a+simd/hard/libstdc++.a(si_class_type_info.o)

.ARM.extab.text._ZNK10__cxxabiv120__si_class_type_info20__do_find_public_srcEiPKvPKNS_17__class_type_infoES2_
                0x0000000000087008        0x0
 .ARM.extab.text._ZNK10__cxxabiv120__si_class_type_info20__do_find_public_srcEiPKvPKNS_17__class_type_infoES2_
                0x0000000000087008        0x0 /home/olf/projects/circle/gcc-arm-9.2-2019.12-x86_64-arm-none-eabi/bin/../lib/gcc/arm-none-eabi/9.2.1/../../../../arm-none-eabi/lib/thumb/v8-a+simd/hard/libstdc++.a(si_class_type_info.o)

.ARM.extab.text._ZNK10__cxxabiv120__si_class_type_info12__do_dyncastEiNS_17__class_type_info10__sub_kindEPKS1_PKvS4_S6_RNS1_16__dyncast_resultE
                0x0000000000087008        0x0
 .ARM.extab.text._ZNK10__cxxabiv120__si_class_type_info12__do_dyncastEiNS_17__class_type_info10__sub_kindEPKS1_PKvS4_S6_RNS1_16__dyncast_resultE
                0x0000000000087008        0x0 /home/olf/projects/circle/gcc-arm-9.2-2019.12-x86_64-arm-none-eabi/bin/../lib/gcc/arm-none-eabi/9.2.1/../../../../arm-none-eabi/lib/thumb/v8-a+simd/hard/libstdc++.a(si_class_type_info.o)

.ARM.extab.text._ZNK10__cxxabiv120__si_class_type_info11__do_upcastEPKNS_17__class_type_infoEPKvRNS1_15__upcast_resultE
                0x0000000000087008        0x0
 .ARM.extab.text._ZNK10__cxxabiv120__si_class_type_info11__do_upcastEPKNS_17__class_type_infoEPKvRNS1_15__upcast_resultE
                0x0000000000087008        0x0 /home/olf/projects/circle/gcc-arm-9.2-2019.12-x86_64-arm-none-eabi/bin/../lib/gcc/arm-none-eabi/9.2.1/../../../../arm-none-eabi/lib/thumb/v8-a+simd/hard/libstdc++.a(si_class_type_info.o)

.ARM.extab.text._ZNSt9type_infoD2Ev
                0x0000000000087008        0x0
 .ARM.extab.text._ZNSt9type_infoD2Ev
                0x0000000000087008        0x0 /home/olf/projects/circle/gcc-arm-9.2-2019.12-x86_64-arm-none-eabi/bin/../lib/gcc/arm-none-eabi/9.2.1/../../../../arm-none-eabi/lib/thumb/v8-a+simd/hard/libstdc++.a(tinfo.o)

.ARM.extab.text._ZNKSt9type_info14__is_pointer_pEv
                0x0000000000087008        0x0
 .ARM.extab.text._ZNKSt9type_info14__is_pointer_pEv
                0x0000000000087008        0x0 /home/olf/projects/circle/gcc-arm-9.2-2019.12-x86_64-arm-none-eabi/bin/../lib/gcc/arm-none-eabi/9.2.1/../../../../arm-none-eabi/lib/thumb/v8-a+simd/hard/libstdc++.a(tinfo.o)

.ARM.extab.text._ZNKSt9type_info11__do_upcastEPKN10__cxxabiv117__class_type_infoEPPv
                0x0000000000087008        0x0
 .ARM.extab.text._ZNKSt9type_info11__do_upcastEPKN10__cxxabiv117__class_type_infoEPPv
                0x0000000000087008        0x0 /home/olf/projects/circle/gcc-arm-9.2-2019.12-x86_64-arm-none-eabi/bin/../lib/gcc/arm-none-eabi/9.2.1/../../../../arm-none-eabi/lib/thumb/v8-a+simd/hard/libstdc++.a(tinfo.o)

.ARM.extab.text._ZNSt9type_infoD0Ev
                0x0000000000087008        0x0
 .ARM.extab.text._ZNSt9type_infoD0Ev
                0x0000000000087008        0x0 /home/olf/projects/circle/gcc-arm-9.2-2019.12-x86_64-arm-none-eabi/bin/../lib/gcc/arm-none-eabi/9.2.1/../../../../arm-none-eabi/lib/thumb/v8-a+simd/hard/libstdc++.a(tinfo.o)

.ARM.extab.text._ZNKSt9type_infoeqERKS_
                0x0000000000087008        0x0
 .ARM.extab.text._ZNKSt9type_infoeqERKS_
                0x0000000000087008        0x0 /home/olf/projects/circle/gcc-arm-9.2-2019.12-x86_64-arm-none-eabi/bin/../lib/gcc/arm-none-eabi/9.2.1/../../../../arm-none-eabi/lib/thumb/v8-a+simd/hard/libstdc++.a(tinfo.o)

.ARM.extab.text._ZNKSt9type_info10__do_catchEPKS_PPvj
                0x0000000000087008        0x0
 .ARM.extab.text._ZNKSt9type_info10__do_catchEPKS_PPvj
                0x0000000000087008        0x0 /home/olf/projects/circle/gcc-arm-9.2-2019.12-x86_64-arm-none-eabi/bin/../lib/gcc/arm-none-eabi/9.2.1/../../../../arm-none-eabi/lib/thumb/v8-a+simd/hard/libstdc++.a(tinfo.o)

.ARM.extab.text._ZN10__cxxabiv121__vmi_class_type_infoD2Ev
                0x0000000000087008        0x0
 .ARM.extab.text._ZN10__cxxabiv121__vmi_class_type_infoD2Ev
                0x0000000000087008        0x0 /home/olf/projects/circle/gcc-arm-9.2-2019.12-x86_64-arm-none-eabi/bin/../lib/gcc/arm-none-eabi/9.2.1/../../../../arm-none-eabi/lib/thumb/v8-a+simd/hard/libstdc++.a(vmi_class_type_info.o)

.ARM.extab.text._ZN10__cxxabiv121__vmi_class_type_infoD0Ev
                0x0000000000087008        0x0
 .ARM.extab.text._ZN10__cxxabiv121__vmi_class_type_infoD0Ev
                0x0000000000087008        0x0 /home/olf/projects/circle/gcc-arm-9.2-2019.12-x86_64-arm-none-eabi/bin/../lib/gcc/arm-none-eabi/9.2.1/../../../../arm-none-eabi/lib/thumb/v8-a+simd/hard/libstdc++.a(vmi_class_type_info.o)

.ARM.extab.text._ZNK10__cxxabiv121__vmi_class_type_info20__do_find_public_srcEiPKvPKNS_17__class_type_infoES2_
                0x0000000000087008        0x0
 .ARM.extab.text._ZNK10__cxxabiv121__vmi_class_type_info20__do_find_public_srcEiPKvPKNS_17__class_type_infoES2_
                0x0000000000087008        0x0 /home/olf/projects/circle/gcc-arm-9.2-2019.12-x86_64-arm-none-eabi/bin/../lib/gcc/arm-none-eabi/9.2.1/../../../../arm-none-eabi/lib/thumb/v8-a+simd/hard/libstdc++.a(vmi_class_type_info.o)

.ARM.extab.text._ZNK10__cxxabiv121__vmi_class_type_info12__do_dyncastEiNS_17__class_type_info10__sub_kindEPKS1_PKvS4_S6_RNS1_16__dyncast_resultE
                0x0000000000087008        0x0
 .ARM.extab.text._ZNK10__cxxabiv121__vmi_class_type_info12__do_dyncastEiNS_17__class_type_info10__sub_kindEPKS1_PKvS4_S6_RNS1_16__dyncast_resultE
                0x0000000000087008        0x0 /home/olf/projects/circle/gcc-arm-9.2-2019.12-x86_64-arm-none-eabi/bin/../lib/gcc/arm-none-eabi/9.2.1/../../../../arm-none-eabi/lib/thumb/v8-a+simd/hard/libstdc++.a(vmi_class_type_info.o)

.ARM.extab.text._ZNK10__cxxabiv121__vmi_class_type_info11__do_upcastEPKNS_17__class_type_infoEPKvRNS1_15__upcast_resultE
                0x0000000000087008        0x0
 .ARM.extab.text._ZNK10__cxxabiv121__vmi_class_type_info11__do_upcastEPKNS_17__class_type_infoEPKvRNS1_15__upcast_resultE
                0x0000000000087008        0x0 /home/olf/projects/circle/gcc-arm-9.2-2019.12-x86_64-arm-none-eabi/bin/../lib/gcc/arm-none-eabi/9.2.1/../../../../arm-none-eabi/lib/thumb/v8-a+simd/hard/libstdc++.a(vmi_class_type_info.o)

.ARM.extab.text._ZN9__gnu_cxx27__verbose_terminate_handlerEv
                0x0000000000087008       0x34
 .ARM.extab.text._ZN9__gnu_cxx27__verbose_terminate_handlerEv
                0x0000000000087008       0x34 /home/olf/projects/circle/gcc-arm-9.2-2019.12-x86_64-arm-none-eabi/bin/../lib/gcc/arm-none-eabi/9.2.1/../../../../arm-none-eabi/lib/thumb/v8-a+simd/hard/libstdc++.a(vterminate.o)

.ARM.extab.text._ZNKSt9bad_alloc4whatEv
                0x000000000008703c        0x0
 .ARM.extab.text._ZNKSt9bad_alloc4whatEv
                0x000000000008703c        0x0 /home/olf/projects/circle/gcc-arm-9.2-2019.12-x86_64-arm-none-eabi/bin/../lib/gcc/arm-none-eabi/9.2.1/../../../../arm-none-eabi/lib/thumb/v8-a+simd/hard/libstdc++.a(bad_alloc.o)

.ARM.extab.text._ZNSt9bad_allocD2Ev
                0x000000000008703c        0x0
 .ARM.extab.text._ZNSt9bad_allocD2Ev
                0x000000000008703c        0x0 /home/olf/projects/circle/gcc-arm-9.2-2019.12-x86_64-arm-none-eabi/bin/../lib/gcc/arm-none-eabi/9.2.1/../../../../arm-none-eabi/lib/thumb/v8-a+simd/hard/libstdc++.a(bad_alloc.o)

.ARM.extab.text._ZNSt9bad_allocD0Ev
                0x000000000008703c        0x0
 .ARM.extab.text._ZNSt9bad_allocD0Ev
                0x000000000008703c        0x0 /home/olf/projects/circle/gcc-arm-9.2-2019.12-x86_64-arm-none-eabi/bin/../lib/gcc/arm-none-eabi/9.2.1/../../../../arm-none-eabi/lib/thumb/v8-a+simd/hard/libstdc++.a(bad_alloc.o)

.ARM.extab.text._ZNKSt20bad_array_new_length4whatEv
                0x000000000008703c        0x0
 .ARM.extab.text._ZNKSt20bad_array_new_length4whatEv
                0x000000000008703c        0x0 /home/olf/projects/circle/gcc-arm-9.2-2019.12-x86_64-arm-none-eabi/bin/../lib/gcc/arm-none-eabi/9.2.1/../../../../arm-none-eabi/lib/thumb/v8-a+simd/hard/libstdc++.a(bad_array_new.o)

.ARM.extab.text._ZNSt20bad_array_new_lengthD2Ev
                0x000000000008703c        0x0
 .ARM.extab.text._ZNSt20bad_array_new_lengthD2Ev
                0x000000000008703c        0x0 /home/olf/projects/circle/gcc-arm-9.2-2019.12-x86_64-arm-none-eabi/bin/../lib/gcc/arm-none-eabi/9.2.1/../../../../arm-none-eabi/lib/thumb/v8-a+simd/hard/libstdc++.a(bad_array_new.o)

.ARM.extab.text._ZNSt20bad_array_new_lengthD0Ev
                0x000000000008703c        0x0
 .ARM.extab.text._ZNSt20bad_array_new_lengthD0Ev
                0x000000000008703c        0x0 /home/olf/projects/circle/gcc-arm-9.2-2019.12-x86_64-arm-none-eabi/bin/../lib/gcc/arm-none-eabi/9.2.1/../../../../arm-none-eabi/lib/thumb/v8-a+simd/hard/libstdc++.a(bad_array_new.o)

.ARM.extab.text._ZNKSt8bad_cast4whatEv
                0x000000000008703c        0x0
 .ARM.extab.text._ZNKSt8bad_cast4whatEv
                0x000000000008703c        0x0 /home/olf/projects/circle/gcc-arm-9.2-2019.12-x86_64-arm-none-eabi/bin/../lib/gcc/arm-none-eabi/9.2.1/../../../../arm-none-eabi/lib/thumb/v8-a+simd/hard/libstdc++.a(bad_cast.o)

.ARM.extab.text._ZNSt8bad_castD2Ev
                0x000000000008703c        0x0
 .ARM.extab.text._ZNSt8bad_castD2Ev
                0x000000000008703c        0x0 /home/olf/projects/circle/gcc-arm-9.2-2019.12-x86_64-arm-none-eabi/bin/../lib/gcc/arm-none-eabi/9.2.1/../../../../arm-none-eabi/lib/thumb/v8-a+simd/hard/libstdc++.a(bad_cast.o)

.ARM.extab.text._ZNSt8bad_castD0Ev
                0x000000000008703c        0x0
 .ARM.extab.text._ZNSt8bad_castD0Ev
                0x000000000008703c        0x0 /home/olf/projects/circle/gcc-arm-9.2-2019.12-x86_64-arm-none-eabi/bin/../lib/gcc/arm-none-eabi/9.2.1/../../../../arm-none-eabi/lib/thumb/v8-a+simd/hard/libstdc++.a(bad_cast.o)

.ARM.extab.text._ZNKSt10bad_typeid4whatEv
                0x000000000008703c        0x0
 .ARM.extab.text._ZNKSt10bad_typeid4whatEv
                0x000000000008703c        0x0 /home/olf/projects/circle/gcc-arm-9.2-2019.12-x86_64-arm-none-eabi/bin/../lib/gcc/arm-none-eabi/9.2.1/../../../../arm-none-eabi/lib/thumb/v8-a+simd/hard/libstdc++.a(bad_typeid.o)

.ARM.extab.text._ZNSt10bad_typeidD2Ev
                0x000000000008703c        0x0
 .ARM.extab.text._ZNSt10bad_typeidD2Ev
                0x000000000008703c        0x0 /home/olf/projects/circle/gcc-arm-9.2-2019.12-x86_64-arm-none-eabi/bin/../lib/gcc/arm-none-eabi/9.2.1/../../../../arm-none-eabi/lib/thumb/v8-a+simd/hard/libstdc++.a(bad_typeid.o)

.ARM.extab.text._ZNSt10bad_typeidD0Ev
                0x000000000008703c        0x0
 .ARM.extab.text._ZNSt10bad_typeidD0Ev
                0x000000000008703c        0x0 /home/olf/projects/circle/gcc-arm-9.2-2019.12-x86_64-arm-none-eabi/bin/../lib/gcc/arm-none-eabi/9.2.1/../../../../arm-none-eabi/lib/thumb/v8-a+simd/hard/libstdc++.a(bad_typeid.o)

.ARM.extab.text._ZdlPv
                0x000000000008703c        0x0
 .ARM.extab.text._ZdlPv
                0x000000000008703c        0x0 /home/olf/projects/circle/gcc-arm-9.2-2019.12-x86_64-arm-none-eabi/bin/../lib/gcc/arm-none-eabi/9.2.1/../../../../arm-none-eabi/lib/thumb/v8-a+simd/hard/libstdc++.a(del_op.o)

.ARM.extab.text._ZN12_GLOBAL__N_14pool4freeEPv.constprop.0
                0x000000000008703c        0x0
 .ARM.extab.text._ZN12_GLOBAL__N_14pool4freeEPv.constprop.0
                0x000000000008703c        0x0 /home/olf/projects/circle/gcc-arm-9.2-2019.12-x86_64-arm-none-eabi/bin/../lib/gcc/arm-none-eabi/9.2.1/../../../../arm-none-eabi/lib/thumb/v8-a+simd/hard/libstdc++.a(eh_alloc.o)

.ARM.extab.text._ZN12_GLOBAL__N_14pool8allocateEj.constprop.0
                0x000000000008703c        0x0
 .ARM.extab.text._ZN12_GLOBAL__N_14pool8allocateEj.constprop.0
                0x000000000008703c        0x0 /home/olf/projects/circle/gcc-arm-9.2-2019.12-x86_64-arm-none-eabi/bin/../lib/gcc/arm-none-eabi/9.2.1/../../../../arm-none-eabi/lib/thumb/v8-a+simd/hard/libstdc++.a(eh_alloc.o)

.ARM.extab.text._ZN9__gnu_cxx9__freeresEv
                0x000000000008703c        0x0
 .ARM.extab.text._ZN9__gnu_cxx9__freeresEv
                0x000000000008703c        0x0 /home/olf/projects/circle/gcc-arm-9.2-2019.12-x86_64-arm-none-eabi/bin/../lib/gcc/arm-none-eabi/9.2.1/../../../../arm-none-eabi/lib/thumb/v8-a+simd/hard/libstdc++.a(eh_alloc.o)

.ARM.extab.text.__cxa_allocate_exception
                0x000000000008703c        0x0
 .ARM.extab.text.__cxa_allocate_exception
                0x000000000008703c        0x0 /home/olf/projects/circle/gcc-arm-9.2-2019.12-x86_64-arm-none-eabi/bin/../lib/gcc/arm-none-eabi/9.2.1/../../../../arm-none-eabi/lib/thumb/v8-a+simd/hard/libstdc++.a(eh_alloc.o)

.ARM.extab.text.__cxa_free_exception
                0x000000000008703c        0x0
 .ARM.extab.text.__cxa_free_exception
                0x000000000008703c        0x0 /home/olf/projects/circle/gcc-arm-9.2-2019.12-x86_64-arm-none-eabi/bin/../lib/gcc/arm-none-eabi/9.2.1/../../../../arm-none-eabi/lib/thumb/v8-a+simd/hard/libstdc++.a(eh_alloc.o)

.ARM.extab.text.__cxa_allocate_dependent_exception
                0x000000000008703c        0x0
 .ARM.extab.text.__cxa_allocate_dependent_exception
                0x000000000008703c        0x0 /home/olf/projects/circle/gcc-arm-9.2-2019.12-x86_64-arm-none-eabi/bin/../lib/gcc/arm-none-eabi/9.2.1/../../../../arm-none-eabi/lib/thumb/v8-a+simd/hard/libstdc++.a(eh_alloc.o)

.ARM.extab.text.__cxa_free_dependent_exception
                0x000000000008703c        0x0
 .ARM.extab.text.__cxa_free_dependent_exception
                0x000000000008703c        0x0 /home/olf/projects/circle/gcc-arm-9.2-2019.12-x86_64-arm-none-eabi/bin/../lib/gcc/arm-none-eabi/9.2.1/../../../../arm-none-eabi/lib/thumb/v8-a+simd/hard/libstdc++.a(eh_alloc.o)

.ARM.extab.text.startup._GLOBAL__sub_I__ZN9__gnu_cxx9__freeresEv
                0x000000000008703c        0x0
 .ARM.extab.text.startup._GLOBAL__sub_I__ZN9__gnu_cxx9__freeresEv
                0x000000000008703c        0x0 /home/olf/projects/circle/gcc-arm-9.2-2019.12-x86_64-arm-none-eabi/bin/../lib/gcc/arm-none-eabi/9.2.1/../../../../arm-none-eabi/lib/thumb/v8-a+simd/hard/libstdc++.a(eh_alloc.o)

.ARM.extab.text._ZN10__cxxabiv1L24__is_gxx_exception_classEPc
                0x000000000008703c        0x0
 .ARM.extab.text._ZN10__cxxabiv1L24__is_gxx_exception_classEPc
                0x000000000008703c        0x0 /home/olf/projects/circle/gcc-arm-9.2-2019.12-x86_64-arm-none-eabi/bin/../lib/gcc/arm-none-eabi/9.2.1/../../../../arm-none-eabi/lib/thumb/v8-a+simd/hard/libstdc++.a(eh_call.o)

.ARM.extab.text.__cxa_call_terminate
                0x000000000008703c        0x0
 .ARM.extab.text.__cxa_call_terminate
                0x000000000008703c        0x0 /home/olf/projects/circle/gcc-arm-9.2-2019.12-x86_64-arm-none-eabi/bin/../lib/gcc/arm-none-eabi/9.2.1/../../../../arm-none-eabi/lib/thumb/v8-a+simd/hard/libstdc++.a(eh_call.o)

.ARM.extab.text.unlikely.__cxa_call_unexpected
                0x000000000008703c       0x24
 .ARM.extab.text.unlikely.__cxa_call_unexpected
                0x000000000008703c       0x24 /home/olf/projects/circle/gcc-arm-9.2-2019.12-x86_64-arm-none-eabi/bin/../lib/gcc/arm-none-eabi/9.2.1/../../../../arm-none-eabi/lib/thumb/v8-a+simd/hard/libstdc++.a(eh_call.o)

.ARM.extab.text.__cxa_get_exception_ptr
                0x0000000000087060        0x0
 .ARM.extab.text.__cxa_get_exception_ptr
                0x0000000000087060        0x0 /home/olf/projects/circle/gcc-arm-9.2-2019.12-x86_64-arm-none-eabi/bin/../lib/gcc/arm-none-eabi/9.2.1/../../../../arm-none-eabi/lib/thumb/v8-a+simd/hard/libstdc++.a(eh_catch.o)

.ARM.extab.text.__cxa_begin_catch
                0x0000000000087060        0xc
 .ARM.extab.text.__cxa_begin_catch
                0x0000000000087060        0xc /home/olf/projects/circle/gcc-arm-9.2-2019.12-x86_64-arm-none-eabi/bin/../lib/gcc/arm-none-eabi/9.2.1/../../../../arm-none-eabi/lib/thumb/v8-a+simd/hard/libstdc++.a(eh_catch.o)

.ARM.extab.text.__cxa_end_catch
                0x000000000008706c        0x0
 .ARM.extab.text.__cxa_end_catch
                0x000000000008706c        0x0 /home/olf/projects/circle/gcc-arm-9.2-2019.12-x86_64-arm-none-eabi/bin/../lib/gcc/arm-none-eabi/9.2.1/../../../../arm-none-eabi/lib/thumb/v8-a+simd/hard/libstdc++.a(eh_catch.o)

.ARM.extab.text._ZSt18uncaught_exceptionv
                0x000000000008706c        0x0
 .ARM.extab.text._ZSt18uncaught_exceptionv
                0x000000000008706c        0x0 /home/olf/projects/circle/gcc-arm-9.2-2019.12-x86_64-arm-none-eabi/bin/../lib/gcc/arm-none-eabi/9.2.1/../../../../arm-none-eabi/lib/thumb/v8-a+simd/hard/libstdc++.a(eh_catch.o)

.ARM.extab.text._ZSt19uncaught_exceptionsv
                0x000000000008706c        0x0
 .ARM.extab.text._ZSt19uncaught_exceptionsv
                0x000000000008706c        0x0 /home/olf/projects/circle/gcc-arm-9.2-2019.12-x86_64-arm-none-eabi/bin/../lib/gcc/arm-none-eabi/9.2.1/../../../../arm-none-eabi/lib/thumb/v8-a+simd/hard/libstdc++.a(eh_catch.o)

.ARM.extab.text.__cxa_current_exception_type
                0x000000000008706c        0x0
 .ARM.extab.text.__cxa_current_exception_type
                0x000000000008706c        0x0 /home/olf/projects/circle/gcc-arm-9.2-2019.12-x86_64-arm-none-eabi/bin/../lib/gcc/arm-none-eabi/9.2.1/../../../../arm-none-eabi/lib/thumb/v8-a+simd/hard/libstdc++.a(eh_type.o)

.ARM.extab.text._ZSt15set_new_handlerPFvvE
                0x000000000008706c        0x0
 .ARM.extab.text._ZSt15set_new_handlerPFvvE
                0x000000000008706c        0x0 /home/olf/projects/circle/gcc-arm-9.2-2019.12-x86_64-arm-none-eabi/bin/../lib/gcc/arm-none-eabi/9.2.1/../../../../arm-none-eabi/lib/thumb/v8-a+simd/hard/libstdc++.a(new_handler.o)

.ARM.extab.text._ZSt15get_new_handlerv
                0x000000000008706c        0x0
 .ARM.extab.text._ZSt15get_new_handlerv
                0x000000000008706c        0x0 /home/olf/projects/circle/gcc-arm-9.2-2019.12-x86_64-arm-none-eabi/bin/../lib/gcc/arm-none-eabi/9.2.1/../../../../arm-none-eabi/lib/thumb/v8-a+simd/hard/libstdc++.a(new_handler.o)

.ARM.extab.text.__udivmoddi4
                0x000000000008706c        0x0
 .ARM.extab.text.__udivmoddi4
                0x000000000008706c        0x0 /home/olf/projects/circle/gcc-arm-9.2-2019.12-x86_64-arm-none-eabi/bin/../lib/gcc/arm-none-eabi/9.2.1/thumb/v8-a+simd/hard/libgcc.a(_udivmoddi4.o)

.ARM.extab.text.selfrel_offset31
                0x000000000008706c        0x0
 .ARM.extab.text.selfrel_offset31
                0x000000000008706c        0x0 /home/olf/projects/circle/gcc-arm-9.2-2019.12-x86_64-arm-none-eabi/bin/../lib/gcc/arm-none-eabi/9.2.1/thumb/v8-a+simd/hard/libgcc.a(unwind-arm.o)

.ARM.extab.text.search_EIT_table
                0x000000000008706c        0x0
 .ARM.extab.text.search_EIT_table
                0x000000000008706c        0x0 /home/olf/projects/circle/gcc-arm-9.2-2019.12-x86_64-arm-none-eabi/bin/../lib/gcc/arm-none-eabi/9.2.1/thumb/v8-a+simd/hard/libgcc.a(unwind-arm.o)

.ARM.extab.text.__gnu_unwind_get_pr_addr
                0x000000000008706c        0x0
 .ARM.extab.text.__gnu_unwind_get_pr_addr
                0x000000000008706c        0x0 /home/olf/projects/circle/gcc-arm-9.2-2019.12-x86_64-arm-none-eabi/bin/../lib/gcc/arm-none-eabi/9.2.1/thumb/v8-a+simd/hard/libgcc.a(unwind-arm.o)

.ARM.extab.text.get_eit_entry
                0x000000000008706c        0x0
 .ARM.extab.text.get_eit_entry
                0x000000000008706c        0x0 /home/olf/projects/circle/gcc-arm-9.2-2019.12-x86_64-arm-none-eabi/bin/../lib/gcc/arm-none-eabi/9.2.1/thumb/v8-a+simd/hard/libgcc.a(unwind-arm.o)

.ARM.extab.text.restore_non_core_regs
                0x000000000008706c        0x0
 .ARM.extab.text.restore_non_core_regs
                0x000000000008706c        0x0 /home/olf/projects/circle/gcc-arm-9.2-2019.12-x86_64-arm-none-eabi/bin/../lib/gcc/arm-none-eabi/9.2.1/thumb/v8-a+simd/hard/libgcc.a(unwind-arm.o)

.ARM.extab.text._Unwind_decode_typeinfo_ptr.isra.0
                0x000000000008706c        0x0
 .ARM.extab.text._Unwind_decode_typeinfo_ptr.isra.0
                0x000000000008706c        0x0 /home/olf/projects/circle/gcc-arm-9.2-2019.12-x86_64-arm-none-eabi/bin/../lib/gcc/arm-none-eabi/9.2.1/thumb/v8-a+simd/hard/libgcc.a(unwind-arm.o)

.ARM.extab.text.__gnu_unwind_24bit.isra.0
                0x000000000008706c        0x0
 .ARM.extab.text.__gnu_unwind_24bit.isra.0
                0x000000000008706c        0x0 /home/olf/projects/circle/gcc-arm-9.2-2019.12-x86_64-arm-none-eabi/bin/../lib/gcc/arm-none-eabi/9.2.1/thumb/v8-a+simd/hard/libgcc.a(unwind-arm.o)

.ARM.extab.text._Unwind_DebugHook
                0x000000000008706c        0x0
 .ARM.extab.text._Unwind_DebugHook
                0x000000000008706c        0x0 /home/olf/projects/circle/gcc-arm-9.2-2019.12-x86_64-arm-none-eabi/bin/../lib/gcc/arm-none-eabi/9.2.1/thumb/v8-a+simd/hard/libgcc.a(unwind-arm.o)

.ARM.extab.text.unwind_phase2
                0x000000000008706c        0x0
 .ARM.extab.text.unwind_phase2
                0x000000000008706c        0x0 /home/olf/projects/circle/gcc-arm-9.2-2019.12-x86_64-arm-none-eabi/bin/../lib/gcc/arm-none-eabi/9.2.1/thumb/v8-a+simd/hard/libgcc.a(unwind-arm.o)

.ARM.extab.text.unwind_phase2_forced
                0x000000000008706c        0x0
 .ARM.extab.text.unwind_phase2_forced
                0x000000000008706c        0x0 /home/olf/projects/circle/gcc-arm-9.2-2019.12-x86_64-arm-none-eabi/bin/../lib/gcc/arm-none-eabi/9.2.1/thumb/v8-a+simd/hard/libgcc.a(unwind-arm.o)

.ARM.extab.text._Unwind_GetCFA
                0x000000000008706c        0x0
 .ARM.extab.text._Unwind_GetCFA
                0x000000000008706c        0x0 /home/olf/projects/circle/gcc-arm-9.2-2019.12-x86_64-arm-none-eabi/bin/../lib/gcc/arm-none-eabi/9.2.1/thumb/v8-a+simd/hard/libgcc.a(unwind-arm.o)

.ARM.extab.text.__gnu_Unwind_RaiseException
                0x000000000008706c        0x0
 .ARM.extab.text.__gnu_Unwind_RaiseException
                0x000000000008706c        0x0 /home/olf/projects/circle/gcc-arm-9.2-2019.12-x86_64-arm-none-eabi/bin/../lib/gcc/arm-none-eabi/9.2.1/thumb/v8-a+simd/hard/libgcc.a(unwind-arm.o)

.ARM.extab.text.__gnu_Unwind_ForcedUnwind
                0x000000000008706c        0x0
 .ARM.extab.text.__gnu_Unwind_ForcedUnwind
                0x000000000008706c        0x0 /home/olf/projects/circle/gcc-arm-9.2-2019.12-x86_64-arm-none-eabi/bin/../lib/gcc/arm-none-eabi/9.2.1/thumb/v8-a+simd/hard/libgcc.a(unwind-arm.o)

.ARM.extab.text.__gnu_Unwind_Resume
                0x000000000008706c        0x0
 .ARM.extab.text.__gnu_Unwind_Resume
                0x000000000008706c        0x0 /home/olf/projects/circle/gcc-arm-9.2-2019.12-x86_64-arm-none-eabi/bin/../lib/gcc/arm-none-eabi/9.2.1/thumb/v8-a+simd/hard/libgcc.a(unwind-arm.o)

.ARM.extab.text.__gnu_Unwind_Resume_or_Rethrow
                0x000000000008706c        0x0
 .ARM.extab.text.__gnu_Unwind_Resume_or_Rethrow
                0x000000000008706c        0x0 /home/olf/projects/circle/gcc-arm-9.2-2019.12-x86_64-arm-none-eabi/bin/../lib/gcc/arm-none-eabi/9.2.1/thumb/v8-a+simd/hard/libgcc.a(unwind-arm.o)

.ARM.extab.text._Unwind_Complete
                0x000000000008706c        0x0
 .ARM.extab.text._Unwind_Complete
                0x000000000008706c        0x0 /home/olf/projects/circle/gcc-arm-9.2-2019.12-x86_64-arm-none-eabi/bin/../lib/gcc/arm-none-eabi/9.2.1/thumb/v8-a+simd/hard/libgcc.a(unwind-arm.o)

.ARM.extab.text._Unwind_DeleteException
                0x000000000008706c        0x0
 .ARM.extab.text._Unwind_DeleteException
                0x000000000008706c        0x0 /home/olf/projects/circle/gcc-arm-9.2-2019.12-x86_64-arm-none-eabi/bin/../lib/gcc/arm-none-eabi/9.2.1/thumb/v8-a+simd/hard/libgcc.a(unwind-arm.o)

.ARM.extab.text._Unwind_VRS_Get
                0x000000000008706c        0x0
 .ARM.extab.text._Unwind_VRS_Get
                0x000000000008706c        0x0 /home/olf/projects/circle/gcc-arm-9.2-2019.12-x86_64-arm-none-eabi/bin/../lib/gcc/arm-none-eabi/9.2.1/thumb/v8-a+simd/hard/libgcc.a(unwind-arm.o)

.ARM.extab.text._Unwind_GetGR
                0x000000000008706c        0x0
 .ARM.extab.text._Unwind_GetGR
                0x000000000008706c        0x0 /home/olf/projects/circle/gcc-arm-9.2-2019.12-x86_64-arm-none-eabi/bin/../lib/gcc/arm-none-eabi/9.2.1/thumb/v8-a+simd/hard/libgcc.a(unwind-arm.o)

.ARM.extab.text._Unwind_VRS_Set
                0x000000000008706c        0x0
 .ARM.extab.text._Unwind_VRS_Set
                0x000000000008706c        0x0 /home/olf/projects/circle/gcc-arm-9.2-2019.12-x86_64-arm-none-eabi/bin/../lib/gcc/arm-none-eabi/9.2.1/thumb/v8-a+simd/hard/libgcc.a(unwind-arm.o)

.ARM.extab.text._Unwind_SetGR
                0x000000000008706c        0x0
 .ARM.extab.text._Unwind_SetGR
                0x000000000008706c        0x0 /home/olf/projects/circle/gcc-arm-9.2-2019.12-x86_64-arm-none-eabi/bin/../lib/gcc/arm-none-eabi/9.2.1/thumb/v8-a+simd/hard/libgcc.a(unwind-arm.o)

.ARM.extab.text.__gnu_Unwind_Backtrace
                0x000000000008706c        0x0
 .ARM.extab.text.__gnu_Unwind_Backtrace
                0x000000000008706c        0x0 /home/olf/projects/circle/gcc-arm-9.2-2019.12-x86_64-arm-none-eabi/bin/../lib/gcc/arm-none-eabi/9.2.1/thumb/v8-a+simd/hard/libgcc.a(unwind-arm.o)

.ARM.extab.text.__gnu_unwind_pr_common
                0x000000000008706c        0x0
 .ARM.extab.text.__gnu_unwind_pr_common
                0x000000000008706c        0x0 /home/olf/projects/circle/gcc-arm-9.2-2019.12-x86_64-arm-none-eabi/bin/../lib/gcc/arm-none-eabi/9.2.1/thumb/v8-a+simd/hard/libgcc.a(unwind-arm.o)

.ARM.extab.text.__aeabi_unwind_cpp_pr0
                0x000000000008706c        0x0
 .ARM.extab.text.__aeabi_unwind_cpp_pr0
                0x000000000008706c        0x0 /home/olf/projects/circle/gcc-arm-9.2-2019.12-x86_64-arm-none-eabi/bin/../lib/gcc/arm-none-eabi/9.2.1/thumb/v8-a+simd/hard/libgcc.a(unwind-arm.o)

.ARM.extab.text.__aeabi_unwind_cpp_pr1
                0x000000000008706c        0x0
 .ARM.extab.text.__aeabi_unwind_cpp_pr1
                0x000000000008706c        0x0 /home/olf/projects/circle/gcc-arm-9.2-2019.12-x86_64-arm-none-eabi/bin/../lib/gcc/arm-none-eabi/9.2.1/thumb/v8-a+simd/hard/libgcc.a(unwind-arm.o)

.ARM.extab.text.__aeabi_unwind_cpp_pr2
                0x000000000008706c        0x0
 .ARM.extab.text.__aeabi_unwind_cpp_pr2
                0x000000000008706c        0x0 /home/olf/projects/circle/gcc-arm-9.2-2019.12-x86_64-arm-none-eabi/bin/../lib/gcc/arm-none-eabi/9.2.1/thumb/v8-a+simd/hard/libgcc.a(unwind-arm.o)

.ARM.extab.text._Unwind_VRS_Pop
                0x000000000008706c        0x0
 .ARM.extab.text._Unwind_VRS_Pop
                0x000000000008706c        0x0 /home/olf/projects/circle/gcc-arm-9.2-2019.12-x86_64-arm-none-eabi/bin/../lib/gcc/arm-none-eabi/9.2.1/thumb/v8-a+simd/hard/libgcc.a(unwind-arm.o)

.ARM.extab.text.next_unwind_byte
                0x000000000008706c        0x0
 .ARM.extab.text.next_unwind_byte
                0x000000000008706c        0x0 /home/olf/projects/circle/gcc-arm-9.2-2019.12-x86_64-arm-none-eabi/bin/../lib/gcc/arm-none-eabi/9.2.1/thumb/v8-a+simd/hard/libgcc.a(pr-support.o)

.ARM.extab.text._Unwind_GetGR.constprop.0
                0x000000000008706c        0x0
 .ARM.extab.text._Unwind_GetGR.constprop.0
                0x000000000008706c        0x0 /home/olf/projects/circle/gcc-arm-9.2-2019.12-x86_64-arm-none-eabi/bin/../lib/gcc/arm-none-eabi/9.2.1/thumb/v8-a+simd/hard/libgcc.a(pr-support.o)

.ARM.extab.text.unwind_UCB_from_context
                0x000000000008706c        0x0
 .ARM.extab.text.unwind_UCB_from_context
                0x000000000008706c        0x0 /home/olf/projects/circle/gcc-arm-9.2-2019.12-x86_64-arm-none-eabi/bin/../lib/gcc/arm-none-eabi/9.2.1/thumb/v8-a+simd/hard/libgcc.a(pr-support.o)

.ARM.extab.text.__gnu_unwind_execute
                0x000000000008706c        0x0
 .ARM.extab.text.__gnu_unwind_execute
                0x000000000008706c        0x0 /home/olf/projects/circle/gcc-arm-9.2-2019.12-x86_64-arm-none-eabi/bin/../lib/gcc/arm-none-eabi/9.2.1/thumb/v8-a+simd/hard/libgcc.a(pr-support.o)

.ARM.extab.text.__gnu_unwind_frame
                0x000000000008706c        0x0
 .ARM.extab.text.__gnu_unwind_frame
                0x000000000008706c        0x0 /home/olf/projects/circle/gcc-arm-9.2-2019.12-x86_64-arm-none-eabi/bin/../lib/gcc/arm-none-eabi/9.2.1/thumb/v8-a+simd/hard/libgcc.a(pr-support.o)

.ARM.extab.text._Unwind_GetRegionStart
                0x000000000008706c        0xc
 .ARM.extab.text._Unwind_GetRegionStart
                0x000000000008706c        0xc /home/olf/projects/circle/gcc-arm-9.2-2019.12-x86_64-arm-none-eabi/bin/../lib/gcc/arm-none-eabi/9.2.1/thumb/v8-a+simd/hard/libgcc.a(pr-support.o)

.ARM.extab.text._Unwind_GetLanguageSpecificData
                0x0000000000087078        0xc
 .ARM.extab.text._Unwind_GetLanguageSpecificData
                0x0000000000087078        0xc /home/olf/projects/circle/gcc-arm-9.2-2019.12-x86_64-arm-none-eabi/bin/../lib/gcc/arm-none-eabi/9.2.1/thumb/v8-a+simd/hard/libgcc.a(pr-support.o)

.ARM.extab.text.unlikely._Unwind_GetDataRelBase
                0x0000000000087084        0x0
 .ARM.extab.text.unlikely._Unwind_GetDataRelBase
                0x0000000000087084        0x0 /home/olf/projects/circle/gcc-arm-9.2-2019.12-x86_64-arm-none-eabi/bin/../lib/gcc/arm-none-eabi/9.2.1/thumb/v8-a+simd/hard/libgcc.a(pr-support.o)

.ARM.extab.text.unlikely._Unwind_GetTextRelBase
                0x0000000000087084        0x0
 .ARM.extab.text.unlikely._Unwind_GetTextRelBase
                0x0000000000087084        0x0 /home/olf/projects/circle/gcc-arm-9.2-2019.12-x86_64-arm-none-eabi/bin/../lib/gcc/arm-none-eabi/9.2.1/thumb/v8-a+simd/hard/libgcc.a(pr-support.o)

.init_array     0x0000000000087084       0x34
                0x0000000000087084                __init_start = .
 *(.init_array*)
 .init_array    0x0000000000087084        0x4 ../../../lib/usb/libusb.a(usbkeyboard.o)
 .init_array    0x0000000000087088        0x4 ../../../lib/usb/libusb.a(usbmassdevice.o)
 .init_array    0x000000000008708c        0x4 ../../../lib/usb/libusb.a(usbmidi.o)
 .init_array    0x0000000000087090        0x4 ../../../lib/usb/libusb.a(usbprinter.o)
 .init_array    0x0000000000087094        0x4 ../../../lib/usb/libusb.a(usbstandardhub.o)
 .init_array    0x0000000000087098        0x4 ../../../lib/usb/libusb.a(usbbluetooth.o)
 .init_array    0x000000000008709c        0x4 ../../../lib/usb/libusb.a(usbgamepad.o)
 .init_array    0x00000000000870a0        0x4 ../../../lib/input/libinput.a(mouse.o)
 .init_array    0x00000000000870a4        0x4 ../../../lib/libcircle.a(gpiopin.o)
 .init_array    0x00000000000870a8        0x4 ../../../lib/libcircle.a(virtualgpiopin.o)
 .init_array    0x00000000000870ac        0x4 ../../../lib/libcircle.a(bcmrandom200.o)
 .init_array    0x00000000000870b0        0x4 ../../../lib/libcircle.a(bcmmailbox.o)
 .init_array    0x00000000000870b4        0x4 /home/olf/projects/circle/gcc-arm-9.2-2019.12-x86_64-arm-none-eabi/bin/../lib/gcc/arm-none-eabi/9.2.1/../../../../arm-none-eabi/lib/thumb/v8-a+simd/hard/libstdc++.a(eh_alloc.o)
                0x00000000000870b8                __init_end = .

.ARM.exidx      0x00000000000870b8     0x20c8
                0x00000000000870b8                __exidx_start = .
 *(.ARM.exidx*)
 .ARM.exidx.text.startup
                0x00000000000870b8        0x8 main.o
 .ARM.exidx     0x00000000000870c0       0x20 kernel.o
 .ARM.exidx     0x00000000000870e0       0x20 ../../../addon/wlan/hostap/wpa_supplicant/libwpa_supplicant.a(wpasupplicant.o)
 .ARM.exidx     0x0000000000087100       0x58 ../../../addon/wlan/hostap/wpa_supplicant/libwpa_supplicant.a(os_circle.o)
                                         0x80 (size before relaxing)
 .ARM.exidx     0x0000000000087158       0x10 ../../../addon/wlan/hostap/wpa_supplicant/libwpa_supplicant.a(main_circle.o)
                                          0x8 (size before relaxing)
 .ARM.exidx     0x0000000000087168       0x50 ../../../addon/wlan/hostap/wpa_supplicant/libwpa_supplicant.a(driver_circle.o)
                                         0x60 (size before relaxing)
 .ARM.exidx     0x00000000000871b8       0x30 ../../../addon/wlan/hostap/wpa_supplicant/libwpa_supplicant.a(l2_packet_circle.o)
                                         0x48 (size before relaxing)
 .ARM.exidx.text._ZN10CNetDevice20IsSendFrameAdvisableEv
                0x0000000000087248        0x8 ../../../addon/wlan/libwlan.a(bcm4343.o)
 .ARM.exidx.text._ZN10CNetDevice8IsLinkUpEv
                0x0000000000087250        0x0 ../../../addon/wlan/libwlan.a(bcm4343.o)
                                          0x8 (size before relaxing)
 .ARM.exidx.text._ZN10CNetDevice12GetLinkSpeedEv
                0x0000000000087250        0x0 ../../../addon/wlan/libwlan.a(bcm4343.o)
                                          0x8 (size before relaxing)
 .ARM.exidx.text._ZN10CNetDevice9UpdatePHYEv
                0x0000000000087250        0x0 ../../../addon/wlan/libwlan.a(bcm4343.o)
                                          0x8 (size before relaxing)
 .ARM.exidx.text._ZN14CBcm4343Device7GetTypeEv
                0x0000000000087250        0x0 ../../../addon/wlan/libwlan.a(bcm4343.o)
                                          0x8 (size before relaxing)
 .ARM.exidx     0x00000000000871e8       0x60 ../../../addon/wlan/libwlan.a(bcm4343.o)
                                         0x90 (size before relaxing)
 .ARM.exidx     0x0000000000087250       0x38 ../../../addon/wlan/libwlan.a(p9arch.o)
                                         0x78 (size before relaxing)
 .ARM.exidx     0x0000000000087288       0x20 ../../../addon/wlan/libwlan.a(p9chan.o)
 .ARM.exidx     0x00000000000872a8       0x18 ../../../addon/wlan/libwlan.a(p9cmd.o)
 .ARM.exidx     0x00000000000872c0       0x10 ../../../addon/wlan/libwlan.a(p9error.o)
                                         0x28 (size before relaxing)
 .ARM.exidx     0x00000000000872d0       0x30 ../../../addon/wlan/libwlan.a(p9ether.o)
                                         0x48 (size before relaxing)
 .ARM.exidx.text._ZN6CKProc3RunEv
                0x0000000000087330        0x0 ../../../addon/wlan/libwlan.a(p9proc.o)
                                          0x8 (size before relaxing)
 .ARM.exidx.text._ZN6CKProcD2Ev
                0x0000000000087330        0x8 ../../../addon/wlan/libwlan.a(p9proc.o)
 .ARM.exidx.text._ZN6CKProcD0Ev
                0x0000000000087338        0x0 ../../../addon/wlan/libwlan.a(p9proc.o)
                                          0x8 (size before relaxing)
 .ARM.exidx     0x0000000000087300       0x30 ../../../addon/wlan/libwlan.a(p9proc.o)
                                         0x60 (size before relaxing)
 .ARM.exidx     0x0000000000087338       0x28 ../../../addon/wlan/libwlan.a(p9util.o)
                                         0x30 (size before relaxing)
 .ARM.exidx     0x0000000000087360       0x20 ../../../addon/fatfs/libfatfs.a(diskio.o)
                                         0x30 (size before relaxing)
 .ARM.exidx     0x0000000000087380       0x30 ../../../addon/fatfs/libfatfs.a(ffsystem.o)
                                         0x38 (size before relaxing)
 .ARM.exidx     0x00000000000873b0       0xc8 ../../../addon/SDCard/libsdcard.a(emmc.o)
                                         0xe8 (size before relaxing)
 .ARM.exidx     0x0000000000087478       0x30 ../../../lib/net/libnet.a(netsubsystem.o)
                                         0x50 (size before relaxing)
 .ARM.exidx     0x00000000000874a8       0x10 ../../../lib/net/libnet.a(nettask.o)
                                         0x20 (size before relaxing)
 .ARM.exidx.text._ZN12CTCPRejector7ConnectEv
                0x0000000000087518        0x8 ../../../lib/net/libnet.a(transportlayer.o)
 .ARM.exidx.text._ZN12CTCPRejector6AcceptEP10CIPAddressPt
                0x0000000000087520        0x0 ../../../lib/net/libnet.a(transportlayer.o)
                                          0x8 (size before relaxing)
 .ARM.exidx.text._ZN12CTCPRejector5CloseEv
                0x0000000000087520        0x0 ../../../lib/net/libnet.a(transportlayer.o)
                                          0x8 (size before relaxing)
 .ARM.exidx.text._ZN12CTCPRejector4SendEPKvji
                0x0000000000087520        0x0 ../../../lib/net/libnet.a(transportlayer.o)
                                          0x8 (size before relaxing)
 .ARM.exidx.text._ZN12CTCPRejector7ReceiveEPvi
                0x0000000000087520        0x0 ../../../lib/net/libnet.a(transportlayer.o)
                                          0x8 (size before relaxing)
 .ARM.exidx.text._ZN12CTCPRejector6SendToEPKvjiR10CIPAddresst
                0x0000000000087520        0x0 ../../../lib/net/libnet.a(transportlayer.o)
                                          0x8 (size before relaxing)
 .ARM.exidx.text._ZN12CTCPRejector11ReceiveFromEPviP10CIPAddressPt
                0x0000000000087520        0x0 ../../../lib/net/libnet.a(transportlayer.o)
                                          0x8 (size before relaxing)
 .ARM.exidx.text._ZN12CTCPRejector18SetOptionBroadcastEb
                0x0000000000087520        0x0 ../../../lib/net/libnet.a(transportlayer.o)
                                          0x8 (size before relaxing)
 .ARM.exidx.text._ZNK12CTCPRejector11IsConnectedEv
                0x0000000000087520        0x0 ../../../lib/net/libnet.a(transportlayer.o)
                                          0x8 (size before relaxing)
 .ARM.exidx.text._ZNK12CTCPRejector12IsTerminatedEv
                0x0000000000087520        0x0 ../../../lib/net/libnet.a(transportlayer.o)
                                          0x8 (size before relaxing)
 .ARM.exidx.text._ZN12CTCPRejector7ProcessEv
                0x0000000000087520        0x0 ../../../lib/net/libnet.a(transportlayer.o)
                                          0x8 (size before relaxing)
 .ARM.exidx.text._ZN12CTCPRejector20NotificationReceivedE21TICMPNotificationTypeR10CIPAddressS2_tti
                0x0000000000087520        0x0 ../../../lib/net/libnet.a(transportlayer.o)
                                          0x8 (size before relaxing)
 .ARM.exidx     0x00000000000874b8       0x60 ../../../lib/net/libnet.a(transportlayer.o)
                                         0x80 (size before relaxing)
 .ARM.exidx     0x0000000000087520       0x50 ../../../lib/net/libnet.a(networklayer.o)
                                         0x58 (size before relaxing)
 .ARM.exidx     0x0000000000087570       0x48 ../../../lib/net/libnet.a(linklayer.o)
                                         0x58 (size before relaxing)
 .ARM.exidx     0x00000000000875b8       0x38 ../../../lib/net/libnet.a(netdevlayer.o)
                                         0x40 (size before relaxing)
 .ARM.exidx     0x00000000000875f0        0x8 ../../../lib/net/libnet.a(phytask.o)
                                         0x20 (size before relaxing)
 .ARM.exidx     0x00000000000875f8       0x38 ../../../lib/net/libnet.a(arphandler.o)
                                         0x40 (size before relaxing)
 .ARM.exidx     0x0000000000087630       0x28 ../../../lib/net/libnet.a(icmphandler.o)
 .ARM.exidx     0x0000000000087658       0x28 ../../../lib/net/libnet.a(routecache.o)
 .ARM.exidx     0x0000000000087680       0x28 ../../../lib/net/libnet.a(netconnection.o)
                                         0x38 (size before relaxing)
 .ARM.exidx     0x00000000000876a8       0x58 ../../../lib/net/libnet.a(udpconnection.o)
                                         0x88 (size before relaxing)
 .ARM.exidx     0x0000000000087700       0xb0 ../../../lib/net/libnet.a(tcpconnection.o)
                                         0xd8 (size before relaxing)
 .ARM.exidx     0x00000000000877b0       0x38 ../../../lib/net/libnet.a(retransmissionqueue.o)
                                         0x50 (size before relaxing)
 .ARM.exidx     0x00000000000877e8       0x30 ../../../lib/net/libnet.a(retranstimeoutcalc.o)
                                         0x40 (size before relaxing)
 .ARM.exidx     0x0000000000087818       0x20 ../../../lib/net/libnet.a(tcprejector.o)
                                         0x28 (size before relaxing)
 .ARM.exidx     0x0000000000087838       0x28 ../../../lib/net/libnet.a(netconfig.o)
                                         0x98 (size before relaxing)
 .ARM.exidx     0x0000000000087860       0x58 ../../../lib/net/libnet.a(ipaddress.o)
                                         0xc0 (size before relaxing)
 .ARM.exidx     0x00000000000878b8       0x20 ../../../lib/net/libnet.a(netqueue.o)
                                         0x30 (size before relaxing)
 .ARM.exidx     0x00000000000878d8       0x30 ../../../lib/net/libnet.a(checksumcalculator.o)
                                         0x48 (size before relaxing)
 .ARM.exidx     0x0000000000087908       0x88 ../../../lib/net/libnet.a(dhcpclient.o)
                                         0x98 (size before relaxing)
 .ARM.exidx     0x0000000000087990       0x20 ../../../lib/net/libnet.a(ntpdaemon.o)
                                         0x28 (size before relaxing)
 .ARM.exidx     0x00000000000879b0       0x68 ../../../lib/net/libnet.a(socket.o)
                                         0x70 (size before relaxing)
 .ARM.exidx     0x0000000000087a18       0x20 ../../../lib/net/libnet.a(dnsclient.o)
 .ARM.exidx     0x0000000000087a38       0x18 ../../../lib/net/libnet.a(ntpclient.o)
 .ARM.exidx.text._ZN10CNetSocket4BindEt
                0x0000000000087a70        0x8 ../../../lib/net/libnet.a(netsocket.o)
 .ARM.exidx.text._ZN10CNetSocket6ListenEj
                0x0000000000087a78        0x0 ../../../lib/net/libnet.a(netsocket.o)
                                          0x8 (size before relaxing)
 .ARM.exidx.text._ZN10CNetSocket6AcceptEP10CIPAddressPt
                0x0000000000087a78        0x0 ../../../lib/net/libnet.a(netsocket.o)
                                          0x8 (size before relaxing)
 .ARM.exidx.text._ZN10CNetSocket6SendToEPKvjiR10CIPAddresst
                0x0000000000087a78        0x0 ../../../lib/net/libnet.a(netsocket.o)
                                          0x8 (size before relaxing)
 .ARM.exidx.text._ZN10CNetSocket11ReceiveFromEPvjiP10CIPAddressPt
                0x0000000000087a78        0x0 ../../../lib/net/libnet.a(netsocket.o)
                                          0x8 (size before relaxing)
 .ARM.exidx.text._ZN10CNetSocket18SetOptionBroadcastEb
                0x0000000000087a78        0x0 ../../../lib/net/libnet.a(netsocket.o)
                                          0x8 (size before relaxing)
 .ARM.exidx     0x0000000000087a50       0x20 ../../../lib/net/libnet.a(netsocket.o)
                                         0x28 (size before relaxing)
 .ARM.exidx     0x0000000000087a78       0x38 ../../../lib/sched/libsched.a(task.o)
                                         0x50 (size before relaxing)
 .ARM.exidx     0x0000000000087ab0       0x50 ../../../lib/sched/libsched.a(scheduler.o)
                                         0x78 (size before relaxing)
 .ARM.exidx     0x0000000000087b00       0x18 ../../../lib/sched/libsched.a(synchronizationevent.o)
                                         0x30 (size before relaxing)
 .ARM.exidx     0x0000000000087b18       0x68 ../../../lib/usb/libusb.a(xhcidevice.o)
                                         0x88 (size before relaxing)
 .ARM.exidx.text._ZN18CUSBHostController24CancelDeviceTransactionsEP10CUSBDevice
                0x0000000000087b80        0x8 ../../../lib/usb/libusb.a(xhcidevice.o)
 .ARM.exidx     0x0000000000087b88       0x80 ../../../lib/usb/libusb.a(xhciendpoint.o)
 .ARM.exidx     0x0000000000087c08       0x28 ../../../lib/usb/libusb.a(xhcieventmanager.o)
 .ARM.exidx     0x0000000000087c30       0x30 ../../../lib/usb/libusb.a(xhcimmiospace.o)
                                         0x88 (size before relaxing)
 .ARM.exidx     0x0000000000087c60       0x28 ../../../lib/usb/libusb.a(xhciring.o)
                                         0x58 (size before relaxing)
 .ARM.exidx     0x0000000000087c88       0x28 ../../../lib/usb/libusb.a(xhciroothub.o)
                                         0x30 (size before relaxing)
 .ARM.exidx     0x0000000000087cb0       0x68 ../../../lib/usb/libusb.a(xhcirootport.o)
                                         0x80 (size before relaxing)
 .ARM.exidx     0x0000000000087d18       0x18 ../../../lib/usb/libusb.a(xhcisharedmemallocator.o)
                                         0x28 (size before relaxing)
 .ARM.exidx     0x0000000000087d30       0x30 ../../../lib/usb/libusb.a(xhcislotmanager.o)
                                         0x40 (size before relaxing)
 .ARM.exidx.text._ZNK12CUSBFunction10GetHubInfoEv
                0x0000000000087db8        0x8 ../../../lib/usb/libusb.a(xhciusbdevice.o)
 .ARM.exidx     0x0000000000087d60       0x58 ../../../lib/usb/libusb.a(xhciusbdevice.o)
                                         0x70 (size before relaxing)
 .ARM.exidx     0x0000000000087dc0       0x70 ../../../lib/usb/libusb.a(usbdevice.o)
                                         0xc8 (size before relaxing)
 .ARM.exidx     0x0000000000087e30        0x8 ../../../lib/usb/libusb.a(usbdevicefactory.o)
 .ARM.exidx     0x0000000000087e38       0x40 ../../../lib/usb/libusb.a(usbendpoint.o)
                                         0x58 (size before relaxing)
 .ARM.exidx     0x0000000000087e78       0x48 ../../../lib/usb/libusb.a(usbfunction.o)
                                         0xa0 (size before relaxing)
 .ARM.exidx.text._ZN17CUSBGamePadDevice10SetLEDModeEjhh
                0x0000000000087ef8        0x8 ../../../lib/usb/libusb.a(usbgamepadps3.o)
 .ARM.exidx.text._ZN20CUSBGamePadPS3Device13GetPropertiesEv
                0x0000000000087f00        0x0 ../../../lib/usb/libusb.a(usbgamepadps3.o)
                                          0x8 (size before relaxing)
 .ARM.exidx     0x0000000000087ec0       0x38 ../../../lib/usb/libusb.a(usbgamepadps3.o)
                                         0x40 (size before relaxing)
 .ARM.exidx.text._ZN20CUSBGamePadPS4Device13GetPropertiesEv
                0x0000000000087f30        0x8 ../../../lib/usb/libusb.a(usbgamepadps4.o)
 .ARM.exidx     0x0000000000087f00       0x30 ../../../lib/usb/libusb.a(usbgamepadps4.o)
                                         0x60 (size before relaxing)
 .ARM.exidx.text._ZN17CUSBGamePadDevice13GetPropertiesEv
                0x0000000000087f58        0x8 ../../../lib/usb/libusb.a(usbgamepadstandard.o)
 .ARM.exidx.text._ZN17CUSBGamePadDevice10SetLEDModeE15TGamePadLEDMode
                0x0000000000087f60        0x0 ../../../lib/usb/libusb.a(usbgamepadstandard.o)
                                          0x8 (size before relaxing)
 .ARM.exidx.text._ZN17CUSBGamePadDevice13SetRumbleModeE18TGamePadRumbleMode
                0x0000000000087f60        0x0 ../../../lib/usb/libusb.a(usbgamepadstandard.o)
                                          0x8 (size before relaxing)
 .ARM.exidx     0x0000000000087f38       0x20 ../../../lib/usb/libusb.a(usbgamepadstandard.o)
                                         0x38 (size before relaxing)
 .ARM.exidx.text._ZN26CUSBGamePadSwitchProDevice13GetPropertiesEv
                0x0000000000087f88        0x8 ../../../lib/usb/libusb.a(usbgamepadswitchpro.o)
 .ARM.exidx     0x0000000000087f60       0x28 ../../../lib/usb/libusb.a(usbgamepadswitchpro.o)
                                         0x38 (size before relaxing)
 .ARM.exidx.text._ZN24CUSBGamePadXbox360Device13GetPropertiesEv
                0x0000000000087fb8        0x8 ../../../lib/usb/libusb.a(usbgamepadxbox360.o)
 .ARM.exidx     0x0000000000087f90       0x28 ../../../lib/usb/libusb.a(usbgamepadxbox360.o)
                                         0x40 (size before relaxing)
 .ARM.exidx.text._ZN24CUSBGamePadXboxOneDevice13GetPropertiesEv
                0x0000000000087fe0        0x8 ../../../lib/usb/libusb.a(usbgamepadxboxone.o)
 .ARM.exidx     0x0000000000087fc0       0x20 ../../../lib/usb/libusb.a(usbgamepadxboxone.o)
                                         0x38 (size before relaxing)
 .ARM.exidx     0x0000000000087fe8       0x50 ../../../lib/usb/libusb.a(usbhiddevice.o)
                                         0x58 (size before relaxing)
 .ARM.exidx     0x0000000000088038       0x48 ../../../lib/usb/libusb.a(usbhostcontroller.o)
                                         0x68 (size before relaxing)
 .ARM.exidx     0x0000000000088080       0x50 ../../../lib/usb/libusb.a(usbkeyboard.o)
                                         0x68 (size before relaxing)
 .ARM.exidx.text.startup
                0x00000000000880d0        0x0 ../../../lib/usb/libusb.a(usbkeyboard.o)
                                          0x8 (size before relaxing)
 .ARM.exidx     0x00000000000880d0       0x58 ../../../lib/usb/libusb.a(usbmassdevice.o)
                                         0x70 (size before relaxing)
 .ARM.exidx.text.startup
                0x0000000000088128        0x0 ../../../lib/usb/libusb.a(usbmassdevice.o)
                                          0x8 (size before relaxing)
 .ARM.exidx     0x0000000000088128       0x40 ../../../lib/usb/libusb.a(usbmidi.o)
                                         0x50 (size before relaxing)
 .ARM.exidx.text.startup
                0x0000000000088168        0x8 ../../../lib/usb/libusb.a(usbmidi.o)
 .ARM.exidx     0x0000000000088170       0x18 ../../../lib/usb/libusb.a(usbmouse.o)
                                         0x28 (size before relaxing)
 .ARM.exidx     0x0000000000088188       0x28 ../../../lib/usb/libusb.a(usbprinter.o)
 .ARM.exidx.text.startup
                0x00000000000881b0        0x8 ../../../lib/usb/libusb.a(usbprinter.o)
 .ARM.exidx     0x00000000000881b8       0x58 ../../../lib/usb/libusb.a(usbrequest.o)
                                         0xa0 (size before relaxing)
 .ARM.exidx     0x0000000000088210       0x70 ../../../lib/usb/libusb.a(usbstandardhub.o)
 .ARM.exidx.text.startup
                0x0000000000088280        0x8 ../../../lib/usb/libusb.a(usbstandardhub.o)
 .ARM.exidx     0x0000000000088288       0x50 ../../../lib/usb/libusb.a(xhcicommandmanager.o)
                                         0x60 (size before relaxing)
 .ARM.exidx.text._ZN10CNetDevice7GetTypeEv
                0x0000000000088378        0x8 ../../../lib/usb/libusb.a(lan7800.o)
 .ARM.exidx     0x00000000000882d8       0xa0 ../../../lib/usb/libusb.a(lan7800.o)
                                         0xc0 (size before relaxing)
 .ARM.exidx     0x0000000000088380       0x90 ../../../lib/usb/libusb.a(smsc951x.o)
                                         0xb8 (size before relaxing)
 .ARM.exidx     0x0000000000088410       0x48 ../../../lib/usb/libusb.a(usbbluetooth.o)
 .ARM.exidx.text.startup
                0x0000000000088458        0x8 ../../../lib/usb/libusb.a(usbbluetooth.o)
 .ARM.exidx     0x0000000000088460       0x40 ../../../lib/usb/libusb.a(usbcdcethernet.o)
                                         0x68 (size before relaxing)
 .ARM.exidx     0x00000000000884a0       0x28 ../../../lib/usb/libusb.a(usbconfigparser.o)
                                         0x38 (size before relaxing)
 .ARM.exidx     0x00000000000884c8       0x38 ../../../lib/usb/libusb.a(usbgamepad.o)
 .ARM.exidx.text.startup
                0x0000000000088500        0x0 ../../../lib/usb/libusb.a(usbgamepad.o)
                                          0x8 (size before relaxing)
 .ARM.exidx     0x0000000000088500       0x30 ../../../lib/usb/libusb.a(usbstring.o)
 .ARM.exidx     0x0000000000088530       0x48 ../../../lib/input/libinput.a(keyboardbehaviour.o)
                                         0x58 (size before relaxing)
 .ARM.exidx     0x0000000000088578       0x18 ../../../lib/input/libinput.a(keymap.o)
                                         0x40 (size before relaxing)
 .ARM.exidx     0x0000000000088590       0x30 ../../../lib/input/libinput.a(mouse.o)
                                         0x50 (size before relaxing)
 .ARM.exidx.text.startup
                0x00000000000885c0        0x8 ../../../lib/input/libinput.a(mouse.o)
 .ARM.exidx     0x00000000000885c8       0x38 ../../../lib/input/libinput.a(mousebehaviour.o)
                                         0x48 (size before relaxing)
 .ARM.exidx     0x0000000000088600       0x18 ../../../lib/fs/libfs.a(partitionmanager.o)
 .ARM.exidx     0x0000000000088618       0x20 ../../../lib/fs/libfs.a(partition.o)
                                         0x30 (size before relaxing)
 .ARM.exidx     0x0000000000088638       0x20 ../../../lib/libcircle.a(actled.o)
                                         0x30 (size before relaxing)
 .ARM.exidx     0x0000000000088658        0x0 ../../../lib/libcircle.a(alloc.o)
                                         0x30 (size before relaxing)
 .ARM.exidx     0x0000000000088658        0x8 ../../../lib/libcircle.a(assert.o)
 .ARM.exidx     0x0000000000088660       0x20 ../../../lib/libcircle.a(bcmpropertytags.o)
 .ARM.exidx     0x0000000000088680       0x28 ../../../lib/libcircle.a(classallocator.o)
                                         0x30 (size before relaxing)
 .ARM.exidx     0x00000000000886a8       0x10 ../../../lib/libcircle.a(debug.o)
 .ARM.exidx     0x00000000000886b8       0x20 ../../../lib/libcircle.a(device.o)
                                         0x38 (size before relaxing)
 .ARM.exidx     0x00000000000886d8       0x48 ../../../lib/libcircle.a(devicenameservice.o)
                                         0x50 (size before relaxing)
 .ARM.exidx     0x0000000000088720       0x38 ../../../lib/libcircle.a(dmachannel.o)
                                         0x60 (size before relaxing)
 .ARM.exidx     0x0000000000088758       0x70 ../../../lib/libcircle.a(gpiopin.o)
                                         0xb8 (size before relaxing)
 .ARM.exidx.text.startup
                0x00000000000887c8        0x0 ../../../lib/libcircle.a(gpiopin.o)
                                          0x8 (size before relaxing)
 .ARM.exidx     0x00000000000887c8       0x10 ../../../lib/libcircle.a(koptions.o)
                                         0xa8 (size before relaxing)
 .ARM.exidx     0x00000000000887d8       0x68 ../../../lib/libcircle.a(logger.o)
                                         0x70 (size before relaxing)
 .ARM.exidx     0x0000000000088840       0x58 ../../../lib/libcircle.a(machineinfo.o)
                                         0xa8 (size before relaxing)
 .ARM.exidx     0x0000000000088898       0x20 ../../../lib/libcircle.a(ptrarray.o)
                                         0x38 (size before relaxing)
 .ARM.exidx     0x00000000000888b8       0x30 ../../../lib/libcircle.a(ptrlist.o)
                                         0x48 (size before relaxing)
 .ARM.exidx     0x00000000000888e8       0xe0 ../../../lib/libcircle.a(screen.o)
                                        0x170 (size before relaxing)
 .ARM.exidx     0x00000000000889c8       0x58 ../../../lib/libcircle.a(serial.o)
                                         0x80 (size before relaxing)
 .ARM.exidx     0x0000000000088a20       0x70 ../../../lib/libcircle.a(string.o)
                                         0xa8 (size before relaxing)
 .ARM.exidx     0x0000000000088a90       0x10 ../../../lib/libcircle.a(sysinit.o)
                                         0x38 (size before relaxing)
 .ARM.exidx     0x0000000000088aa0       0xa0 ../../../lib/libcircle.a(timer.o)
                                         0xd8 (size before relaxing)
 .ARM.exidx     0x0000000000088b40        0x8 ../../../lib/libcircle.a(util.o)
                                         0x10 (size before relaxing)
 .ARM.exidx     0x0000000000088b48       0x20 ../../../lib/libcircle.a(virtualgpiopin.o)
                                         0x30 (size before relaxing)
 .ARM.exidx.text.startup
                0x0000000000088b68        0x0 ../../../lib/libcircle.a(virtualgpiopin.o)
                                          0x8 (size before relaxing)
 .ARM.exidx     0x0000000000088b68        0x0 ../../../lib/libcircle.a(chainboot.o)
                                         0x20 (size before relaxing)
 .ARM.exidx     0x0000000000088b68       0x28 ../../../lib/libcircle.a(macaddress.o)
                                         0x60 (size before relaxing)
 .ARM.exidx     0x0000000000088b90       0x10 ../../../lib/libcircle.a(netdevice.o)
                                         0x20 (size before relaxing)
 .ARM.exidx     0x0000000000088ba0        0x8 ../../../lib/libcircle.a(new.o)
                                         0x10 (size before relaxing)
 .ARM.exidx     0x0000000000088ba8       0x20 ../../../lib/libcircle.a(heapallocator.o)
                                         0x38 (size before relaxing)
 .ARM.exidx     0x0000000000088bc8       0x18 ../../../lib/libcircle.a(pageallocator.o)
                                         0x30 (size before relaxing)
 .ARM.exidx     0x0000000000088be0       0x28 ../../../lib/libcircle.a(numberpool.o)
                                         0x20 (size before relaxing)
 .ARM.exidx     0x0000000000088c08       0x38 ../../../lib/libcircle.a(exceptionhandler.o)
                                         0x30 (size before relaxing)
 .ARM.exidx     0x0000000000088c40       0x30 ../../../lib/libcircle.a(memory.o)
                                         0x40 (size before relaxing)
 .ARM.exidx     0x0000000000088c70       0x18 ../../../lib/libcircle.a(pagetable.o)
                                         0x20 (size before relaxing)
 .ARM.exidx     0x0000000000088c88       0x10 ../../../lib/libcircle.a(synchronize.o)
                                         0x20 (size before relaxing)
 .ARM.exidx     0x0000000000088c98      0x118 ../../../lib/libcircle.a(bcm54213.o)
                                        0x1c8 (size before relaxing)
 .ARM.exidx     0x0000000000088db0       0xa8 ../../../lib/libcircle.a(bcmpciehostbridge.o)
                                        0x110 (size before relaxing)
 .ARM.exidx     0x0000000000088e58       0x18 ../../../lib/libcircle.a(bcmrandom200.o)
 .ARM.exidx.text.startup
                0x0000000000088e70        0x8 ../../../lib/libcircle.a(bcmrandom200.o)
 .ARM.exidx     0x0000000000088e78       0x30 ../../../lib/libcircle.a(interruptgic.o)
                                         0xa0 (size before relaxing)
 .ARM.exidx     0x0000000000088ea8       0x38 ../../../lib/libcircle.a(dma4channel.o)
                                         0x60 (size before relaxing)
 .ARM.exidx     0x0000000000088ee0       0x38 ../../../lib/libcircle.a(devicetreeblob.o)
                                         0x40 (size before relaxing)
 .ARM.exidx     0x0000000000088f18       0x38 ../../../lib/libcircle.a(bcmframebuffer.o)
                                         0x88 (size before relaxing)
 .ARM.exidx     0x0000000000088f50       0x28 ../../../lib/libcircle.a(bcmmailbox.o)
                                         0x30 (size before relaxing)
 .ARM.exidx.text.startup
                0x0000000000088f78        0x8 ../../../lib/libcircle.a(bcmmailbox.o)
 .ARM.exidx     0x0000000000088f80       0x10 ../../../lib/libcircle.a(chargenerator.o)
                                         0x30 (size before relaxing)
 .ARM.exidx     0x0000000000088f90       0x20 ../../../lib/libcircle.a(gpiomanager.o)
                                         0x38 (size before relaxing)
 .ARM.exidx.text._ZNK10__cxxabiv117__class_type_info11__do_upcastEPKS0_PPv
                0x0000000000088fb0        0x8 /home/olf/projects/circle/gcc-arm-9.2-2019.12-x86_64-arm-none-eabi/bin/../lib/gcc/arm-none-eabi/9.2.1/../../../../arm-none-eabi/lib/thumb/v8-a+simd/hard/libstdc++.a(class_type_info.o)
 .ARM.exidx.text._ZNK10__cxxabiv117__class_type_info20__do_find_public_srcEiPKvPKS0_S2_
                0x0000000000088fb8        0x8 /home/olf/projects/circle/gcc-arm-9.2-2019.12-x86_64-arm-none-eabi/bin/../lib/gcc/arm-none-eabi/9.2.1/../../../../arm-none-eabi/lib/thumb/v8-a+simd/hard/libstdc++.a(class_type_info.o)
 .ARM.exidx.text._ZN10__cxxabiv117__class_type_infoD2Ev
                0x0000000000088fc0        0x0 /home/olf/projects/circle/gcc-arm-9.2-2019.12-x86_64-arm-none-eabi/bin/../lib/gcc/arm-none-eabi/9.2.1/../../../../arm-none-eabi/lib/thumb/v8-a+simd/hard/libstdc++.a(class_type_info.o)
                                          0x8 (size before relaxing)
 .ARM.exidx.text._ZN10__cxxabiv117__class_type_infoD0Ev
                0x0000000000088fc0        0x0 /home/olf/projects/circle/gcc-arm-9.2-2019.12-x86_64-arm-none-eabi/bin/../lib/gcc/arm-none-eabi/9.2.1/../../../../arm-none-eabi/lib/thumb/v8-a+simd/hard/libstdc++.a(class_type_info.o)
                                          0x8 (size before relaxing)
 .ARM.exidx.text._ZNK10__cxxabiv117__class_type_info12__do_dyncastEiNS0_10__sub_kindEPKS0_PKvS3_S5_RNS0_16__dyncast_resultE
                0x0000000000088fc0        0x0 /home/olf/projects/circle/gcc-arm-9.2-2019.12-x86_64-arm-none-eabi/bin/../lib/gcc/arm-none-eabi/9.2.1/../../../../arm-none-eabi/lib/thumb/v8-a+simd/hard/libstdc++.a(class_type_info.o)
                                          0x8 (size before relaxing)
 .ARM.exidx.text._ZNK10__cxxabiv117__class_type_info11__do_upcastEPKS0_PKvRNS0_15__upcast_resultE
                0x0000000000088fc0        0x0 /home/olf/projects/circle/gcc-arm-9.2-2019.12-x86_64-arm-none-eabi/bin/../lib/gcc/arm-none-eabi/9.2.1/../../../../arm-none-eabi/lib/thumb/v8-a+simd/hard/libstdc++.a(class_type_info.o)
                                          0x8 (size before relaxing)
 .ARM.exidx.text._ZNK10__cxxabiv117__class_type_info10__do_catchEPKSt9type_infoPPvj
                0x0000000000088fc0        0x0 /home/olf/projects/circle/gcc-arm-9.2-2019.12-x86_64-arm-none-eabi/bin/../lib/gcc/arm-none-eabi/9.2.1/../../../../arm-none-eabi/lib/thumb/v8-a+simd/hard/libstdc++.a(class_type_info.o)
                                          0x8 (size before relaxing)
 .ARM.exidx.text._ZdlPvj
                0x0000000000088fc0        0x0 /home/olf/projects/circle/gcc-arm-9.2-2019.12-x86_64-arm-none-eabi/bin/../lib/gcc/arm-none-eabi/9.2.1/../../../../arm-none-eabi/lib/thumb/v8-a+simd/hard/libstdc++.a(del_ops.o)
                                          0x8 (size before relaxing)
 .ARM.exidx.text._ZdaPv
                0x0000000000088fc0        0x0 /home/olf/projects/circle/gcc-arm-9.2-2019.12-x86_64-arm-none-eabi/bin/../lib/gcc/arm-none-eabi/9.2.1/../../../../arm-none-eabi/lib/thumb/v8-a+simd/hard/libstdc++.a(del_opv.o)
                                          0x8 (size before relaxing)
 .ARM.exidx.text.__cxa_type_match
                0x0000000000088fc0        0x8 /home/olf/projects/circle/gcc-arm-9.2-2019.12-x86_64-arm-none-eabi/bin/../lib/gcc/arm-none-eabi/9.2.1/../../../../arm-none-eabi/lib/thumb/v8-a+simd/hard/libstdc++.a(eh_arm.o)
 .ARM.exidx.text.__cxa_begin_cleanup
                0x0000000000088fc8        0x8 /home/olf/projects/circle/gcc-arm-9.2-2019.12-x86_64-arm-none-eabi/bin/../lib/gcc/arm-none-eabi/9.2.1/../../../../arm-none-eabi/lib/thumb/v8-a+simd/hard/libstdc++.a(eh_arm.o)
 .ARM.exidx.text.__gnu_end_cleanup
                0x0000000000088fd0        0x0 /home/olf/projects/circle/gcc-arm-9.2-2019.12-x86_64-arm-none-eabi/bin/../lib/gcc/arm-none-eabi/9.2.1/../../../../arm-none-eabi/lib/thumb/v8-a+simd/hard/libstdc++.a(eh_arm.o)
                                          0x8 (size before relaxing)
 .ARM.exidx.text.unlikely.__cxa_bad_cast
                0x0000000000088fd0        0x8 /home/olf/projects/circle/gcc-arm-9.2-2019.12-x86_64-arm-none-eabi/bin/../lib/gcc/arm-none-eabi/9.2.1/../../../../arm-none-eabi/lib/thumb/v8-a+simd/hard/libstdc++.a(eh_aux_runtime.o)
 .ARM.exidx.text.unlikely.__cxa_bad_typeid
                0x0000000000088fd8        0x8 /home/olf/projects/circle/gcc-arm-9.2-2019.12-x86_64-arm-none-eabi/bin/../lib/gcc/arm-none-eabi/9.2.1/../../../../arm-none-eabi/lib/thumb/v8-a+simd/hard/libstdc++.a(eh_aux_runtime.o)
 .ARM.exidx.text.unlikely.__cxa_throw_bad_array_new_length
                0x0000000000088fe0        0x8 /home/olf/projects/circle/gcc-arm-9.2-2019.12-x86_64-arm-none-eabi/bin/../lib/gcc/arm-none-eabi/9.2.1/../../../../arm-none-eabi/lib/thumb/v8-a+simd/hard/libstdc++.a(eh_aux_runtime.o)
 .ARM.exidx.text._ZNSt9exceptionD2Ev
                0x0000000000088fe8        0x8 /home/olf/projects/circle/gcc-arm-9.2-2019.12-x86_64-arm-none-eabi/bin/../lib/gcc/arm-none-eabi/9.2.1/../../../../arm-none-eabi/lib/thumb/v8-a+simd/hard/libstdc++.a(eh_exception.o)
 .ARM.exidx.text._ZNSt13bad_exceptionD2Ev
                0x0000000000088ff0        0x0 /home/olf/projects/circle/gcc-arm-9.2-2019.12-x86_64-arm-none-eabi/bin/../lib/gcc/arm-none-eabi/9.2.1/../../../../arm-none-eabi/lib/thumb/v8-a+simd/hard/libstdc++.a(eh_exception.o)
                                          0x8 (size before relaxing)
 .ARM.exidx.text._ZNKSt9exception4whatEv
                0x0000000000088ff0        0x0 /home/olf/projects/circle/gcc-arm-9.2-2019.12-x86_64-arm-none-eabi/bin/../lib/gcc/arm-none-eabi/9.2.1/../../../../arm-none-eabi/lib/thumb/v8-a+simd/hard/libstdc++.a(eh_exception.o)
                                          0x8 (size before relaxing)
 .ARM.exidx.text._ZNKSt13bad_exception4whatEv
                0x0000000000088ff0        0x0 /home/olf/projects/circle/gcc-arm-9.2-2019.12-x86_64-arm-none-eabi/bin/../lib/gcc/arm-none-eabi/9.2.1/../../../../arm-none-eabi/lib/thumb/v8-a+simd/hard/libstdc++.a(eh_exception.o)
                                          0x8 (size before relaxing)
 .ARM.exidx.text._ZNSt9exceptionD0Ev
                0x0000000000088ff0        0x0 /home/olf/projects/circle/gcc-arm-9.2-2019.12-x86_64-arm-none-eabi/bin/../lib/gcc/arm-none-eabi/9.2.1/../../../../arm-none-eabi/lib/thumb/v8-a+simd/hard/libstdc++.a(eh_exception.o)
                                          0x8 (size before relaxing)
 .ARM.exidx.text._ZNSt13bad_exceptionD0Ev
                0x0000000000088ff0        0x0 /home/olf/projects/circle/gcc-arm-9.2-2019.12-x86_64-arm-none-eabi/bin/../lib/gcc/arm-none-eabi/9.2.1/../../../../arm-none-eabi/lib/thumb/v8-a+simd/hard/libstdc++.a(eh_exception.o)
                                          0x8 (size before relaxing)
 .ARM.exidx.text._ZN10__cxxabiv115__forced_unwindD2Ev
                0x0000000000088ff0        0x0 /home/olf/projects/circle/gcc-arm-9.2-2019.12-x86_64-arm-none-eabi/bin/../lib/gcc/arm-none-eabi/9.2.1/../../../../arm-none-eabi/lib/thumb/v8-a+simd/hard/libstdc++.a(eh_exception.o)
                                          0x8 (size before relaxing)
 .ARM.exidx.text._ZN10__cxxabiv115__forced_unwindD0Ev
                0x0000000000088ff0        0x0 /home/olf/projects/circle/gcc-arm-9.2-2019.12-x86_64-arm-none-eabi/bin/../lib/gcc/arm-none-eabi/9.2.1/../../../../arm-none-eabi/lib/thumb/v8-a+simd/hard/libstdc++.a(eh_exception.o)
                                          0x8 (size before relaxing)
 .ARM.exidx.text._ZN10__cxxabiv119__foreign_exceptionD2Ev
                0x0000000000088ff0        0x0 /home/olf/projects/circle/gcc-arm-9.2-2019.12-x86_64-arm-none-eabi/bin/../lib/gcc/arm-none-eabi/9.2.1/../../../../arm-none-eabi/lib/thumb/v8-a+simd/hard/libstdc++.a(eh_exception.o)
                                          0x8 (size before relaxing)
 .ARM.exidx.text._ZN10__cxxabiv119__foreign_exceptionD0Ev
                0x0000000000088ff0        0x0 /home/olf/projects/circle/gcc-arm-9.2-2019.12-x86_64-arm-none-eabi/bin/../lib/gcc/arm-none-eabi/9.2.1/../../../../arm-none-eabi/lib/thumb/v8-a+simd/hard/libstdc++.a(eh_exception.o)
                                          0x8 (size before relaxing)
 .ARM.exidx.text._ZGTtNKSt9exceptionD1Ev
                0x0000000000088ff0        0x0 /home/olf/projects/circle/gcc-arm-9.2-2019.12-x86_64-arm-none-eabi/bin/../lib/gcc/arm-none-eabi/9.2.1/../../../../arm-none-eabi/lib/thumb/v8-a+simd/hard/libstdc++.a(eh_exception.o)
                                          0x8 (size before relaxing)
 .ARM.exidx.text._ZGTtNKSt13bad_exceptionD1Ev
                0x0000000000088ff0        0x0 /home/olf/projects/circle/gcc-arm-9.2-2019.12-x86_64-arm-none-eabi/bin/../lib/gcc/arm-none-eabi/9.2.1/../../../../arm-none-eabi/lib/thumb/v8-a+simd/hard/libstdc++.a(eh_exception.o)
                                          0x8 (size before relaxing)
 .ARM.exidx.text.__cxa_get_globals_fast
                0x0000000000088ff0        0x0 /home/olf/projects/circle/gcc-arm-9.2-2019.12-x86_64-arm-none-eabi/bin/../lib/gcc/arm-none-eabi/9.2.1/../../../../arm-none-eabi/lib/thumb/v8-a+simd/hard/libstdc++.a(eh_globals.o)
                                          0x8 (size before relaxing)
 .ARM.exidx.text.__cxa_get_globals
                0x0000000000088ff0        0x0 /home/olf/projects/circle/gcc-arm-9.2-2019.12-x86_64-arm-none-eabi/bin/../lib/gcc/arm-none-eabi/9.2.1/../../../../arm-none-eabi/lib/thumb/v8-a+simd/hard/libstdc++.a(eh_globals.o)
                                          0x8 (size before relaxing)
 .ARM.exidx.text._ZL28read_encoded_value_with_basehjPKhPj
                0x0000000000088ff0        0x8 /home/olf/projects/circle/gcc-arm-9.2-2019.12-x86_64-arm-none-eabi/bin/../lib/gcc/arm-none-eabi/9.2.1/../../../../arm-none-eabi/lib/thumb/v8-a+simd/hard/libstdc++.a(eh_personality.o)
 .ARM.exidx.text._ZL21base_of_encoded_valuehP15_Unwind_Context
                0x0000000000088ff8        0x8 /home/olf/projects/circle/gcc-arm-9.2-2019.12-x86_64-arm-none-eabi/bin/../lib/gcc/arm-none-eabi/9.2.1/../../../../arm-none-eabi/lib/thumb/v8-a+simd/hard/libstdc++.a(eh_personality.o)
 .ARM.exidx.text._ZL17parse_lsda_headerP15_Unwind_ContextPKhP16lsda_header_info
                0x0000000000089000        0x8 /home/olf/projects/circle/gcc-arm-9.2-2019.12-x86_64-arm-none-eabi/bin/../lib/gcc/arm-none-eabi/9.2.1/../../../../arm-none-eabi/lib/thumb/v8-a+simd/hard/libstdc++.a(eh_personality.o)
 .ARM.exidx.text.__gxx_personality_v0
                0x0000000000089008        0x8 /home/olf/projects/circle/gcc-arm-9.2-2019.12-x86_64-arm-none-eabi/bin/../lib/gcc/arm-none-eabi/9.2.1/../../../../arm-none-eabi/lib/thumb/v8-a+simd/hard/libstdc++.a(eh_personality.o)
 .ARM.exidx.text._ZN10__cxxabiv111__terminateEPFvvE
                0x0000000000089010        0x8 /home/olf/projects/circle/gcc-arm-9.2-2019.12-x86_64-arm-none-eabi/bin/../lib/gcc/arm-none-eabi/9.2.1/../../../../arm-none-eabi/lib/thumb/v8-a+simd/hard/libstdc++.a(eh_terminate.o)
 .ARM.exidx.text._ZSt9terminatev
                0x0000000000089018        0x8 /home/olf/projects/circle/gcc-arm-9.2-2019.12-x86_64-arm-none-eabi/bin/../lib/gcc/arm-none-eabi/9.2.1/../../../../arm-none-eabi/lib/thumb/v8-a+simd/hard/libstdc++.a(eh_terminate.o)
 .ARM.exidx.text._ZN10__cxxabiv112__unexpectedEPFvvE
                0x0000000000089020        0x8 /home/olf/projects/circle/gcc-arm-9.2-2019.12-x86_64-arm-none-eabi/bin/../lib/gcc/arm-none-eabi/9.2.1/../../../../arm-none-eabi/lib/thumb/v8-a+simd/hard/libstdc++.a(eh_terminate.o)
 .ARM.exidx.text._ZSt10unexpectedv
                0x0000000000089028        0x8 /home/olf/projects/circle/gcc-arm-9.2-2019.12-x86_64-arm-none-eabi/bin/../lib/gcc/arm-none-eabi/9.2.1/../../../../arm-none-eabi/lib/thumb/v8-a+simd/hard/libstdc++.a(eh_terminate.o)
 .ARM.exidx.text._ZSt13set_terminatePFvvE
                0x0000000000089030        0x8 /home/olf/projects/circle/gcc-arm-9.2-2019.12-x86_64-arm-none-eabi/bin/../lib/gcc/arm-none-eabi/9.2.1/../../../../arm-none-eabi/lib/thumb/v8-a+simd/hard/libstdc++.a(eh_terminate.o)
 .ARM.exidx.text._ZSt13get_terminatev
                0x0000000000089038        0x0 /home/olf/projects/circle/gcc-arm-9.2-2019.12-x86_64-arm-none-eabi/bin/../lib/gcc/arm-none-eabi/9.2.1/../../../../arm-none-eabi/lib/thumb/v8-a+simd/hard/libstdc++.a(eh_terminate.o)
                                          0x8 (size before relaxing)
 .ARM.exidx.text._ZSt14set_unexpectedPFvvE
                0x0000000000089038        0x0 /home/olf/projects/circle/gcc-arm-9.2-2019.12-x86_64-arm-none-eabi/bin/../lib/gcc/arm-none-eabi/9.2.1/../../../../arm-none-eabi/lib/thumb/v8-a+simd/hard/libstdc++.a(eh_terminate.o)
                                          0x8 (size before relaxing)
 .ARM.exidx.text._ZSt14get_unexpectedv
                0x0000000000089038        0x0 /home/olf/projects/circle/gcc-arm-9.2-2019.12-x86_64-arm-none-eabi/bin/../lib/gcc/arm-none-eabi/9.2.1/../../../../arm-none-eabi/lib/thumb/v8-a+simd/hard/libstdc++.a(eh_terminate.o)
                                          0x8 (size before relaxing)
 .ARM.exidx.text._ZL23__gxx_exception_cleanup19_Unwind_Reason_CodeP21_Unwind_Control_Block
                0x0000000000089038        0x8 /home/olf/projects/circle/gcc-arm-9.2-2019.12-x86_64-arm-none-eabi/bin/../lib/gcc/arm-none-eabi/9.2.1/../../../../arm-none-eabi/lib/thumb/v8-a+simd/hard/libstdc++.a(eh_throw.o)
 .ARM.exidx.text.__cxa_init_primary_exception
                0x0000000000089040        0x8 /home/olf/projects/circle/gcc-arm-9.2-2019.12-x86_64-arm-none-eabi/bin/../lib/gcc/arm-none-eabi/9.2.1/../../../../arm-none-eabi/lib/thumb/v8-a+simd/hard/libstdc++.a(eh_throw.o)
 .ARM.exidx.text.__cxa_throw
                0x0000000000089048        0x8 /home/olf/projects/circle/gcc-arm-9.2-2019.12-x86_64-arm-none-eabi/bin/../lib/gcc/arm-none-eabi/9.2.1/../../../../arm-none-eabi/lib/thumb/v8-a+simd/hard/libstdc++.a(eh_throw.o)
 .ARM.exidx.text.__cxa_rethrow
                0x0000000000089050        0x8 /home/olf/projects/circle/gcc-arm-9.2-2019.12-x86_64-arm-none-eabi/bin/../lib/gcc/arm-none-eabi/9.2.1/../../../../arm-none-eabi/lib/thumb/v8-a+simd/hard/libstdc++.a(eh_throw.o)
 .ARM.exidx.text._Znwj
                0x0000000000089058        0x0 /home/olf/projects/circle/gcc-arm-9.2-2019.12-x86_64-arm-none-eabi/bin/../lib/gcc/arm-none-eabi/9.2.1/../../../../arm-none-eabi/lib/thumb/v8-a+simd/hard/libstdc++.a(new_op.o)
                                          0x8 (size before relaxing)
 .ARM.exidx.text._Znaj
                0x0000000000089058        0x8 /home/olf/projects/circle/gcc-arm-9.2-2019.12-x86_64-arm-none-eabi/bin/../lib/gcc/arm-none-eabi/9.2.1/../../../../arm-none-eabi/lib/thumb/v8-a+simd/hard/libstdc++.a(new_opv.o)
 .ARM.exidx.text.__cxa_pure_virtual
                0x0000000000089060        0x8 /home/olf/projects/circle/gcc-arm-9.2-2019.12-x86_64-arm-none-eabi/bin/../lib/gcc/arm-none-eabi/9.2.1/../../../../arm-none-eabi/lib/thumb/v8-a+simd/hard/libstdc++.a(pure.o)
 .ARM.exidx.text.__cxa_deleted_virtual
                0x0000000000089068        0x8 /home/olf/projects/circle/gcc-arm-9.2-2019.12-x86_64-arm-none-eabi/bin/../lib/gcc/arm-none-eabi/9.2.1/../../../../arm-none-eabi/lib/thumb/v8-a+simd/hard/libstdc++.a(pure.o)
 .ARM.exidx.text._ZN10__cxxabiv120__si_class_type_infoD2Ev
                0x0000000000089070        0x8 /home/olf/projects/circle/gcc-arm-9.2-2019.12-x86_64-arm-none-eabi/bin/../lib/gcc/arm-none-eabi/9.2.1/../../../../arm-none-eabi/lib/thumb/v8-a+simd/hard/libstdc++.a(si_class_type_info.o)
 .ARM.exidx.text._ZN10__cxxabiv120__si_class_type_infoD0Ev
                0x0000000000089078        0x0 /home/olf/projects/circle/gcc-arm-9.2-2019.12-x86_64-arm-none-eabi/bin/../lib/gcc/arm-none-eabi/9.2.1/../../../../arm-none-eabi/lib/thumb/v8-a+simd/hard/libstdc++.a(si_class_type_info.o)
                                          0x8 (size before relaxing)
 .ARM.exidx.text._ZNK10__cxxabiv120__si_class_type_info20__do_find_public_srcEiPKvPKNS_17__class_type_infoES2_
                0x0000000000089078        0x0 /home/olf/projects/circle/gcc-arm-9.2-2019.12-x86_64-arm-none-eabi/bin/../lib/gcc/arm-none-eabi/9.2.1/../../../../arm-none-eabi/lib/thumb/v8-a+simd/hard/libstdc++.a(si_class_type_info.o)
                                          0x8 (size before relaxing)
 .ARM.exidx.text._ZNK10__cxxabiv120__si_class_type_info12__do_dyncastEiNS_17__class_type_info10__sub_kindEPKS1_PKvS4_S6_RNS1_16__dyncast_resultE
                0x0000000000089078        0x0 /home/olf/projects/circle/gcc-arm-9.2-2019.12-x86_64-arm-none-eabi/bin/../lib/gcc/arm-none-eabi/9.2.1/../../../../arm-none-eabi/lib/thumb/v8-a+simd/hard/libstdc++.a(si_class_type_info.o)
                                          0x8 (size before relaxing)
 .ARM.exidx.text._ZNK10__cxxabiv120__si_class_type_info11__do_upcastEPKNS_17__class_type_infoEPKvRNS1_15__upcast_resultE
                0x0000000000089078        0x8 /home/olf/projects/circle/gcc-arm-9.2-2019.12-x86_64-arm-none-eabi/bin/../lib/gcc/arm-none-eabi/9.2.1/../../../../arm-none-eabi/lib/thumb/v8-a+simd/hard/libstdc++.a(si_class_type_info.o)
 .ARM.exidx.text._ZNSt9type_infoD2Ev
                0x0000000000089080        0x8 /home/olf/projects/circle/gcc-arm-9.2-2019.12-x86_64-arm-none-eabi/bin/../lib/gcc/arm-none-eabi/9.2.1/../../../../arm-none-eabi/lib/thumb/v8-a+simd/hard/libstdc++.a(tinfo.o)
 .ARM.exidx.text._ZNKSt9type_info14__is_pointer_pEv
                0x0000000000089088        0x0 /home/olf/projects/circle/gcc-arm-9.2-2019.12-x86_64-arm-none-eabi/bin/../lib/gcc/arm-none-eabi/9.2.1/../../../../arm-none-eabi/lib/thumb/v8-a+simd/hard/libstdc++.a(tinfo.o)
                                          0x8 (size before relaxing)
 .ARM.exidx.text._ZNKSt9type_info11__do_upcastEPKN10__cxxabiv117__class_type_infoEPPv
                0x0000000000089088        0x0 /home/olf/projects/circle/gcc-arm-9.2-2019.12-x86_64-arm-none-eabi/bin/../lib/gcc/arm-none-eabi/9.2.1/../../../../arm-none-eabi/lib/thumb/v8-a+simd/hard/libstdc++.a(tinfo.o)
                                          0x8 (size before relaxing)
 .ARM.exidx.text._ZNSt9type_infoD0Ev
                0x0000000000089088        0x0 /home/olf/projects/circle/gcc-arm-9.2-2019.12-x86_64-arm-none-eabi/bin/../lib/gcc/arm-none-eabi/9.2.1/../../../../arm-none-eabi/lib/thumb/v8-a+simd/hard/libstdc++.a(tinfo.o)
                                          0x8 (size before relaxing)
 .ARM.exidx.text._ZNKSt9type_infoeqERKS_
                0x0000000000089088        0x0 /home/olf/projects/circle/gcc-arm-9.2-2019.12-x86_64-arm-none-eabi/bin/../lib/gcc/arm-none-eabi/9.2.1/../../../../arm-none-eabi/lib/thumb/v8-a+simd/hard/libstdc++.a(tinfo.o)
                                          0x8 (size before relaxing)
 .ARM.exidx.text._ZNKSt9type_info10__do_catchEPKS_PPvj
                0x0000000000089088        0x0 /home/olf/projects/circle/gcc-arm-9.2-2019.12-x86_64-arm-none-eabi/bin/../lib/gcc/arm-none-eabi/9.2.1/../../../../arm-none-eabi/lib/thumb/v8-a+simd/hard/libstdc++.a(tinfo.o)
                                          0x8 (size before relaxing)
 .ARM.exidx.text._ZN10__cxxabiv121__vmi_class_type_infoD2Ev
                0x0000000000089088        0x0 /home/olf/projects/circle/gcc-arm-9.2-2019.12-x86_64-arm-none-eabi/bin/../lib/gcc/arm-none-eabi/9.2.1/../../../../arm-none-eabi/lib/thumb/v8-a+simd/hard/libstdc++.a(vmi_class_type_info.o)
                                          0x8 (size before relaxing)
 .ARM.exidx.text._ZN10__cxxabiv121__vmi_class_type_infoD0Ev
                0x0000000000089088        0x0 /home/olf/projects/circle/gcc-arm-9.2-2019.12-x86_64-arm-none-eabi/bin/../lib/gcc/arm-none-eabi/9.2.1/../../../../arm-none-eabi/lib/thumb/v8-a+simd/hard/libstdc++.a(vmi_class_type_info.o)
                                          0x8 (size before relaxing)
 .ARM.exidx.text._ZNK10__cxxabiv121__vmi_class_type_info20__do_find_public_srcEiPKvPKNS_17__class_type_infoES2_
                0x0000000000089088        0x8 /home/olf/projects/circle/gcc-arm-9.2-2019.12-x86_64-arm-none-eabi/bin/../lib/gcc/arm-none-eabi/9.2.1/../../../../arm-none-eabi/lib/thumb/v8-a+simd/hard/libstdc++.a(vmi_class_type_info.o)
 .ARM.exidx.text._ZNK10__cxxabiv121__vmi_class_type_info12__do_dyncastEiNS_17__class_type_info10__sub_kindEPKS1_PKvS4_S6_RNS1_16__dyncast_resultE
                0x0000000000089090        0x8 /home/olf/projects/circle/gcc-arm-9.2-2019.12-x86_64-arm-none-eabi/bin/../lib/gcc/arm-none-eabi/9.2.1/../../../../arm-none-eabi/lib/thumb/v8-a+simd/hard/libstdc++.a(vmi_class_type_info.o)
 .ARM.exidx.text._ZNK10__cxxabiv121__vmi_class_type_info11__do_upcastEPKNS_17__class_type_infoEPKvRNS1_15__upcast_resultE
                0x0000000000089098        0x8 /home/olf/projects/circle/gcc-arm-9.2-2019.12-x86_64-arm-none-eabi/bin/../lib/gcc/arm-none-eabi/9.2.1/../../../../arm-none-eabi/lib/thumb/v8-a+simd/hard/libstdc++.a(vmi_class_type_info.o)
 .ARM.exidx.text._ZN9__gnu_cxx27__verbose_terminate_handlerEv
                0x00000000000890a0        0x8 /home/olf/projects/circle/gcc-arm-9.2-2019.12-x86_64-arm-none-eabi/bin/../lib/gcc/arm-none-eabi/9.2.1/../../../../arm-none-eabi/lib/thumb/v8-a+simd/hard/libstdc++.a(vterminate.o)
 .ARM.exidx.text._ZNKSt9bad_alloc4whatEv
                0x00000000000890a8        0x8 /home/olf/projects/circle/gcc-arm-9.2-2019.12-x86_64-arm-none-eabi/bin/../lib/gcc/arm-none-eabi/9.2.1/../../../../arm-none-eabi/lib/thumb/v8-a+simd/hard/libstdc++.a(bad_alloc.o)
 .ARM.exidx.text._ZNSt9bad_allocD2Ev
                0x00000000000890b0        0x0 /home/olf/projects/circle/gcc-arm-9.2-2019.12-x86_64-arm-none-eabi/bin/../lib/gcc/arm-none-eabi/9.2.1/../../../../arm-none-eabi/lib/thumb/v8-a+simd/hard/libstdc++.a(bad_alloc.o)
                                          0x8 (size before relaxing)
 .ARM.exidx.text._ZNSt9bad_allocD0Ev
                0x00000000000890b0        0x0 /home/olf/projects/circle/gcc-arm-9.2-2019.12-x86_64-arm-none-eabi/bin/../lib/gcc/arm-none-eabi/9.2.1/../../../../arm-none-eabi/lib/thumb/v8-a+simd/hard/libstdc++.a(bad_alloc.o)
                                          0x8 (size before relaxing)
 .ARM.exidx.text._ZNKSt20bad_array_new_length4whatEv
                0x00000000000890b0        0x0 /home/olf/projects/circle/gcc-arm-9.2-2019.12-x86_64-arm-none-eabi/bin/../lib/gcc/arm-none-eabi/9.2.1/../../../../arm-none-eabi/lib/thumb/v8-a+simd/hard/libstdc++.a(bad_array_new.o)
                                          0x8 (size before relaxing)
 .ARM.exidx.text._ZNSt20bad_array_new_lengthD2Ev
                0x00000000000890b0        0x0 /home/olf/projects/circle/gcc-arm-9.2-2019.12-x86_64-arm-none-eabi/bin/../lib/gcc/arm-none-eabi/9.2.1/../../../../arm-none-eabi/lib/thumb/v8-a+simd/hard/libstdc++.a(bad_array_new.o)
                                          0x8 (size before relaxing)
 .ARM.exidx.text._ZNSt20bad_array_new_lengthD0Ev
                0x00000000000890b0        0x0 /home/olf/projects/circle/gcc-arm-9.2-2019.12-x86_64-arm-none-eabi/bin/../lib/gcc/arm-none-eabi/9.2.1/../../../../arm-none-eabi/lib/thumb/v8-a+simd/hard/libstdc++.a(bad_array_new.o)
                                          0x8 (size before relaxing)
 .ARM.exidx.text._ZNKSt8bad_cast4whatEv
                0x00000000000890b0        0x0 /home/olf/projects/circle/gcc-arm-9.2-2019.12-x86_64-arm-none-eabi/bin/../lib/gcc/arm-none-eabi/9.2.1/../../../../arm-none-eabi/lib/thumb/v8-a+simd/hard/libstdc++.a(bad_cast.o)
                                          0x8 (size before relaxing)
 .ARM.exidx.text._ZNSt8bad_castD2Ev
                0x00000000000890b0        0x0 /home/olf/projects/circle/gcc-arm-9.2-2019.12-x86_64-arm-none-eabi/bin/../lib/gcc/arm-none-eabi/9.2.1/../../../../arm-none-eabi/lib/thumb/v8-a+simd/hard/libstdc++.a(bad_cast.o)
                                          0x8 (size before relaxing)
 .ARM.exidx.text._ZNSt8bad_castD0Ev
                0x00000000000890b0        0x0 /home/olf/projects/circle/gcc-arm-9.2-2019.12-x86_64-arm-none-eabi/bin/../lib/gcc/arm-none-eabi/9.2.1/../../../../arm-none-eabi/lib/thumb/v8-a+simd/hard/libstdc++.a(bad_cast.o)
                                          0x8 (size before relaxing)
 .ARM.exidx.text._ZNKSt10bad_typeid4whatEv
                0x00000000000890b0        0x0 /home/olf/projects/circle/gcc-arm-9.2-2019.12-x86_64-arm-none-eabi/bin/../lib/gcc/arm-none-eabi/9.2.1/../../../../arm-none-eabi/lib/thumb/v8-a+simd/hard/libstdc++.a(bad_typeid.o)
                                          0x8 (size before relaxing)
 .ARM.exidx.text._ZNSt10bad_typeidD2Ev
                0x00000000000890b0        0x0 /home/olf/projects/circle/gcc-arm-9.2-2019.12-x86_64-arm-none-eabi/bin/../lib/gcc/arm-none-eabi/9.2.1/../../../../arm-none-eabi/lib/thumb/v8-a+simd/hard/libstdc++.a(bad_typeid.o)
                                          0x8 (size before relaxing)
 .ARM.exidx.text._ZNSt10bad_typeidD0Ev
                0x00000000000890b0        0x0 /home/olf/projects/circle/gcc-arm-9.2-2019.12-x86_64-arm-none-eabi/bin/../lib/gcc/arm-none-eabi/9.2.1/../../../../arm-none-eabi/lib/thumb/v8-a+simd/hard/libstdc++.a(bad_typeid.o)
                                          0x8 (size before relaxing)
 .ARM.exidx.text._ZdlPv
                0x00000000000890b0        0x0 /home/olf/projects/circle/gcc-arm-9.2-2019.12-x86_64-arm-none-eabi/bin/../lib/gcc/arm-none-eabi/9.2.1/../../../../arm-none-eabi/lib/thumb/v8-a+simd/hard/libstdc++.a(del_op.o)
                                          0x8 (size before relaxing)
 .ARM.exidx.text._ZN12_GLOBAL__N_14pool4freeEPv.constprop.0
                0x00000000000890b0        0x0 /home/olf/projects/circle/gcc-arm-9.2-2019.12-x86_64-arm-none-eabi/bin/../lib/gcc/arm-none-eabi/9.2.1/../../../../arm-none-eabi/lib/thumb/v8-a+simd/hard/libstdc++.a(eh_alloc.o)
                                          0x8 (size before relaxing)
 .ARM.exidx.text._ZN12_GLOBAL__N_14pool8allocateEj.constprop.0
                0x00000000000890b0        0x0 /home/olf/projects/circle/gcc-arm-9.2-2019.12-x86_64-arm-none-eabi/bin/../lib/gcc/arm-none-eabi/9.2.1/../../../../arm-none-eabi/lib/thumb/v8-a+simd/hard/libstdc++.a(eh_alloc.o)
                                          0x8 (size before relaxing)
 .ARM.exidx.text._ZN9__gnu_cxx9__freeresEv
                0x00000000000890b0        0x0 /home/olf/projects/circle/gcc-arm-9.2-2019.12-x86_64-arm-none-eabi/bin/../lib/gcc/arm-none-eabi/9.2.1/../../../../arm-none-eabi/lib/thumb/v8-a+simd/hard/libstdc++.a(eh_alloc.o)
                                          0x8 (size before relaxing)
 .ARM.exidx.text.__cxa_allocate_exception
                0x00000000000890b0        0x0 /home/olf/projects/circle/gcc-arm-9.2-2019.12-x86_64-arm-none-eabi/bin/../lib/gcc/arm-none-eabi/9.2.1/../../../../arm-none-eabi/lib/thumb/v8-a+simd/hard/libstdc++.a(eh_alloc.o)
                                          0x8 (size before relaxing)
 .ARM.exidx.text.__cxa_free_exception
                0x00000000000890b0        0x0 /home/olf/projects/circle/gcc-arm-9.2-2019.12-x86_64-arm-none-eabi/bin/../lib/gcc/arm-none-eabi/9.2.1/../../../../arm-none-eabi/lib/thumb/v8-a+simd/hard/libstdc++.a(eh_alloc.o)
                                          0x8 (size before relaxing)
 .ARM.exidx.text.__cxa_allocate_dependent_exception
                0x00000000000890b0        0x0 /home/olf/projects/circle/gcc-arm-9.2-2019.12-x86_64-arm-none-eabi/bin/../lib/gcc/arm-none-eabi/9.2.1/../../../../arm-none-eabi/lib/thumb/v8-a+simd/hard/libstdc++.a(eh_alloc.o)
                                          0x8 (size before relaxing)
 .ARM.exidx.text.__cxa_free_dependent_exception
                0x00000000000890b0        0x0 /home/olf/projects/circle/gcc-arm-9.2-2019.12-x86_64-arm-none-eabi/bin/../lib/gcc/arm-none-eabi/9.2.1/../../../../arm-none-eabi/lib/thumb/v8-a+simd/hard/libstdc++.a(eh_alloc.o)
                                          0x8 (size before relaxing)
 .ARM.exidx.text.startup._GLOBAL__sub_I__ZN9__gnu_cxx9__freeresEv
                0x00000000000890b0        0x0 /home/olf/projects/circle/gcc-arm-9.2-2019.12-x86_64-arm-none-eabi/bin/../lib/gcc/arm-none-eabi/9.2.1/../../../../arm-none-eabi/lib/thumb/v8-a+simd/hard/libstdc++.a(eh_alloc.o)
                                          0x8 (size before relaxing)
 .ARM.exidx.text._ZN10__cxxabiv1L24__is_gxx_exception_classEPc
                0x00000000000890b0        0x0 /home/olf/projects/circle/gcc-arm-9.2-2019.12-x86_64-arm-none-eabi/bin/../lib/gcc/arm-none-eabi/9.2.1/../../../../arm-none-eabi/lib/thumb/v8-a+simd/hard/libstdc++.a(eh_call.o)
                                          0x8 (size before relaxing)
 .ARM.exidx.text.__cxa_call_terminate
                0x00000000000890b0        0x0 /home/olf/projects/circle/gcc-arm-9.2-2019.12-x86_64-arm-none-eabi/bin/../lib/gcc/arm-none-eabi/9.2.1/../../../../arm-none-eabi/lib/thumb/v8-a+simd/hard/libstdc++.a(eh_call.o)
                                          0x8 (size before relaxing)
 .ARM.exidx.text.unlikely.__cxa_call_unexpected
                0x00000000000890b0        0x8 /home/olf/projects/circle/gcc-arm-9.2-2019.12-x86_64-arm-none-eabi/bin/../lib/gcc/arm-none-eabi/9.2.1/../../../../arm-none-eabi/lib/thumb/v8-a+simd/hard/libstdc++.a(eh_call.o)
 .ARM.exidx.text.__cxa_get_exception_ptr
                0x00000000000890b8        0x8 /home/olf/projects/circle/gcc-arm-9.2-2019.12-x86_64-arm-none-eabi/bin/../lib/gcc/arm-none-eabi/9.2.1/../../../../arm-none-eabi/lib/thumb/v8-a+simd/hard/libstdc++.a(eh_catch.o)
 .ARM.exidx.text.__cxa_begin_catch
                0x00000000000890c0        0x8 /home/olf/projects/circle/gcc-arm-9.2-2019.12-x86_64-arm-none-eabi/bin/../lib/gcc/arm-none-eabi/9.2.1/../../../../arm-none-eabi/lib/thumb/v8-a+simd/hard/libstdc++.a(eh_catch.o)
 .ARM.exidx.text.__cxa_end_catch
                0x00000000000890c8        0x8 /home/olf/projects/circle/gcc-arm-9.2-2019.12-x86_64-arm-none-eabi/bin/../lib/gcc/arm-none-eabi/9.2.1/../../../../arm-none-eabi/lib/thumb/v8-a+simd/hard/libstdc++.a(eh_catch.o)
 .ARM.exidx.text._ZSt18uncaught_exceptionv
                0x00000000000890d0        0x0 /home/olf/projects/circle/gcc-arm-9.2-2019.12-x86_64-arm-none-eabi/bin/../lib/gcc/arm-none-eabi/9.2.1/../../../../arm-none-eabi/lib/thumb/v8-a+simd/hard/libstdc++.a(eh_catch.o)
                                          0x8 (size before relaxing)
 .ARM.exidx.text._ZSt19uncaught_exceptionsv
                0x00000000000890d0        0x0 /home/olf/projects/circle/gcc-arm-9.2-2019.12-x86_64-arm-none-eabi/bin/../lib/gcc/arm-none-eabi/9.2.1/../../../../arm-none-eabi/lib/thumb/v8-a+simd/hard/libstdc++.a(eh_catch.o)
                                          0x8 (size before relaxing)
 .ARM.exidx.text.__cxa_current_exception_type
                0x00000000000890d0        0x0 /home/olf/projects/circle/gcc-arm-9.2-2019.12-x86_64-arm-none-eabi/bin/../lib/gcc/arm-none-eabi/9.2.1/../../../../arm-none-eabi/lib/thumb/v8-a+simd/hard/libstdc++.a(eh_type.o)
                                          0x8 (size before relaxing)
 .ARM.exidx.text._ZSt15set_new_handlerPFvvE
                0x00000000000890d0        0x0 /home/olf/projects/circle/gcc-arm-9.2-2019.12-x86_64-arm-none-eabi/bin/../lib/gcc/arm-none-eabi/9.2.1/../../../../arm-none-eabi/lib/thumb/v8-a+simd/hard/libstdc++.a(new_handler.o)
                                          0x8 (size before relaxing)
 .ARM.exidx.text._ZSt15get_new_handlerv
                0x00000000000890d0        0x0 /home/olf/projects/circle/gcc-arm-9.2-2019.12-x86_64-arm-none-eabi/bin/../lib/gcc/arm-none-eabi/9.2.1/../../../../arm-none-eabi/lib/thumb/v8-a+simd/hard/libstdc++.a(new_handler.o)
                                          0x8 (size before relaxing)
 .ARM.exidx.text.__udivmoddi4
                0x00000000000890d0        0x0 /home/olf/projects/circle/gcc-arm-9.2-2019.12-x86_64-arm-none-eabi/bin/../lib/gcc/arm-none-eabi/9.2.1/thumb/v8-a+simd/hard/libgcc.a(_udivmoddi4.o)
                                          0x8 (size before relaxing)
 .ARM.exidx.text.selfrel_offset31
                0x00000000000890d0        0x0 /home/olf/projects/circle/gcc-arm-9.2-2019.12-x86_64-arm-none-eabi/bin/../lib/gcc/arm-none-eabi/9.2.1/thumb/v8-a+simd/hard/libgcc.a(unwind-arm.o)
                                          0x8 (size before relaxing)
 .ARM.exidx.text.search_EIT_table
                0x00000000000890d0        0x0 /home/olf/projects/circle/gcc-arm-9.2-2019.12-x86_64-arm-none-eabi/bin/../lib/gcc/arm-none-eabi/9.2.1/thumb/v8-a+simd/hard/libgcc.a(unwind-arm.o)
                                          0x8 (size before relaxing)
 .ARM.exidx.text.__gnu_unwind_get_pr_addr
                0x00000000000890d0        0x0 /home/olf/projects/circle/gcc-arm-9.2-2019.12-x86_64-arm-none-eabi/bin/../lib/gcc/arm-none-eabi/9.2.1/thumb/v8-a+simd/hard/libgcc.a(unwind-arm.o)
                                          0x8 (size before relaxing)
 .ARM.exidx.text.get_eit_entry
                0x00000000000890d0        0x8 /home/olf/projects/circle/gcc-arm-9.2-2019.12-x86_64-arm-none-eabi/bin/../lib/gcc/arm-none-eabi/9.2.1/thumb/v8-a+simd/hard/libgcc.a(unwind-arm.o)
 .ARM.exidx.text.restore_non_core_regs
                0x00000000000890d8        0x8 /home/olf/projects/circle/gcc-arm-9.2-2019.12-x86_64-arm-none-eabi/bin/../lib/gcc/arm-none-eabi/9.2.1/thumb/v8-a+simd/hard/libgcc.a(unwind-arm.o)
 .ARM.exidx.text._Unwind_decode_typeinfo_ptr.isra.0
                0x00000000000890e0        0x8 /home/olf/projects/circle/gcc-arm-9.2-2019.12-x86_64-arm-none-eabi/bin/../lib/gcc/arm-none-eabi/9.2.1/thumb/v8-a+simd/hard/libgcc.a(unwind-arm.o)
 .ARM.exidx.text.__gnu_unwind_24bit.isra.0
                0x00000000000890e8        0x0 /home/olf/projects/circle/gcc-arm-9.2-2019.12-x86_64-arm-none-eabi/bin/../lib/gcc/arm-none-eabi/9.2.1/thumb/v8-a+simd/hard/libgcc.a(unwind-arm.o)
                                          0x8 (size before relaxing)
 .ARM.exidx.text._Unwind_DebugHook
                0x00000000000890e8        0x0 /home/olf/projects/circle/gcc-arm-9.2-2019.12-x86_64-arm-none-eabi/bin/../lib/gcc/arm-none-eabi/9.2.1/thumb/v8-a+simd/hard/libgcc.a(unwind-arm.o)
                                          0x8 (size before relaxing)
 .ARM.exidx.text.unwind_phase2
                0x00000000000890e8        0x8 /home/olf/projects/circle/gcc-arm-9.2-2019.12-x86_64-arm-none-eabi/bin/../lib/gcc/arm-none-eabi/9.2.1/thumb/v8-a+simd/hard/libgcc.a(unwind-arm.o)
 .ARM.exidx.text.unwind_phase2_forced
                0x00000000000890f0        0x8 /home/olf/projects/circle/gcc-arm-9.2-2019.12-x86_64-arm-none-eabi/bin/../lib/gcc/arm-none-eabi/9.2.1/thumb/v8-a+simd/hard/libgcc.a(unwind-arm.o)
 .ARM.exidx.text._Unwind_GetCFA
                0x00000000000890f8        0x8 /home/olf/projects/circle/gcc-arm-9.2-2019.12-x86_64-arm-none-eabi/bin/../lib/gcc/arm-none-eabi/9.2.1/thumb/v8-a+simd/hard/libgcc.a(unwind-arm.o)
 .ARM.exidx.text.__gnu_Unwind_RaiseException
                0x0000000000089100        0x8 /home/olf/projects/circle/gcc-arm-9.2-2019.12-x86_64-arm-none-eabi/bin/../lib/gcc/arm-none-eabi/9.2.1/thumb/v8-a+simd/hard/libgcc.a(unwind-arm.o)
 .ARM.exidx.text.__gnu_Unwind_ForcedUnwind
                0x0000000000089108        0x8 /home/olf/projects/circle/gcc-arm-9.2-2019.12-x86_64-arm-none-eabi/bin/../lib/gcc/arm-none-eabi/9.2.1/thumb/v8-a+simd/hard/libgcc.a(unwind-arm.o)
 .ARM.exidx.text.__gnu_Unwind_Resume
                0x0000000000089110        0x8 /home/olf/projects/circle/gcc-arm-9.2-2019.12-x86_64-arm-none-eabi/bin/../lib/gcc/arm-none-eabi/9.2.1/thumb/v8-a+simd/hard/libgcc.a(unwind-arm.o)
 .ARM.exidx.text.__gnu_Unwind_Resume_or_Rethrow
                0x0000000000089118        0x8 /home/olf/projects/circle/gcc-arm-9.2-2019.12-x86_64-arm-none-eabi/bin/../lib/gcc/arm-none-eabi/9.2.1/thumb/v8-a+simd/hard/libgcc.a(unwind-arm.o)
 .ARM.exidx.text._Unwind_Complete
                0x0000000000089120        0x0 /home/olf/projects/circle/gcc-arm-9.2-2019.12-x86_64-arm-none-eabi/bin/../lib/gcc/arm-none-eabi/9.2.1/thumb/v8-a+simd/hard/libgcc.a(unwind-arm.o)
                                          0x8 (size before relaxing)
 .ARM.exidx.text._Unwind_DeleteException
                0x0000000000089120        0x0 /home/olf/projects/circle/gcc-arm-9.2-2019.12-x86_64-arm-none-eabi/bin/../lib/gcc/arm-none-eabi/9.2.1/thumb/v8-a+simd/hard/libgcc.a(unwind-arm.o)
                                          0x8 (size before relaxing)
 .ARM.exidx.text._Unwind_VRS_Get
                0x0000000000089120        0x0 /home/olf/projects/circle/gcc-arm-9.2-2019.12-x86_64-arm-none-eabi/bin/../lib/gcc/arm-none-eabi/9.2.1/thumb/v8-a+simd/hard/libgcc.a(unwind-arm.o)
                                          0x8 (size before relaxing)
 .ARM.exidx.text._Unwind_GetGR
                0x0000000000089120        0x0 /home/olf/projects/circle/gcc-arm-9.2-2019.12-x86_64-arm-none-eabi/bin/../lib/gcc/arm-none-eabi/9.2.1/thumb/v8-a+simd/hard/libgcc.a(unwind-arm.o)
                                          0x8 (size before relaxing)
 .ARM.exidx.text._Unwind_VRS_Set
                0x0000000000089120        0x0 /home/olf/projects/circle/gcc-arm-9.2-2019.12-x86_64-arm-none-eabi/bin/../lib/gcc/arm-none-eabi/9.2.1/thumb/v8-a+simd/hard/libgcc.a(unwind-arm.o)
                                          0x8 (size before relaxing)
 .ARM.exidx.text._Unwind_SetGR
                0x0000000000089120        0x0 /home/olf/projects/circle/gcc-arm-9.2-2019.12-x86_64-arm-none-eabi/bin/../lib/gcc/arm-none-eabi/9.2.1/thumb/v8-a+simd/hard/libgcc.a(unwind-arm.o)
                                          0x8 (size before relaxing)
 .ARM.exidx.text.__gnu_Unwind_Backtrace
                0x0000000000089120        0x8 /home/olf/projects/circle/gcc-arm-9.2-2019.12-x86_64-arm-none-eabi/bin/../lib/gcc/arm-none-eabi/9.2.1/thumb/v8-a+simd/hard/libgcc.a(unwind-arm.o)
 .ARM.exidx.text.__gnu_unwind_pr_common
                0x0000000000089128        0x8 /home/olf/projects/circle/gcc-arm-9.2-2019.12-x86_64-arm-none-eabi/bin/../lib/gcc/arm-none-eabi/9.2.1/thumb/v8-a+simd/hard/libgcc.a(unwind-arm.o)
 .ARM.exidx.text.__aeabi_unwind_cpp_pr0
                0x0000000000089130        0x8 /home/olf/projects/circle/gcc-arm-9.2-2019.12-x86_64-arm-none-eabi/bin/../lib/gcc/arm-none-eabi/9.2.1/thumb/v8-a+simd/hard/libgcc.a(unwind-arm.o)
 .ARM.exidx.text.__aeabi_unwind_cpp_pr1
                0x0000000000089138        0x0 /home/olf/projects/circle/gcc-arm-9.2-2019.12-x86_64-arm-none-eabi/bin/../lib/gcc/arm-none-eabi/9.2.1/thumb/v8-a+simd/hard/libgcc.a(unwind-arm.o)
                                          0x8 (size before relaxing)
 .ARM.exidx.text.__aeabi_unwind_cpp_pr2
                0x0000000000089138        0x0 /home/olf/projects/circle/gcc-arm-9.2-2019.12-x86_64-arm-none-eabi/bin/../lib/gcc/arm-none-eabi/9.2.1/thumb/v8-a+simd/hard/libgcc.a(unwind-arm.o)
                                          0x8 (size before relaxing)
 .ARM.exidx.text._Unwind_VRS_Pop
                0x0000000000089138       0x10 /home/olf/projects/circle/gcc-arm-9.2-2019.12-x86_64-arm-none-eabi/bin/../lib/gcc/arm-none-eabi/9.2.1/thumb/v8-a+simd/hard/libgcc.a(unwind-arm.o)
                                          0x8 (size before relaxing)
 .ARM.exidx.text.next_unwind_byte
                0x0000000000089148        0x0 /home/olf/projects/circle/gcc-arm-9.2-2019.12-x86_64-arm-none-eabi/bin/../lib/gcc/arm-none-eabi/9.2.1/thumb/v8-a+simd/hard/libgcc.a(pr-support.o)
                                          0x8 (size before relaxing)
 .ARM.exidx.text._Unwind_GetGR.constprop.0
                0x0000000000089148        0x8 /home/olf/projects/circle/gcc-arm-9.2-2019.12-x86_64-arm-none-eabi/bin/../lib/gcc/arm-none-eabi/9.2.1/thumb/v8-a+simd/hard/libgcc.a(pr-support.o)
 .ARM.exidx.text.unwind_UCB_from_context
                0x0000000000089150        0x8 /home/olf/projects/circle/gcc-arm-9.2-2019.12-x86_64-arm-none-eabi/bin/../lib/gcc/arm-none-eabi/9.2.1/thumb/v8-a+simd/hard/libgcc.a(pr-support.o)
 .ARM.exidx.text.__gnu_unwind_execute
                0x0000000000089158        0x8 /home/olf/projects/circle/gcc-arm-9.2-2019.12-x86_64-arm-none-eabi/bin/../lib/gcc/arm-none-eabi/9.2.1/thumb/v8-a+simd/hard/libgcc.a(pr-support.o)
 .ARM.exidx.text.__gnu_unwind_frame
                0x0000000000089160        0x8 /home/olf/projects/circle/gcc-arm-9.2-2019.12-x86_64-arm-none-eabi/bin/../lib/gcc/arm-none-eabi/9.2.1/thumb/v8-a+simd/hard/libgcc.a(pr-support.o)
 .ARM.exidx.text._Unwind_GetRegionStart
                0x0000000000089168        0x8 /home/olf/projects/circle/gcc-arm-9.2-2019.12-x86_64-arm-none-eabi/bin/../lib/gcc/arm-none-eabi/9.2.1/thumb/v8-a+simd/hard/libgcc.a(pr-support.o)
 .ARM.exidx.text._Unwind_GetLanguageSpecificData
                0x0000000000089170        0x8 /home/olf/projects/circle/gcc-arm-9.2-2019.12-x86_64-arm-none-eabi/bin/../lib/gcc/arm-none-eabi/9.2.1/thumb/v8-a+simd/hard/libgcc.a(pr-support.o)
 .ARM.exidx.text.unlikely._Unwind_GetDataRelBase
                0x0000000000089178        0x8 /home/olf/projects/circle/gcc-arm-9.2-2019.12-x86_64-arm-none-eabi/bin/../lib/gcc/arm-none-eabi/9.2.1/thumb/v8-a+simd/hard/libgcc.a(pr-support.o)
 .ARM.exidx.text.unlikely._Unwind_GetTextRelBase
                0x0000000000089180        0x0 /home/olf/projects/circle/gcc-arm-9.2-2019.12-x86_64-arm-none-eabi/bin/../lib/gcc/arm-none-eabi/9.2.1/thumb/v8-a+simd/hard/libgcc.a(pr-support.o)
                                          0x8 (size before relaxing)
                0x0000000000089180                __exidx_end = .

.rel.dyn        0x0000000000089180        0x0
 .rel.iplt      0x0000000000089180        0x0 main.o

.eh_frame
 *(.eh_frame*)

.data           0x0000000000089180      0x7fc
 *(.data*)
 .data          0x0000000000089180        0x0 main.o
 .data          0x0000000000089180        0x0 kernel.o
 .data          0x0000000000089180        0x0 ../../../addon/wlan/hostap/wpa_supplicant/libwpa_supplicant.a(wpasupplicant.o)
 .data          0x0000000000089180        0x0 ../../../addon/wlan/hostap/wpa_supplicant/libwpa_supplicant.a(eloop_circle.o)
 .data          0x0000000000089180        0x0 ../../../addon/wlan/hostap/wpa_supplicant/libwpa_supplicant.a(os_circle.o)
 .data          0x0000000000089180        0x0 ../../../addon/wlan/hostap/wpa_supplicant/libwpa_supplicant.a(main_circle.o)
 .data          0x0000000000089180       0x1c ../../../addon/wlan/hostap/wpa_supplicant/libwpa_supplicant.a(wpa_supplicant.o)
                0x0000000000089180                wpa_supplicant_full_license5
                0x0000000000089184                wpa_supplicant_full_license4
                0x0000000000089188                wpa_supplicant_full_license3
                0x000000000008918c                wpa_supplicant_full_license2
                0x0000000000089190                wpa_supplicant_full_license1
                0x0000000000089194                wpa_supplicant_license
                0x0000000000089198                wpa_supplicant_version
 .data          0x000000000008919c        0x0 ../../../addon/wlan/hostap/wpa_supplicant/libwpa_supplicant.a(wpas_glue.o)
 .data          0x000000000008919c        0x8 ../../../addon/wlan/hostap/wpa_supplicant/libwpa_supplicant.a(drivers.o)
                0x000000000008919c                wpa_drivers
 .data          0x00000000000891a4        0x0 ../../../addon/wlan/hostap/wpa_supplicant/libwpa_supplicant.a(driver_circle.o)
 .data          0x00000000000891a4        0x0 ../../../addon/wlan/hostap/wpa_supplicant/libwpa_supplicant.a(scan_helpers.o)
 .data          0x00000000000891a4       0x28 ../../../addon/wlan/hostap/wpa_supplicant/libwpa_supplicant.a(eapol_supp_sm.o)
 .data          0x00000000000891cc        0x0 ../../../addon/wlan/hostap/wpa_supplicant/libwpa_supplicant.a(eap.o)
 .data          0x00000000000891cc        0x0 ../../../addon/wlan/hostap/wpa_supplicant/libwpa_supplicant.a(eap_methods.o)
 .data          0x00000000000891cc        0x0 ../../../addon/wlan/hostap/wpa_supplicant/libwpa_supplicant.a(l2_packet_circle.o)
 .data          0x00000000000891cc        0x0 ../../../addon/wlan/hostap/wpa_supplicant/libwpa_supplicant.a(pmksa_cache.o)
 .data          0x00000000000891cc        0x0 ../../../addon/wlan/hostap/wpa_supplicant/libwpa_supplicant.a(preauth.o)
 .data          0x00000000000891cc        0x0 ../../../addon/wlan/hostap/wpa_supplicant/libwpa_supplicant.a(wpa.o)
 .data          0x00000000000891cc        0x0 ../../../addon/wlan/hostap/wpa_supplicant/libwpa_supplicant.a(wpa_ie.o)
 .data          0x00000000000891cc        0x0 ../../../addon/wlan/hostap/wpa_supplicant/libwpa_supplicant.a(common.o)
 .data          0x00000000000891cc        0x4 ../../../addon/wlan/hostap/wpa_supplicant/libwpa_supplicant.a(wpa_debug.o)
                0x00000000000891cc                wpa_debug_level
 .data          0x00000000000891d0        0x0 ../../../addon/wlan/hostap/wpa_supplicant/libwpa_supplicant.a(wpabuf.o)
 .data          0x00000000000891d0        0x0 ../../../addon/wlan/hostap/wpa_supplicant/libwpa_supplicant.a(blacklist.o)
 .data          0x00000000000891d0        0x0 ../../../addon/wlan/hostap/wpa_supplicant/libwpa_supplicant.a(config.o)
 .data          0x00000000000891d0        0x0 ../../../addon/wlan/hostap/wpa_supplicant/libwpa_supplicant.a(config_file_circle.o)
 .data          0x00000000000891d0        0x0 ../../../addon/wlan/hostap/wpa_supplicant/libwpa_supplicant.a(events.o)
 .data          0x00000000000891d0        0x0 ../../../addon/wlan/hostap/wpa_supplicant/libwpa_supplicant.a(notify.o)
 .data          0x00000000000891d0        0x0 ../../../addon/wlan/hostap/wpa_supplicant/libwpa_supplicant.a(scan.o)
 .data          0x00000000000891d0        0x0 ../../../addon/wlan/hostap/wpa_supplicant/libwpa_supplicant.a(wpa_common.o)
 .data          0x00000000000891d0        0x0 ../../../addon/wlan/hostap/wpa_supplicant/libwpa_supplicant.a(aes-unwrap.o)
 .data          0x00000000000891d0        0x0 ../../../addon/wlan/hostap/wpa_supplicant/libwpa_supplicant.a(md5-internal.o)
 .data          0x00000000000891d0        0x0 ../../../addon/wlan/hostap/wpa_supplicant/libwpa_supplicant.a(md5.o)
 .data          0x00000000000891d0        0x0 ../../../addon/wlan/hostap/wpa_supplicant/libwpa_supplicant.a(rc4.o)
 .data          0x00000000000891d0        0x0 ../../../addon/wlan/hostap/wpa_supplicant/libwpa_supplicant.a(sha1-pbkdf2.o)
 .data          0x00000000000891d0        0x0 ../../../addon/wlan/hostap/wpa_supplicant/libwpa_supplicant.a(sha1.o)
 .data          0x00000000000891d0        0x0 ../../../addon/wlan/hostap/wpa_supplicant/libwpa_supplicant.a(tls_none.o)
 .data          0x00000000000891d0        0x0 ../../../addon/wlan/hostap/wpa_supplicant/libwpa_supplicant.a(eap_common.o)
 .data          0x00000000000891d0        0x0 ../../../addon/wlan/hostap/wpa_supplicant/libwpa_supplicant.a(base64.o)
 .data          0x00000000000891d0        0x0 ../../../addon/wlan/hostap/wpa_supplicant/libwpa_supplicant.a(aes-internal-dec.o)
 .data          0x00000000000891d0        0x0 ../../../addon/wlan/hostap/wpa_supplicant/libwpa_supplicant.a(aes-internal.o)
 .data          0x00000000000891d0        0x0 ../../../addon/wlan/hostap/wpa_supplicant/libwpa_supplicant.a(sha1-internal.o)
 .data          0x00000000000891d0        0x0 ../../../addon/wlan/libwlan.a(bcm4343.o)
 .data          0x00000000000891d0      0x1a1 ../../../addon/wlan/libwlan.a(ether4330.o)
 *fill*         0x0000000000089371        0x3 
 .data          0x0000000000089374       0x1c ../../../addon/wlan/libwlan.a(emmc.o)
                0x0000000000089374                sdio
 .data          0x0000000000089390        0x4 ../../../addon/wlan/libwlan.a(p9arch.o)
                0x0000000000089390                __p9m
 .data          0x0000000000089394        0x8 ../../../addon/wlan/libwlan.a(p9chan.o)
                0x0000000000089394                __p9devtab
 .data          0x000000000008939c        0x0 ../../../addon/wlan/libwlan.a(p9cmd.o)
 .data          0x000000000008939c        0x0 ../../../addon/wlan/libwlan.a(p9error.o)
 .data          0x000000000008939c        0x0 ../../../addon/wlan/libwlan.a(p9ether.o)
 .data          0x000000000008939c        0x4 ../../../addon/wlan/libwlan.a(p9proc.o)
                0x000000000008939c                __p9up
 .data          0x00000000000893a0        0x0 ../../../addon/wlan/libwlan.a(p9util.o)
 .data          0x00000000000893a0        0x0 ../../../addon/fatfs/libfatfs.a(ff.o)
 .data          0x00000000000893a0        0x0 ../../../addon/fatfs/libfatfs.a(diskio.o)
 .data          0x00000000000893a0        0x0 ../../../addon/fatfs/libfatfs.a(ffsystem.o)
 .data          0x00000000000893a0        0x0 ../../../addon/fatfs/libfatfs.a(ffunicode.o)
 .data          0x00000000000893a0       0x18 ../../../addon/SDCard/libsdcard.a(emmc.o)
                0x00000000000893a0                CEMMCDevice::sd_versions
 .data          0x00000000000893b8        0x0 ../../../lib/net/libnet.a(netsubsystem.o)
 .data          0x00000000000893b8        0x0 ../../../lib/net/libnet.a(nettask.o)
 .data          0x00000000000893b8        0x0 ../../../lib/net/libnet.a(transportlayer.o)
 .data          0x00000000000893b8        0x0 ../../../lib/net/libnet.a(networklayer.o)
 .data          0x00000000000893b8        0x0 ../../../lib/net/libnet.a(linklayer.o)
 .data          0x00000000000893b8        0x0 ../../../lib/net/libnet.a(netdevlayer.o)
 .data          0x00000000000893b8        0x0 ../../../lib/net/libnet.a(phytask.o)
 .data          0x00000000000893b8        0x0 ../../../lib/net/libnet.a(arphandler.o)
 .data          0x00000000000893b8        0x0 ../../../lib/net/libnet.a(icmphandler.o)
 .data          0x00000000000893b8        0x0 ../../../lib/net/libnet.a(routecache.o)
 .data          0x00000000000893b8        0x0 ../../../lib/net/libnet.a(netconnection.o)
 .data          0x00000000000893b8        0x0 ../../../lib/net/libnet.a(udpconnection.o)
 .data          0x00000000000893b8        0x0 ../../../lib/net/libnet.a(tcpconnection.o)
 .data          0x00000000000893b8        0x0 ../../../lib/net/libnet.a(retransmissionqueue.o)
 .data          0x00000000000893b8        0x0 ../../../lib/net/libnet.a(retranstimeoutcalc.o)
 .data          0x00000000000893b8        0x0 ../../../lib/net/libnet.a(tcprejector.o)
 .data          0x00000000000893b8        0x0 ../../../lib/net/libnet.a(netconfig.o)
 .data          0x00000000000893b8        0x0 ../../../lib/net/libnet.a(ipaddress.o)
 .data          0x00000000000893b8        0x0 ../../../lib/net/libnet.a(netqueue.o)
 .data          0x00000000000893b8        0x0 ../../../lib/net/libnet.a(checksumcalculator.o)
 .data          0x00000000000893b8       0x18 ../../../lib/net/libnet.a(dhcpclient.o)
 .data          0x00000000000893d0        0x0 ../../../lib/net/libnet.a(ntpdaemon.o)
 .data          0x00000000000893d0        0x0 ../../../lib/net/libnet.a(socket.o)
 .data          0x00000000000893d0        0x2 ../../../lib/net/libnet.a(dnsclient.o)
                0x00000000000893d0                CDNSClient::s_nXID
 .data          0x00000000000893d2        0x0 ../../../lib/net/libnet.a(ntpclient.o)
 .data          0x00000000000893d2        0x0 ../../../lib/net/libnet.a(netsocket.o)
 .data          0x00000000000893d2        0x0 ../../../lib/sched/libsched.a(task.o)
 .data          0x00000000000893d2        0x0 ../../../lib/sched/libsched.a(scheduler.o)
 .data          0x00000000000893d2        0x0 ../../../lib/sched/libsched.a(taskswitch.o)
 .data          0x00000000000893d2        0x0 ../../../lib/sched/libsched.a(synchronizationevent.o)
 .data          0x00000000000893d2        0x0 ../../../lib/usb/libusb.a(xhcidevice.o)
 .data          0x00000000000893d2        0x0 ../../../lib/usb/libusb.a(xhciendpoint.o)
 .data          0x00000000000893d2        0x0 ../../../lib/usb/libusb.a(xhcieventmanager.o)
 .data          0x00000000000893d2        0x0 ../../../lib/usb/libusb.a(xhcimmiospace.o)
 .data          0x00000000000893d2        0x0 ../../../lib/usb/libusb.a(xhciring.o)
 .data          0x00000000000893d2        0x0 ../../../lib/usb/libusb.a(xhciroothub.o)
 .data          0x00000000000893d2        0x0 ../../../lib/usb/libusb.a(xhcirootport.o)
 .data          0x00000000000893d2        0x0 ../../../lib/usb/libusb.a(xhcisharedmemallocator.o)
 .data          0x00000000000893d2        0x0 ../../../lib/usb/libusb.a(xhcislotmanager.o)
 .data          0x00000000000893d2        0x0 ../../../lib/usb/libusb.a(xhciusbdevice.o)
 .data          0x00000000000893d2        0x0 ../../../lib/usb/libusb.a(usbdevice.o)
 .data          0x00000000000893d2        0x0 ../../../lib/usb/libusb.a(usbdevicefactory.o)
 .data          0x00000000000893d2        0x0 ../../../lib/usb/libusb.a(usbendpoint.o)
 .data          0x00000000000893d2        0x0 ../../../lib/usb/libusb.a(usbfunction.o)
 .data          0x00000000000893d2        0x0 ../../../lib/usb/libusb.a(usbgamepadps3.o)
 .data          0x00000000000893d2        0x1 ../../../lib/usb/libusb.a(usbgamepadps4.o)
                0x00000000000893d2                CUSBGamePadPS4Device::s_bTouchpadEnabled
 .data          0x00000000000893d3        0x0 ../../../lib/usb/libusb.a(usbgamepadstandard.o)
 .data          0x00000000000893d3        0x0 ../../../lib/usb/libusb.a(usbgamepadswitchpro.o)
 .data          0x00000000000893d3        0x0 ../../../lib/usb/libusb.a(usbgamepadxbox360.o)
 .data          0x00000000000893d3        0x0 ../../../lib/usb/libusb.a(usbgamepadxboxone.o)
 .data          0x00000000000893d3        0x0 ../../../lib/usb/libusb.a(usbhiddevice.o)
 .data          0x00000000000893d3        0x0 ../../../lib/usb/libusb.a(usbhostcontroller.o)
 .data          0x00000000000893d3        0x0 ../../../lib/usb/libusb.a(usbkeyboard.o)
 .data          0x00000000000893d3        0x0 ../../../lib/usb/libusb.a(usbmassdevice.o)
 .data          0x00000000000893d3        0x0 ../../../lib/usb/libusb.a(usbmidi.o)
 .data          0x00000000000893d3        0x0 ../../../lib/usb/libusb.a(usbmouse.o)
 .data          0x00000000000893d3        0x0 ../../../lib/usb/libusb.a(usbprinter.o)
 .data          0x00000000000893d3        0x0 ../../../lib/usb/libusb.a(usbrequest.o)
 .data          0x00000000000893d3        0x0 ../../../lib/usb/libusb.a(usbstandardhub.o)
 .data          0x00000000000893d3        0x0 ../../../lib/usb/libusb.a(xhcicommandmanager.o)
 .data          0x00000000000893d3        0x0 ../../../lib/usb/libusb.a(lan7800.o)
 .data          0x00000000000893d3        0x0 ../../../lib/usb/libusb.a(smsc951x.o)
 .data          0x00000000000893d3        0x0 ../../../lib/usb/libusb.a(usbbluetooth.o)
 .data          0x00000000000893d3        0x0 ../../../lib/usb/libusb.a(usbcdcethernet.o)
 .data          0x00000000000893d3        0x0 ../../../lib/usb/libusb.a(usbconfigparser.o)
 .data          0x00000000000893d3        0x0 ../../../lib/usb/libusb.a(usbgamepad.o)
 .data          0x00000000000893d3        0x0 ../../../lib/usb/libusb.a(usbstring.o)
 .data          0x00000000000893d3        0x0 ../../../lib/input/libinput.a(keyboardbehaviour.o)
 *fill*         0x00000000000893d3        0x1 
 .data          0x00000000000893d4      0x1b4 ../../../lib/input/libinput.a(keymap.o)
                0x00000000000893d4                CKeyMap::s_KeyStrings
                0x000000000008956c                CKeyMap::s_MapDirectory
 .data          0x0000000000089588        0x0 ../../../lib/input/libinput.a(mouse.o)
 .data          0x0000000000089588        0x0 ../../../lib/input/libinput.a(mousebehaviour.o)
 .data          0x0000000000089588        0x0 ../../../lib/fs/libfs.a(partitionmanager.o)
 .data          0x0000000000089588        0x0 ../../../lib/fs/libfs.a(partition.o)
 .data          0x0000000000089588        0x0 ../../../lib/libcircle.a(actled.o)
 .data          0x0000000000089588        0x0 ../../../lib/libcircle.a(alloc.o)
 .data          0x0000000000089588        0x0 ../../../lib/libcircle.a(assert.o)
 .data          0x0000000000089588        0x0 ../../../lib/libcircle.a(bcmpropertytags.o)
 .data          0x0000000000089588        0x0 ../../../lib/libcircle.a(classallocator.o)
 .data          0x0000000000089588        0x0 ../../../lib/libcircle.a(debug.o)
 .data          0x0000000000089588        0x0 ../../../lib/libcircle.a(device.o)
 .data          0x0000000000089588        0x0 ../../../lib/libcircle.a(devicenameservice.o)
 .data          0x0000000000089588        0x0 ../../../lib/libcircle.a(dmachannel.o)
 .data          0x0000000000089588        0x0 ../../../lib/libcircle.a(gpiopin.o)
 .data          0x0000000000089588        0x0 ../../../lib/libcircle.a(koptions.o)
 .data          0x0000000000089588        0x0 ../../../lib/libcircle.a(logger.o)
 .data          0x0000000000089588      0x27c ../../../lib/libcircle.a(machineinfo.o)
 .data          0x0000000000089804        0x0 ../../../lib/libcircle.a(ptrarray.o)
 .data          0x0000000000089804        0x0 ../../../lib/libcircle.a(ptrlist.o)
 .data          0x0000000000089804        0x0 ../../../lib/libcircle.a(screen.o)
 .data          0x0000000000089804       0x78 ../../../lib/libcircle.a(serial.o)
 .data          0x000000000008987c        0x0 ../../../lib/libcircle.a(string.o)
 .data          0x000000000008987c        0x0 ../../../lib/libcircle.a(sysinit.o)
 .data          0x000000000008987c       0x30 ../../../lib/libcircle.a(timer.o)
                0x000000000008987c                CTimer::s_pMonthName
 .data          0x00000000000898ac        0x0 ../../../lib/libcircle.a(util.o)
 .data          0x00000000000898ac        0x0 ../../../lib/libcircle.a(util_fast.o)
 .data          0x00000000000898ac        0x0 ../../../lib/libcircle.a(virtualgpiopin.o)
 .data          0x00000000000898ac        0x0 ../../../lib/libcircle.a(chainboot.o)
 .data          0x00000000000898ac        0x0 ../../../lib/libcircle.a(macaddress.o)
 .data          0x00000000000898ac       0x18 ../../../lib/libcircle.a(netdevice.o)
                0x00000000000898ac                CNetDevice::s_SpeedString
 .data          0x00000000000898c4        0x0 ../../../lib/libcircle.a(new.o)
 .data          0x00000000000898c4       0x1c ../../../lib/libcircle.a(heapallocator.o)
                0x00000000000898c4                CHeapAllocator::s_nBucketSize
 .data          0x00000000000898e0        0x0 ../../../lib/libcircle.a(pageallocator.o)
 .data          0x00000000000898e0        0x0 ../../../lib/libcircle.a(setjmp.o)
 .data          0x00000000000898e0        0x0 ../../../lib/libcircle.a(numberpool.o)
 .data          0x00000000000898e0        0x0 ../../../lib/libcircle.a(cache-v7.o)
 .data          0x00000000000898e0       0x14 ../../../lib/libcircle.a(exceptionhandler.o)
                0x00000000000898e0                CExceptionHandler::s_pExceptionName
 .data          0x00000000000898f4       0x10 ../../../lib/libcircle.a(exceptionstub.o)
                0x00000000000898f4                FIQData
                0x0000000000089900                IRQReturnAddress
 .data          0x0000000000089904        0x0 ../../../lib/libcircle.a(memory.o)
 .data          0x0000000000089904        0x0 ../../../lib/libcircle.a(pagetable.o)
 .data          0x0000000000089904        0x0 ../../../lib/libcircle.a(startup.o)
 .data          0x0000000000089904        0x0 ../../../lib/libcircle.a(synchronize.o)
 .data          0x0000000000089904        0x0 ../../../lib/libcircle.a(bcm54213.o)
 .data          0x0000000000089904        0x0 ../../../lib/libcircle.a(bcmpciehostbridge.o)
 .data          0x0000000000089904        0x0 ../../../lib/libcircle.a(bcmrandom200.o)
 .data          0x0000000000089904        0x0 ../../../lib/libcircle.a(interruptgic.o)
 .data          0x0000000000089904        0x0 ../../../lib/libcircle.a(dma4channel.o)
 .data          0x0000000000089904        0x0 ../../../lib/libcircle.a(devicetreeblob.o)
 .data          0x0000000000089904       0x70 ../../../lib/libcircle.a(bcmframebuffer.o)
                0x0000000000089904                CBcmFrameBuffer::s_InitTags
 .data          0x0000000000089974        0x0 ../../../lib/libcircle.a(bcmmailbox.o)
 .data          0x0000000000089974        0x0 ../../../lib/libcircle.a(chargenerator.o)
 .data          0x0000000000089974        0x0 ../../../lib/libcircle.a(delayloop.o)
 .data          0x0000000000089974        0x0 ../../../lib/libcircle.a(gpiomanager.o)
 .data          0x0000000000089974        0x0 /home/olf/projects/circle/gcc-arm-9.2-2019.12-x86_64-arm-none-eabi/bin/../lib/gcc/arm-none-eabi/9.2.1/../../../../arm-none-eabi/lib/thumb/v8-a+simd/hard/libstdc++.a(class_type_info.o)
 .data          0x0000000000089974        0x0 /home/olf/projects/circle/gcc-arm-9.2-2019.12-x86_64-arm-none-eabi/bin/../lib/gcc/arm-none-eabi/9.2.1/../../../../arm-none-eabi/lib/thumb/v8-a+simd/hard/libstdc++.a(del_ops.o)
 .data          0x0000000000089974        0x0 /home/olf/projects/circle/gcc-arm-9.2-2019.12-x86_64-arm-none-eabi/bin/../lib/gcc/arm-none-eabi/9.2.1/../../../../arm-none-eabi/lib/thumb/v8-a+simd/hard/libstdc++.a(del_opv.o)
 .data          0x0000000000089974        0x0 /home/olf/projects/circle/gcc-arm-9.2-2019.12-x86_64-arm-none-eabi/bin/../lib/gcc/arm-none-eabi/9.2.1/../../../../arm-none-eabi/lib/thumb/v8-a+simd/hard/libstdc++.a(eh_arm.o)
 .data          0x0000000000089974        0x0 /home/olf/projects/circle/gcc-arm-9.2-2019.12-x86_64-arm-none-eabi/bin/../lib/gcc/arm-none-eabi/9.2.1/../../../../arm-none-eabi/lib/thumb/v8-a+simd/hard/libstdc++.a(eh_aux_runtime.o)
 .data          0x0000000000089974        0x0 /home/olf/projects/circle/gcc-arm-9.2-2019.12-x86_64-arm-none-eabi/bin/../lib/gcc/arm-none-eabi/9.2.1/../../../../arm-none-eabi/lib/thumb/v8-a+simd/hard/libstdc++.a(eh_exception.o)
 .data          0x0000000000089974        0x0 /home/olf/projects/circle/gcc-arm-9.2-2019.12-x86_64-arm-none-eabi/bin/../lib/gcc/arm-none-eabi/9.2.1/../../../../arm-none-eabi/lib/thumb/v8-a+simd/hard/libstdc++.a(eh_globals.o)
 .data          0x0000000000089974        0x0 /home/olf/projects/circle/gcc-arm-9.2-2019.12-x86_64-arm-none-eabi/bin/../lib/gcc/arm-none-eabi/9.2.1/../../../../arm-none-eabi/lib/thumb/v8-a+simd/hard/libstdc++.a(eh_personality.o)
 .data          0x0000000000089974        0x0 /home/olf/projects/circle/gcc-arm-9.2-2019.12-x86_64-arm-none-eabi/bin/../lib/gcc/arm-none-eabi/9.2.1/../../../../arm-none-eabi/lib/thumb/v8-a+simd/hard/libstdc++.a(eh_terminate.o)
 .data          0x0000000000089974        0x0 /home/olf/projects/circle/gcc-arm-9.2-2019.12-x86_64-arm-none-eabi/bin/../lib/gcc/arm-none-eabi/9.2.1/../../../../arm-none-eabi/lib/thumb/v8-a+simd/hard/libstdc++.a(eh_throw.o)
 .data          0x0000000000089974        0x0 /home/olf/projects/circle/gcc-arm-9.2-2019.12-x86_64-arm-none-eabi/bin/../lib/gcc/arm-none-eabi/9.2.1/../../../../arm-none-eabi/lib/thumb/v8-a+simd/hard/libstdc++.a(eh_unex_handler.o)
 .data._ZN10__cxxabiv120__unexpected_handlerE
                0x0000000000089974        0x4 /home/olf/projects/circle/gcc-arm-9.2-2019.12-x86_64-arm-none-eabi/bin/../lib/gcc/arm-none-eabi/9.2.1/../../../../arm-none-eabi/lib/thumb/v8-a+simd/hard/libstdc++.a(eh_unex_handler.o)
                0x0000000000089974                __cxxabiv1::__unexpected_handler
 .data          0x0000000000089978        0x0 /home/olf/projects/circle/gcc-arm-9.2-2019.12-x86_64-arm-none-eabi/bin/../lib/gcc/arm-none-eabi/9.2.1/../../../../arm-none-eabi/lib/thumb/v8-a+simd/hard/libstdc++.a(new_op.o)
 .data          0x0000000000089978        0x0 /home/olf/projects/circle/gcc-arm-9.2-2019.12-x86_64-arm-none-eabi/bin/../lib/gcc/arm-none-eabi/9.2.1/../../../../arm-none-eabi/lib/thumb/v8-a+simd/hard/libstdc++.a(new_opv.o)
 .data          0x0000000000089978        0x0 /home/olf/projects/circle/gcc-arm-9.2-2019.12-x86_64-arm-none-eabi/bin/../lib/gcc/arm-none-eabi/9.2.1/../../../../arm-none-eabi/lib/thumb/v8-a+simd/hard/libstdc++.a(pure.o)
 .data          0x0000000000089978        0x0 /home/olf/projects/circle/gcc-arm-9.2-2019.12-x86_64-arm-none-eabi/bin/../lib/gcc/arm-none-eabi/9.2.1/../../../../arm-none-eabi/lib/thumb/v8-a+simd/hard/libstdc++.a(si_class_type_info.o)
 .data          0x0000000000089978        0x0 /home/olf/projects/circle/gcc-arm-9.2-2019.12-x86_64-arm-none-eabi/bin/../lib/gcc/arm-none-eabi/9.2.1/../../../../arm-none-eabi/lib/thumb/v8-a+simd/hard/libstdc++.a(tinfo.o)
 .data          0x0000000000089978        0x0 /home/olf/projects/circle/gcc-arm-9.2-2019.12-x86_64-arm-none-eabi/bin/../lib/gcc/arm-none-eabi/9.2.1/../../../../arm-none-eabi/lib/thumb/v8-a+simd/hard/libstdc++.a(vmi_class_type_info.o)
 .data          0x0000000000089978        0x0 /home/olf/projects/circle/gcc-arm-9.2-2019.12-x86_64-arm-none-eabi/bin/../lib/gcc/arm-none-eabi/9.2.1/../../../../arm-none-eabi/lib/thumb/v8-a+simd/hard/libstdc++.a(vterminate.o)
 .data          0x0000000000089978        0x0 /home/olf/projects/circle/gcc-arm-9.2-2019.12-x86_64-arm-none-eabi/bin/../lib/gcc/arm-none-eabi/9.2.1/../../../../arm-none-eabi/lib/thumb/v8-a+simd/hard/libstdc++.a(bad_alloc.o)
 .data          0x0000000000089978        0x0 /home/olf/projects/circle/gcc-arm-9.2-2019.12-x86_64-arm-none-eabi/bin/../lib/gcc/arm-none-eabi/9.2.1/../../../../arm-none-eabi/lib/thumb/v8-a+simd/hard/libstdc++.a(bad_array_new.o)
 .data          0x0000000000089978        0x0 /home/olf/projects/circle/gcc-arm-9.2-2019.12-x86_64-arm-none-eabi/bin/../lib/gcc/arm-none-eabi/9.2.1/../../../../arm-none-eabi/lib/thumb/v8-a+simd/hard/libstdc++.a(bad_cast.o)
 .data          0x0000000000089978        0x0 /home/olf/projects/circle/gcc-arm-9.2-2019.12-x86_64-arm-none-eabi/bin/../lib/gcc/arm-none-eabi/9.2.1/../../../../arm-none-eabi/lib/thumb/v8-a+simd/hard/libstdc++.a(bad_typeid.o)
 .data          0x0000000000089978        0x0 /home/olf/projects/circle/gcc-arm-9.2-2019.12-x86_64-arm-none-eabi/bin/../lib/gcc/arm-none-eabi/9.2.1/../../../../arm-none-eabi/lib/thumb/v8-a+simd/hard/libstdc++.a(cp-demangle.o)
 .data          0x0000000000089978        0x0 /home/olf/projects/circle/gcc-arm-9.2-2019.12-x86_64-arm-none-eabi/bin/../lib/gcc/arm-none-eabi/9.2.1/../../../../arm-none-eabi/lib/thumb/v8-a+simd/hard/libstdc++.a(del_op.o)
 .data          0x0000000000089978        0x0 /home/olf/projects/circle/gcc-arm-9.2-2019.12-x86_64-arm-none-eabi/bin/../lib/gcc/arm-none-eabi/9.2.1/../../../../arm-none-eabi/lib/thumb/v8-a+simd/hard/libstdc++.a(eh_alloc.o)
 .data          0x0000000000089978        0x0 /home/olf/projects/circle/gcc-arm-9.2-2019.12-x86_64-arm-none-eabi/bin/../lib/gcc/arm-none-eabi/9.2.1/../../../../arm-none-eabi/lib/thumb/v8-a+simd/hard/libstdc++.a(eh_call.o)
 .data          0x0000000000089978        0x0 /home/olf/projects/circle/gcc-arm-9.2-2019.12-x86_64-arm-none-eabi/bin/../lib/gcc/arm-none-eabi/9.2.1/../../../../arm-none-eabi/lib/thumb/v8-a+simd/hard/libstdc++.a(eh_catch.o)
 .data          0x0000000000089978        0x0 /home/olf/projects/circle/gcc-arm-9.2-2019.12-x86_64-arm-none-eabi/bin/../lib/gcc/arm-none-eabi/9.2.1/../../../../arm-none-eabi/lib/thumb/v8-a+simd/hard/libstdc++.a(eh_term_handler.o)
 .data._ZN10__cxxabiv119__terminate_handlerE
                0x0000000000089978        0x4 /home/olf/projects/circle/gcc-arm-9.2-2019.12-x86_64-arm-none-eabi/bin/../lib/gcc/arm-none-eabi/9.2.1/../../../../arm-none-eabi/lib/thumb/v8-a+simd/hard/libstdc++.a(eh_term_handler.o)
                0x0000000000089978                __cxxabiv1::__terminate_handler
 .data          0x000000000008997c        0x0 /home/olf/projects/circle/gcc-arm-9.2-2019.12-x86_64-arm-none-eabi/bin/../lib/gcc/arm-none-eabi/9.2.1/../../../../arm-none-eabi/lib/thumb/v8-a+simd/hard/libstdc++.a(eh_type.o)
 .data          0x000000000008997c        0x0 /home/olf/projects/circle/gcc-arm-9.2-2019.12-x86_64-arm-none-eabi/bin/../lib/gcc/arm-none-eabi/9.2.1/../../../../arm-none-eabi/lib/thumb/v8-a+simd/hard/libstdc++.a(new_handler.o)
 .data          0x000000000008997c        0x0 /home/olf/projects/circle/gcc-arm-9.2-2019.12-x86_64-arm-none-eabi/bin/../lib/gcc/arm-none-eabi/9.2.1/thumb/v8-a+simd/hard/libgcc.a(_aeabi_ldivmod.o)
 .data          0x000000000008997c        0x0 /home/olf/projects/circle/gcc-arm-9.2-2019.12-x86_64-arm-none-eabi/bin/../lib/gcc/arm-none-eabi/9.2.1/thumb/v8-a+simd/hard/libgcc.a(_aeabi_uldivmod.o)
 .data          0x000000000008997c        0x0 /home/olf/projects/circle/gcc-arm-9.2-2019.12-x86_64-arm-none-eabi/bin/../lib/gcc/arm-none-eabi/9.2.1/thumb/v8-a+simd/hard/libgcc.a(_udivmoddi4.o)
 .data          0x000000000008997c        0x0 /home/olf/projects/circle/gcc-arm-9.2-2019.12-x86_64-arm-none-eabi/bin/../lib/gcc/arm-none-eabi/9.2.1/thumb/v8-a+simd/hard/libgcc.a(unwind-arm.o)
 .data          0x000000000008997c        0x0 /home/olf/projects/circle/gcc-arm-9.2-2019.12-x86_64-arm-none-eabi/bin/../lib/gcc/arm-none-eabi/9.2.1/thumb/v8-a+simd/hard/libgcc.a(libunwind.o)
 .data          0x000000000008997c        0x0 /home/olf/projects/circle/gcc-arm-9.2-2019.12-x86_64-arm-none-eabi/bin/../lib/gcc/arm-none-eabi/9.2.1/thumb/v8-a+simd/hard/libgcc.a(pr-support.o)
 .data          0x000000000008997c        0x0 /home/olf/projects/circle/gcc-arm-9.2-2019.12-x86_64-arm-none-eabi/bin/../lib/gcc/arm-none-eabi/9.2.1/thumb/v8-a+simd/hard/libgcc.a(_dvmd_tls.o)

.igot.plt       0x000000000008997c        0x0
 .igot.plt      0x000000000008997c        0x0 main.o

.bss            0x0000000000089980     0x11ec
                0x0000000000089980                __bss_start = .
 *(.bss*)
 .bss           0x0000000000089980        0x0 main.o
 .bss           0x0000000000089980        0x0 kernel.o
 .bss           0x0000000000089980        0x0 ../../../addon/wlan/hostap/wpa_supplicant/libwpa_supplicant.a(wpasupplicant.o)
 .bss           0x0000000000089980       0x1c ../../../addon/wlan/hostap/wpa_supplicant/libwpa_supplicant.a(eloop_circle.o)
 .bss           0x000000000008999c        0x4 ../../../addon/wlan/hostap/wpa_supplicant/libwpa_supplicant.a(os_circle.o)
 .bss           0x00000000000899a0        0x0 ../../../addon/wlan/hostap/wpa_supplicant/libwpa_supplicant.a(main_circle.o)
 .bss           0x00000000000899a0        0x4 ../../../addon/wlan/hostap/wpa_supplicant/libwpa_supplicant.a(wpa_supplicant.o)
 .bss           0x00000000000899a4        0x0 ../../../addon/wlan/hostap/wpa_supplicant/libwpa_supplicant.a(wpas_glue.o)
 .bss           0x00000000000899a4        0x0 ../../../addon/wlan/hostap/wpa_supplicant/libwpa_supplicant.a(drivers.o)
 .bss           0x00000000000899a4        0x0 ../../../addon/wlan/hostap/wpa_supplicant/libwpa_supplicant.a(driver_circle.o)
 .bss           0x00000000000899a4        0x0 ../../../addon/wlan/hostap/wpa_supplicant/libwpa_supplicant.a(scan_helpers.o)
 .bss           0x00000000000899a4        0x0 ../../../addon/wlan/hostap/wpa_supplicant/libwpa_supplicant.a(eapol_supp_sm.o)
 .bss           0x00000000000899a4        0x0 ../../../addon/wlan/hostap/wpa_supplicant/libwpa_supplicant.a(eap.o)
 .bss           0x00000000000899a4        0x4 ../../../addon/wlan/hostap/wpa_supplicant/libwpa_supplicant.a(eap_methods.o)
 .bss           0x00000000000899a8        0x4 ../../../addon/wlan/hostap/wpa_supplicant/libwpa_supplicant.a(l2_packet_circle.o)
 .bss           0x00000000000899ac        0x0 ../../../addon/wlan/hostap/wpa_supplicant/libwpa_supplicant.a(pmksa_cache.o)
 .bss           0x00000000000899ac        0x0 ../../../addon/wlan/hostap/wpa_supplicant/libwpa_supplicant.a(preauth.o)
 .bss           0x00000000000899ac        0x0 ../../../addon/wlan/hostap/wpa_supplicant/libwpa_supplicant.a(wpa.o)
 .bss           0x00000000000899ac        0x0 ../../../addon/wlan/hostap/wpa_supplicant/libwpa_supplicant.a(wpa_ie.o)
 .bss           0x00000000000899ac       0x21 ../../../addon/wlan/hostap/wpa_supplicant/libwpa_supplicant.a(common.o)
 *fill*         0x00000000000899cd        0x3 
 .bss           0x00000000000899d0       0x10 ../../../addon/wlan/hostap/wpa_supplicant/libwpa_supplicant.a(wpa_debug.o)
                0x00000000000899d0                wpa_debug_timestamp
                0x00000000000899d4                wpa_debug_show_keys
 .bss           0x00000000000899e0        0x0 ../../../addon/wlan/hostap/wpa_supplicant/libwpa_supplicant.a(wpabuf.o)
 .bss           0x00000000000899e0        0x0 ../../../addon/wlan/hostap/wpa_supplicant/libwpa_supplicant.a(blacklist.o)
 .bss           0x00000000000899e0        0x0 ../../../addon/wlan/hostap/wpa_supplicant/libwpa_supplicant.a(config.o)
 .bss           0x00000000000899e0        0x0 ../../../addon/wlan/hostap/wpa_supplicant/libwpa_supplicant.a(config_file_circle.o)
 .bss           0x00000000000899e0        0x0 ../../../addon/wlan/hostap/wpa_supplicant/libwpa_supplicant.a(events.o)
 .bss           0x00000000000899e0        0x0 ../../../addon/wlan/hostap/wpa_supplicant/libwpa_supplicant.a(notify.o)
 .bss           0x00000000000899e0        0x0 ../../../addon/wlan/hostap/wpa_supplicant/libwpa_supplicant.a(scan.o)
 .bss           0x00000000000899e0        0x0 ../../../addon/wlan/hostap/wpa_supplicant/libwpa_supplicant.a(wpa_common.o)
 .bss           0x00000000000899e0        0x0 ../../../addon/wlan/hostap/wpa_supplicant/libwpa_supplicant.a(aes-unwrap.o)
 .bss           0x00000000000899e0        0x0 ../../../addon/wlan/hostap/wpa_supplicant/libwpa_supplicant.a(md5-internal.o)
 .bss           0x00000000000899e0        0x0 ../../../addon/wlan/hostap/wpa_supplicant/libwpa_supplicant.a(md5.o)
 .bss           0x00000000000899e0        0x0 ../../../addon/wlan/hostap/wpa_supplicant/libwpa_supplicant.a(rc4.o)
 .bss           0x00000000000899e0        0x0 ../../../addon/wlan/hostap/wpa_supplicant/libwpa_supplicant.a(sha1-pbkdf2.o)
 .bss           0x00000000000899e0        0x0 ../../../addon/wlan/hostap/wpa_supplicant/libwpa_supplicant.a(sha1.o)
 .bss           0x00000000000899e0        0x0 ../../../addon/wlan/hostap/wpa_supplicant/libwpa_supplicant.a(tls_none.o)
 .bss           0x00000000000899e0        0x0 ../../../addon/wlan/hostap/wpa_supplicant/libwpa_supplicant.a(eap_common.o)
 .bss           0x00000000000899e0        0x0 ../../../addon/wlan/hostap/wpa_supplicant/libwpa_supplicant.a(base64.o)
 .bss           0x00000000000899e0        0x0 ../../../addon/wlan/hostap/wpa_supplicant/libwpa_supplicant.a(aes-internal-dec.o)
 .bss           0x00000000000899e0        0x0 ../../../addon/wlan/hostap/wpa_supplicant/libwpa_supplicant.a(aes-internal.o)
 .bss           0x00000000000899e0        0x0 ../../../addon/wlan/hostap/wpa_supplicant/libwpa_supplicant.a(sha1-internal.o)
 .bss           0x00000000000899e0       0x40 ../../../addon/wlan/libwlan.a(bcm4343.o)
                0x0000000000089a1c                CBcm4343Device::s_pThis
 .bss           0x0000000000089a20       0x14 ../../../addon/wlan/libwlan.a(ether4330.o)
 .bss           0x0000000000089a34       0x10 ../../../addon/wlan/libwlan.a(emmc.o)
 .bss           0x0000000000089a44        0xc ../../../addon/wlan/libwlan.a(p9arch.o)
 .bss           0x0000000000089a50        0x4 ../../../addon/wlan/libwlan.a(p9chan.o)
 .bss           0x0000000000089a54        0x0 ../../../addon/wlan/libwlan.a(p9cmd.o)
 .bss           0x0000000000089a54        0x0 ../../../addon/wlan/libwlan.a(p9error.o)
 .bss           0x0000000000089a54        0x0 ../../../addon/wlan/libwlan.a(p9ether.o)
 .bss           0x0000000000089a54      0xebc ../../../addon/wlan/libwlan.a(p9proc.o)
 .bss           0x000000000008a910        0x0 ../../../addon/wlan/libwlan.a(p9util.o)
 .bss           0x000000000008a910       0x16 ../../../addon/fatfs/libfatfs.a(ff.o)
 *fill*         0x000000000008a926        0x2 
 .bss           0x000000000008a928       0x18 ../../../addon/fatfs/libfatfs.a(diskio.o)
 .bss           0x000000000008a940        0x0 ../../../addon/fatfs/libfatfs.a(ffsystem.o)
 .bss           0x000000000008a940        0x0 ../../../addon/fatfs/libfatfs.a(ffunicode.o)
 .bss           0x000000000008a940        0x0 ../../../addon/SDCard/libsdcard.a(emmc.o)
 .bss           0x000000000008a940        0x4 ../../../lib/net/libnet.a(netsubsystem.o)
                0x000000000008a940                CNetSubSystem::s_pThis
 .bss           0x000000000008a944        0x0 ../../../lib/net/libnet.a(nettask.o)
 .bss           0x000000000008a944        0x0 ../../../lib/net/libnet.a(transportlayer.o)
 .bss           0x000000000008a944        0x0 ../../../lib/net/libnet.a(networklayer.o)
 .bss           0x000000000008a944        0x0 ../../../lib/net/libnet.a(linklayer.o)
 .bss           0x000000000008a944        0x0 ../../../lib/net/libnet.a(netdevlayer.o)
 .bss           0x000000000008a944        0x0 ../../../lib/net/libnet.a(phytask.o)
 .bss           0x000000000008a944        0x0 ../../../lib/net/libnet.a(arphandler.o)
 .bss           0x000000000008a944        0x0 ../../../lib/net/libnet.a(icmphandler.o)
 .bss           0x000000000008a944        0x0 ../../../lib/net/libnet.a(routecache.o)
 .bss           0x000000000008a944        0x0 ../../../lib/net/libnet.a(netconnection.o)
 .bss           0x000000000008a944        0x0 ../../../lib/net/libnet.a(udpconnection.o)
 .bss           0x000000000008a944        0x4 ../../../lib/net/libnet.a(tcpconnection.o)
                0x000000000008a944                CTCPConnection::s_nConnections
 .bss           0x000000000008a948        0x0 ../../../lib/net/libnet.a(retransmissionqueue.o)
 .bss           0x000000000008a948        0x0 ../../../lib/net/libnet.a(retranstimeoutcalc.o)
 .bss           0x000000000008a948        0x0 ../../../lib/net/libnet.a(tcprejector.o)
 .bss           0x000000000008a948        0x0 ../../../lib/net/libnet.a(netconfig.o)
 .bss           0x000000000008a948        0x0 ../../../lib/net/libnet.a(ipaddress.o)
 .bss           0x000000000008a948        0x0 ../../../lib/net/libnet.a(netqueue.o)
 .bss           0x000000000008a948        0x0 ../../../lib/net/libnet.a(checksumcalculator.o)
 .bss           0x000000000008a948        0x0 ../../../lib/net/libnet.a(dhcpclient.o)
 .bss           0x000000000008a948        0x0 ../../../lib/net/libnet.a(ntpdaemon.o)
 .bss           0x000000000008a948        0x0 ../../../lib/net/libnet.a(socket.o)
 .bss           0x000000000008a948        0x0 ../../../lib/net/libnet.a(dnsclient.o)
 .bss           0x000000000008a948        0x0 ../../../lib/net/libnet.a(ntpclient.o)
 .bss           0x000000000008a948        0x0 ../../../lib/net/libnet.a(netsocket.o)
 .bss           0x000000000008a948        0x0 ../../../lib/sched/libsched.a(task.o)
 .bss           0x000000000008a948        0x4 ../../../lib/sched/libsched.a(scheduler.o)
                0x000000000008a948                CScheduler::s_pThis
 .bss           0x000000000008a94c        0x0 ../../../lib/sched/libsched.a(taskswitch.o)
 .bss           0x000000000008a94c        0x0 ../../../lib/sched/libsched.a(synchronizationevent.o)
 .bss           0x000000000008a94c        0x0 ../../../lib/usb/libusb.a(xhcidevice.o)
 .bss           0x000000000008a94c        0x0 ../../../lib/usb/libusb.a(xhciendpoint.o)
 .bss           0x000000000008a94c        0x0 ../../../lib/usb/libusb.a(xhcieventmanager.o)
 .bss           0x000000000008a94c        0x0 ../../../lib/usb/libusb.a(xhcimmiospace.o)
 .bss           0x000000000008a94c        0x0 ../../../lib/usb/libusb.a(xhciring.o)
 .bss           0x000000000008a94c        0x0 ../../../lib/usb/libusb.a(xhciroothub.o)
 .bss           0x000000000008a94c        0x0 ../../../lib/usb/libusb.a(xhcirootport.o)
 .bss           0x000000000008a94c        0x0 ../../../lib/usb/libusb.a(xhcisharedmemallocator.o)
 .bss           0x000000000008a94c        0x0 ../../../lib/usb/libusb.a(xhcislotmanager.o)
 .bss           0x000000000008a94c        0x0 ../../../lib/usb/libusb.a(xhciusbdevice.o)
 .bss           0x000000000008a94c        0x0 ../../../lib/usb/libusb.a(usbdevice.o)
 .bss           0x000000000008a94c        0x0 ../../../lib/usb/libusb.a(usbdevicefactory.o)
 .bss           0x000000000008a94c        0x0 ../../../lib/usb/libusb.a(usbendpoint.o)
 .bss           0x000000000008a94c        0x0 ../../../lib/usb/libusb.a(usbfunction.o)
 .bss           0x000000000008a94c        0x0 ../../../lib/usb/libusb.a(usbgamepadps3.o)
 .bss           0x000000000008a94c        0x0 ../../../lib/usb/libusb.a(usbgamepadps4.o)
 .bss           0x000000000008a94c        0x0 ../../../lib/usb/libusb.a(usbgamepadstandard.o)
 .bss           0x000000000008a94c        0x0 ../../../lib/usb/libusb.a(usbgamepadswitchpro.o)
 .bss           0x000000000008a94c        0x0 ../../../lib/usb/libusb.a(usbgamepadxbox360.o)
 .bss           0x000000000008a94c        0x0 ../../../lib/usb/libusb.a(usbgamepadxboxone.o)
 .bss           0x000000000008a94c        0x0 ../../../lib/usb/libusb.a(usbhiddevice.o)
 .bss           0x000000000008a94c        0x5 ../../../lib/usb/libusb.a(usbhostcontroller.o)
                0x000000000008a94c                CUSBHostController::s_pThis
                0x000000000008a950                CUSBHostController::s_bPlugAndPlay
 *fill*         0x000000000008a951        0x7 
 .bss           0x000000000008a958       0x10 ../../../lib/usb/libusb.a(usbkeyboard.o)
                0x000000000008a958                CUSBKeyboardDevice::s_DeviceNumberPool
 .bss           0x000000000008a968       0x10 ../../../lib/usb/libusb.a(usbmassdevice.o)
                0x000000000008a968                CUSBBulkOnlyMassStorageDevice::s_DeviceNumberPool
 .bss           0x000000000008a978       0x10 ../../../lib/usb/libusb.a(usbmidi.o)
                0x000000000008a978                CUSBMIDIDevice::s_DeviceNumberPool
 .bss           0x000000000008a988        0x0 ../../../lib/usb/libusb.a(usbmouse.o)
 .bss           0x000000000008a988       0x10 ../../../lib/usb/libusb.a(usbprinter.o)
                0x000000000008a988                CUSBPrinterDevice::s_DeviceNumberPool
 .bss           0x000000000008a998        0x4 ../../../lib/usb/libusb.a(usbrequest.o)
                0x000000000008a998                CUSBRequest::s_pAllocator
 *fill*         0x000000000008a99c        0x4 
 .bss           0x000000000008a9a0       0x10 ../../../lib/usb/libusb.a(usbstandardhub.o)
                0x000000000008a9a0                CUSBStandardHub::s_DeviceNumberPool
 .bss           0x000000000008a9b0        0x0 ../../../lib/usb/libusb.a(xhcicommandmanager.o)
 .bss           0x000000000008a9b0        0x0 ../../../lib/usb/libusb.a(lan7800.o)
 .bss           0x000000000008a9b0        0x0 ../../../lib/usb/libusb.a(smsc951x.o)
 .bss           0x000000000008a9b0       0x10 ../../../lib/usb/libusb.a(usbbluetooth.o)
                0x000000000008a9b0                CUSBBluetoothDevice::s_DeviceNumberPool
 .bss           0x000000000008a9c0        0x0 ../../../lib/usb/libusb.a(usbcdcethernet.o)
 .bss           0x000000000008a9c0        0x0 ../../../lib/usb/libusb.a(usbconfigparser.o)
 .bss           0x000000000008a9c0       0x10 ../../../lib/usb/libusb.a(usbgamepad.o)
                0x000000000008a9c0                CUSBGamePadDevice::s_DeviceNumberPool
 .bss           0x000000000008a9d0        0x0 ../../../lib/usb/libusb.a(usbstring.o)
 .bss           0x000000000008a9d0        0x0 ../../../lib/input/libinput.a(keyboardbehaviour.o)
 .bss           0x000000000008a9d0        0x0 ../../../lib/input/libinput.a(keymap.o)
 .bss           0x000000000008a9d0       0x10 ../../../lib/input/libinput.a(mouse.o)
                0x000000000008a9d0                CMouseDevice::s_DeviceNumberPool
 .bss           0x000000000008a9e0        0x0 ../../../lib/input/libinput.a(mousebehaviour.o)
 .bss           0x000000000008a9e0        0x0 ../../../lib/fs/libfs.a(partitionmanager.o)
 .bss           0x000000000008a9e0        0x0 ../../../lib/fs/libfs.a(partition.o)
 .bss           0x000000000008a9e0        0x4 ../../../lib/libcircle.a(actled.o)
                0x000000000008a9e0                CActLED::s_pThis
 .bss           0x000000000008a9e4        0x0 ../../../lib/libcircle.a(alloc.o)
 .bss           0x000000000008a9e4        0x0 ../../../lib/libcircle.a(assert.o)
 .bss           0x000000000008a9e4        0x0 ../../../lib/libcircle.a(bcmpropertytags.o)
 .bss           0x000000000008a9e4        0x0 ../../../lib/libcircle.a(classallocator.o)
 .bss           0x000000000008a9e4        0x0 ../../../lib/libcircle.a(debug.o)
 .bss           0x000000000008a9e4        0x0 ../../../lib/libcircle.a(device.o)
 .bss           0x000000000008a9e4        0x4 ../../../lib/libcircle.a(devicenameservice.o)
                0x000000000008a9e4                CDeviceNameService::s_This
 .bss           0x000000000008a9e8        0x0 ../../../lib/libcircle.a(dmachannel.o)
 .bss           0x000000000008a9e8        0x4 ../../../lib/libcircle.a(gpiopin.o)
                0x000000000008a9e8                CGPIOPin::s_SpinLock
 .bss           0x000000000008a9ec        0x4 ../../../lib/libcircle.a(koptions.o)
                0x000000000008a9ec                CKernelOptions::s_pThis
 .bss           0x000000000008a9f0        0x4 ../../../lib/libcircle.a(logger.o)
                0x000000000008a9f0                CLogger::s_pThis
 .bss           0x000000000008a9f4        0x4 ../../../lib/libcircle.a(machineinfo.o)
                0x000000000008a9f4                CMachineInfo::s_pThis
 .bss           0x000000000008a9f8        0x0 ../../../lib/libcircle.a(ptrarray.o)
 .bss           0x000000000008a9f8        0x0 ../../../lib/libcircle.a(ptrlist.o)
 .bss           0x000000000008a9f8        0x0 ../../../lib/libcircle.a(screen.o)
 .bss           0x000000000008a9f8       0x28 ../../../lib/libcircle.a(serial.o)
                0x000000000008a9f8                CSerialDevice::s_nInterruptUseCount
                0x000000000008a9fc                CSerialDevice::s_pInterruptSystem
                0x000000000008aa00                CSerialDevice::s_bUseFIQ
                0x000000000008aa04                CSerialDevice::s_nInterruptDeviceMask
                0x000000000008aa08                CSerialDevice::s_pThis
 .bss           0x000000000008aa20        0x0 ../../../lib/libcircle.a(string.o)
 .bss           0x000000000008aa20        0x8 ../../../lib/libcircle.a(sysinit.o)
                0x000000000008aa20                __dso_handle
 .bss           0x000000000008aa28        0x4 ../../../lib/libcircle.a(timer.o)
                0x000000000008aa28                CTimer::s_pThis
 .bss           0x000000000008aa2c        0x0 ../../../lib/libcircle.a(util.o)
 .bss           0x000000000008aa2c        0x0 ../../../lib/libcircle.a(util_fast.o)
 .bss           0x000000000008aa2c        0x8 ../../../lib/libcircle.a(virtualgpiopin.o)
                0x000000000008aa2c                CVirtualGPIOPin::s_nGPIOBaseAddress
                0x000000000008aa30                CVirtualGPIOPin::s_SpinLock
 .bss           0x000000000008aa34        0x8 ../../../lib/libcircle.a(chainboot.o)
 .bss           0x000000000008aa3c        0x0 ../../../lib/libcircle.a(macaddress.o)
 .bss           0x000000000008aa3c       0x18 ../../../lib/libcircle.a(netdevice.o)
                0x000000000008aa3c                CNetDevice::s_nDeviceNumber
                0x000000000008aa40                CNetDevice::s_pDevice
 .bss           0x000000000008aa54        0x0 ../../../lib/libcircle.a(new.o)
 .bss           0x000000000008aa54        0x0 ../../../lib/libcircle.a(heapallocator.o)
 .bss           0x000000000008aa54        0x0 ../../../lib/libcircle.a(pageallocator.o)
 .bss           0x000000000008aa54        0x0 ../../../lib/libcircle.a(setjmp.o)
 .bss           0x000000000008aa54        0x0 ../../../lib/libcircle.a(numberpool.o)
 .bss           0x000000000008aa54        0x0 ../../../lib/libcircle.a(cache-v7.o)
 .bss           0x000000000008aa54        0x4 ../../../lib/libcircle.a(exceptionhandler.o)
                0x000000000008aa54                CExceptionHandler::s_pThis
 .bss           0x000000000008aa58       0x80 ../../../lib/libcircle.a(exceptionstub.o)
 .bss           0x000000000008aad8        0x4 ../../../lib/libcircle.a(memory.o)
                0x000000000008aad8                CMemorySystem::s_pThis
 .bss           0x000000000008aadc        0x0 ../../../lib/libcircle.a(pagetable.o)
 .bss           0x000000000008aadc        0x0 ../../../lib/libcircle.a(startup.o)
 .bss           0x000000000008aadc       0x54 ../../../lib/libcircle.a(synchronize.o)
 .bss           0x000000000008ab30        0x0 ../../../lib/libcircle.a(bcm54213.o)
 .bss           0x000000000008ab30        0x8 ../../../lib/libcircle.a(bcmpciehostbridge.o)
                0x000000000008ab30                CBcmPCIeHostBridge::s_nDMAAddress
 .bss           0x000000000008ab38        0x5 ../../../lib/libcircle.a(bcmrandom200.o)
                0x000000000008ab38                CBcmRandomNumberGenerator::s_SpinLock
                0x000000000008ab3c                CBcmRandomNumberGenerator::s_bInitialized
 *fill*         0x000000000008ab3d        0x3 
 .bss           0x000000000008ab40        0x4 ../../../lib/libcircle.a(interruptgic.o)
                0x000000000008ab40                CInterruptSystem::s_pThis
 .bss           0x000000000008ab44        0x0 ../../../lib/libcircle.a(dma4channel.o)
 .bss           0x000000000008ab44        0x0 ../../../lib/libcircle.a(devicetreeblob.o)
 .bss           0x000000000008ab44        0x0 ../../../lib/libcircle.a(bcmframebuffer.o)
 .bss           0x000000000008ab44        0x4 ../../../lib/libcircle.a(bcmmailbox.o)
                0x000000000008ab44                CBcmMailBox::s_SpinLock
 .bss           0x000000000008ab48        0x0 ../../../lib/libcircle.a(chargenerator.o)
 .bss           0x000000000008ab48        0x0 ../../../lib/libcircle.a(delayloop.o)
 .bss           0x000000000008ab48        0x0 ../../../lib/libcircle.a(gpiomanager.o)
 .bss           0x000000000008ab48        0x0 /home/olf/projects/circle/gcc-arm-9.2-2019.12-x86_64-arm-none-eabi/bin/../lib/gcc/arm-none-eabi/9.2.1/../../../../arm-none-eabi/lib/thumb/v8-a+simd/hard/libstdc++.a(class_type_info.o)
 .bss           0x000000000008ab48        0x0 /home/olf/projects/circle/gcc-arm-9.2-2019.12-x86_64-arm-none-eabi/bin/../lib/gcc/arm-none-eabi/9.2.1/../../../../arm-none-eabi/lib/thumb/v8-a+simd/hard/libstdc++.a(del_ops.o)
 .bss           0x000000000008ab48        0x0 /home/olf/projects/circle/gcc-arm-9.2-2019.12-x86_64-arm-none-eabi/bin/../lib/gcc/arm-none-eabi/9.2.1/../../../../arm-none-eabi/lib/thumb/v8-a+simd/hard/libstdc++.a(del_opv.o)
 .bss           0x000000000008ab48        0x0 /home/olf/projects/circle/gcc-arm-9.2-2019.12-x86_64-arm-none-eabi/bin/../lib/gcc/arm-none-eabi/9.2.1/../../../../arm-none-eabi/lib/thumb/v8-a+simd/hard/libstdc++.a(eh_arm.o)
 .bss           0x000000000008ab48        0x0 /home/olf/projects/circle/gcc-arm-9.2-2019.12-x86_64-arm-none-eabi/bin/../lib/gcc/arm-none-eabi/9.2.1/../../../../arm-none-eabi/lib/thumb/v8-a+simd/hard/libstdc++.a(eh_aux_runtime.o)
 .bss           0x000000000008ab48        0x0 /home/olf/projects/circle/gcc-arm-9.2-2019.12-x86_64-arm-none-eabi/bin/../lib/gcc/arm-none-eabi/9.2.1/../../../../arm-none-eabi/lib/thumb/v8-a+simd/hard/libstdc++.a(eh_exception.o)
 .bss           0x000000000008ab48        0x0 /home/olf/projects/circle/gcc-arm-9.2-2019.12-x86_64-arm-none-eabi/bin/../lib/gcc/arm-none-eabi/9.2.1/../../../../arm-none-eabi/lib/thumb/v8-a+simd/hard/libstdc++.a(eh_globals.o)
 .bss._ZL10eh_globals
                0x000000000008ab48        0xc /home/olf/projects/circle/gcc-arm-9.2-2019.12-x86_64-arm-none-eabi/bin/../lib/gcc/arm-none-eabi/9.2.1/../../../../arm-none-eabi/lib/thumb/v8-a+simd/hard/libstdc++.a(eh_globals.o)
 .bss           0x000000000008ab54        0x0 /home/olf/projects/circle/gcc-arm-9.2-2019.12-x86_64-arm-none-eabi/bin/../lib/gcc/arm-none-eabi/9.2.1/../../../../arm-none-eabi/lib/thumb/v8-a+simd/hard/libstdc++.a(eh_personality.o)
 .bss           0x000000000008ab54        0x0 /home/olf/projects/circle/gcc-arm-9.2-2019.12-x86_64-arm-none-eabi/bin/../lib/gcc/arm-none-eabi/9.2.1/../../../../arm-none-eabi/lib/thumb/v8-a+simd/hard/libstdc++.a(eh_terminate.o)
 .bss           0x000000000008ab54        0x0 /home/olf/projects/circle/gcc-arm-9.2-2019.12-x86_64-arm-none-eabi/bin/../lib/gcc/arm-none-eabi/9.2.1/../../../../arm-none-eabi/lib/thumb/v8-a+simd/hard/libstdc++.a(eh_throw.o)
 .bss           0x000000000008ab54        0x0 /home/olf/projects/circle/gcc-arm-9.2-2019.12-x86_64-arm-none-eabi/bin/../lib/gcc/arm-none-eabi/9.2.1/../../../../arm-none-eabi/lib/thumb/v8-a+simd/hard/libstdc++.a(eh_unex_handler.o)
 .bss           0x000000000008ab54        0x0 /home/olf/projects/circle/gcc-arm-9.2-2019.12-x86_64-arm-none-eabi/bin/../lib/gcc/arm-none-eabi/9.2.1/../../../../arm-none-eabi/lib/thumb/v8-a+simd/hard/libstdc++.a(new_op.o)
 .bss           0x000000000008ab54        0x0 /home/olf/projects/circle/gcc-arm-9.2-2019.12-x86_64-arm-none-eabi/bin/../lib/gcc/arm-none-eabi/9.2.1/../../../../arm-none-eabi/lib/thumb/v8-a+simd/hard/libstdc++.a(new_opv.o)
 .bss           0x000000000008ab54        0x0 /home/olf/projects/circle/gcc-arm-9.2-2019.12-x86_64-arm-none-eabi/bin/../lib/gcc/arm-none-eabi/9.2.1/../../../../arm-none-eabi/lib/thumb/v8-a+simd/hard/libstdc++.a(pure.o)
 .bss           0x000000000008ab54        0x0 /home/olf/projects/circle/gcc-arm-9.2-2019.12-x86_64-arm-none-eabi/bin/../lib/gcc/arm-none-eabi/9.2.1/../../../../arm-none-eabi/lib/thumb/v8-a+simd/hard/libstdc++.a(si_class_type_info.o)
 .bss           0x000000000008ab54        0x0 /home/olf/projects/circle/gcc-arm-9.2-2019.12-x86_64-arm-none-eabi/bin/../lib/gcc/arm-none-eabi/9.2.1/../../../../arm-none-eabi/lib/thumb/v8-a+simd/hard/libstdc++.a(tinfo.o)
 .bss           0x000000000008ab54        0x0 /home/olf/projects/circle/gcc-arm-9.2-2019.12-x86_64-arm-none-eabi/bin/../lib/gcc/arm-none-eabi/9.2.1/../../../../arm-none-eabi/lib/thumb/v8-a+simd/hard/libstdc++.a(vmi_class_type_info.o)
 .bss           0x000000000008ab54        0x0 /home/olf/projects/circle/gcc-arm-9.2-2019.12-x86_64-arm-none-eabi/bin/../lib/gcc/arm-none-eabi/9.2.1/../../../../arm-none-eabi/lib/thumb/v8-a+simd/hard/libstdc++.a(vterminate.o)
 .bss._ZZN9__gnu_cxx27__verbose_terminate_handlerEvE11terminating
                0x000000000008ab54        0x1 /home/olf/projects/circle/gcc-arm-9.2-2019.12-x86_64-arm-none-eabi/bin/../lib/gcc/arm-none-eabi/9.2.1/../../../../arm-none-eabi/lib/thumb/v8-a+simd/hard/libstdc++.a(vterminate.o)
 .bss           0x000000000008ab55        0x0 /home/olf/projects/circle/gcc-arm-9.2-2019.12-x86_64-arm-none-eabi/bin/../lib/gcc/arm-none-eabi/9.2.1/../../../../arm-none-eabi/lib/thumb/v8-a+simd/hard/libstdc++.a(bad_alloc.o)
 .bss           0x000000000008ab55        0x0 /home/olf/projects/circle/gcc-arm-9.2-2019.12-x86_64-arm-none-eabi/bin/../lib/gcc/arm-none-eabi/9.2.1/../../../../arm-none-eabi/lib/thumb/v8-a+simd/hard/libstdc++.a(bad_array_new.o)
 .bss           0x000000000008ab55        0x0 /home/olf/projects/circle/gcc-arm-9.2-2019.12-x86_64-arm-none-eabi/bin/../lib/gcc/arm-none-eabi/9.2.1/../../../../arm-none-eabi/lib/thumb/v8-a+simd/hard/libstdc++.a(bad_cast.o)
 .bss           0x000000000008ab55        0x0 /home/olf/projects/circle/gcc-arm-9.2-2019.12-x86_64-arm-none-eabi/bin/../lib/gcc/arm-none-eabi/9.2.1/../../../../arm-none-eabi/lib/thumb/v8-a+simd/hard/libstdc++.a(bad_typeid.o)
 .bss           0x000000000008ab55        0x0 /home/olf/projects/circle/gcc-arm-9.2-2019.12-x86_64-arm-none-eabi/bin/../lib/gcc/arm-none-eabi/9.2.1/../../../../arm-none-eabi/lib/thumb/v8-a+simd/hard/libstdc++.a(cp-demangle.o)
 .bss           0x000000000008ab55        0x0 /home/olf/projects/circle/gcc-arm-9.2-2019.12-x86_64-arm-none-eabi/bin/../lib/gcc/arm-none-eabi/9.2.1/../../../../arm-none-eabi/lib/thumb/v8-a+simd/hard/libstdc++.a(del_op.o)
 .bss           0x000000000008ab55        0x0 /home/olf/projects/circle/gcc-arm-9.2-2019.12-x86_64-arm-none-eabi/bin/../lib/gcc/arm-none-eabi/9.2.1/../../../../arm-none-eabi/lib/thumb/v8-a+simd/hard/libstdc++.a(eh_alloc.o)
 *fill*         0x000000000008ab55        0x3 
 .bss._ZN12_GLOBAL__N_114emergency_poolE
                0x000000000008ab58       0x10 /home/olf/projects/circle/gcc-arm-9.2-2019.12-x86_64-arm-none-eabi/bin/../lib/gcc/arm-none-eabi/9.2.1/../../../../arm-none-eabi/lib/thumb/v8-a+simd/hard/libstdc++.a(eh_alloc.o)
 .bss           0x000000000008ab68        0x0 /home/olf/projects/circle/gcc-arm-9.2-2019.12-x86_64-arm-none-eabi/bin/../lib/gcc/arm-none-eabi/9.2.1/../../../../arm-none-eabi/lib/thumb/v8-a+simd/hard/libstdc++.a(eh_call.o)
 .bss           0x000000000008ab68        0x0 /home/olf/projects/circle/gcc-arm-9.2-2019.12-x86_64-arm-none-eabi/bin/../lib/gcc/arm-none-eabi/9.2.1/../../../../arm-none-eabi/lib/thumb/v8-a+simd/hard/libstdc++.a(eh_catch.o)
 .bss           0x000000000008ab68        0x0 /home/olf/projects/circle/gcc-arm-9.2-2019.12-x86_64-arm-none-eabi/bin/../lib/gcc/arm-none-eabi/9.2.1/../../../../arm-none-eabi/lib/thumb/v8-a+simd/hard/libstdc++.a(eh_term_handler.o)
 .bss           0x000000000008ab68        0x0 /home/olf/projects/circle/gcc-arm-9.2-2019.12-x86_64-arm-none-eabi/bin/../lib/gcc/arm-none-eabi/9.2.1/../../../../arm-none-eabi/lib/thumb/v8-a+simd/hard/libstdc++.a(eh_type.o)
 .bss           0x000000000008ab68        0x0 /home/olf/projects/circle/gcc-arm-9.2-2019.12-x86_64-arm-none-eabi/bin/../lib/gcc/arm-none-eabi/9.2.1/../../../../arm-none-eabi/lib/thumb/v8-a+simd/hard/libstdc++.a(new_handler.o)
 .bss._ZN12_GLOBAL__N_113__new_handlerE
                0x000000000008ab68        0x4 /home/olf/projects/circle/gcc-arm-9.2-2019.12-x86_64-arm-none-eabi/bin/../lib/gcc/arm-none-eabi/9.2.1/../../../../arm-none-eabi/lib/thumb/v8-a+simd/hard/libstdc++.a(new_handler.o)
 .bss           0x000000000008ab6c        0x0 /home/olf/projects/circle/gcc-arm-9.2-2019.12-x86_64-arm-none-eabi/bin/../lib/gcc/arm-none-eabi/9.2.1/thumb/v8-a+simd/hard/libgcc.a(_aeabi_ldivmod.o)
 .bss           0x000000000008ab6c        0x0 /home/olf/projects/circle/gcc-arm-9.2-2019.12-x86_64-arm-none-eabi/bin/../lib/gcc/arm-none-eabi/9.2.1/thumb/v8-a+simd/hard/libgcc.a(_aeabi_uldivmod.o)
 .bss           0x000000000008ab6c        0x0 /home/olf/projects/circle/gcc-arm-9.2-2019.12-x86_64-arm-none-eabi/bin/../lib/gcc/arm-none-eabi/9.2.1/thumb/v8-a+simd/hard/libgcc.a(_udivmoddi4.o)
 .bss           0x000000000008ab6c        0x0 /home/olf/projects/circle/gcc-arm-9.2-2019.12-x86_64-arm-none-eabi/bin/../lib/gcc/arm-none-eabi/9.2.1/thumb/v8-a+simd/hard/libgcc.a(unwind-arm.o)
 .bss           0x000000000008ab6c        0x0 /home/olf/projects/circle/gcc-arm-9.2-2019.12-x86_64-arm-none-eabi/bin/../lib/gcc/arm-none-eabi/9.2.1/thumb/v8-a+simd/hard/libgcc.a(libunwind.o)
 .bss           0x000000000008ab6c        0x0 /home/olf/projects/circle/gcc-arm-9.2-2019.12-x86_64-arm-none-eabi/bin/../lib/gcc/arm-none-eabi/9.2.1/thumb/v8-a+simd/hard/libgcc.a(pr-support.o)
 .bss           0x000000000008ab6c        0x0 /home/olf/projects/circle/gcc-arm-9.2-2019.12-x86_64-arm-none-eabi/bin/../lib/gcc/arm-none-eabi/9.2.1/thumb/v8-a+simd/hard/libgcc.a(_dvmd_tls.o)
 *(COMMON)
                0x000000000008ab6c                _end = .
LOAD main.o
LOAD kernel.o
START GROUP
LOAD ../../../addon/wlan/hostap/wpa_supplicant/libwpa_supplicant.a
LOAD ../../../addon/wlan/libwlan.a
LOAD ../../../addon/fatfs/libfatfs.a
LOAD ../../../addon/SDCard/libsdcard.a
LOAD ../../../lib/net/libnet.a
LOAD ../../../lib/sched/libsched.a
LOAD ../../../lib/usb/libusb.a
LOAD ../../../lib/input/libinput.a
LOAD ../../../lib/fs/libfs.a
LOAD ../../../lib/libcircle.a
LOAD /home/olf/projects/circle/gcc-arm-9.2-2019.12-x86_64-arm-none-eabi/bin/../lib/gcc/arm-none-eabi/9.2.1/../../../../arm-none-eabi/lib/thumb/v8-a+simd/hard/libstdc++.a
LOAD /home/olf/projects/circle/gcc-arm-9.2-2019.12-x86_64-arm-none-eabi/bin/../lib/gcc/arm-none-eabi/9.2.1/thumb/v8-a+simd/hard/libgcc.a
END GROUP
OUTPUT(kernel7l.elf elf32-littlearm)

.debug_info     0x0000000000000000   0x17b910
 .debug_info    0x0000000000000000     0x4366 main.o
 .debug_info    0x0000000000004366     0x4c15 kernel.o
 .debug_info    0x0000000000008f7b      0xaac ../../../addon/wlan/hostap/wpa_supplicant/libwpa_supplicant.a(wpasupplicant.o)
 .debug_info    0x0000000000009a27      0x709 ../../../addon/wlan/hostap/wpa_supplicant/libwpa_supplicant.a(eloop_circle.o)
 .debug_info    0x000000000000a130     0x1cc8 ../../../addon/wlan/hostap/wpa_supplicant/libwpa_supplicant.a(os_circle.o)
 .debug_info    0x000000000000bdf8      0x93e ../../../addon/wlan/hostap/wpa_supplicant/libwpa_supplicant.a(main_circle.o)
 .debug_info    0x000000000000c736     0x7a6a ../../../addon/wlan/hostap/wpa_supplicant/libwpa_supplicant.a(wpa_supplicant.o)
 .debug_info    0x00000000000141a0     0x487c ../../../addon/wlan/hostap/wpa_supplicant/libwpa_supplicant.a(wpas_glue.o)
 .debug_info    0x0000000000018a1c       0xb9 ../../../addon/wlan/hostap/wpa_supplicant/libwpa_supplicant.a(drivers.o)
 .debug_info    0x0000000000018ad5     0x3c0a ../../../addon/wlan/hostap/wpa_supplicant/libwpa_supplicant.a(driver_circle.o)
 .debug_info    0x000000000001c6df      0x816 ../../../addon/wlan/hostap/wpa_supplicant/libwpa_supplicant.a(scan_helpers.o)
 .debug_info    0x000000000001cef5     0x3668 ../../../addon/wlan/hostap/wpa_supplicant/libwpa_supplicant.a(eapol_supp_sm.o)
 .debug_info    0x000000000002055d     0x4cef ../../../addon/wlan/hostap/wpa_supplicant/libwpa_supplicant.a(eap.o)
 .debug_info    0x000000000002524c      0xe60 ../../../addon/wlan/hostap/wpa_supplicant/libwpa_supplicant.a(eap_methods.o)
 .debug_info    0x00000000000260ac     0x2adf ../../../addon/wlan/hostap/wpa_supplicant/libwpa_supplicant.a(l2_packet_circle.o)
 .debug_info    0x0000000000028b8b     0x1860 ../../../addon/wlan/hostap/wpa_supplicant/libwpa_supplicant.a(pmksa_cache.o)
 .debug_info    0x000000000002a3eb     0x1d67 ../../../addon/wlan/hostap/wpa_supplicant/libwpa_supplicant.a(preauth.o)
 .debug_info    0x000000000002c152     0x5b5a ../../../addon/wlan/hostap/wpa_supplicant/libwpa_supplicant.a(wpa.o)
 .debug_info    0x0000000000031cac     0x130d ../../../addon/wlan/hostap/wpa_supplicant/libwpa_supplicant.a(wpa_ie.o)
 .debug_info    0x0000000000032fb9      0x7e6 ../../../addon/wlan/hostap/wpa_supplicant/libwpa_supplicant.a(common.o)
 .debug_info    0x000000000003379f      0xea8 ../../../addon/wlan/hostap/wpa_supplicant/libwpa_supplicant.a(wpa_debug.o)
 .debug_info    0x0000000000034647      0xf39 ../../../addon/wlan/hostap/wpa_supplicant/libwpa_supplicant.a(wpabuf.o)
 .debug_info    0x0000000000035580      0xad4 ../../../addon/wlan/hostap/wpa_supplicant/libwpa_supplicant.a(blacklist.o)
 .debug_info    0x0000000000036054     0x45af ../../../addon/wlan/hostap/wpa_supplicant/libwpa_supplicant.a(config.o)
 .debug_info    0x000000000003a603     0x341a ../../../addon/wlan/hostap/wpa_supplicant/libwpa_supplicant.a(config_file_circle.o)
 .debug_info    0x000000000003da1d     0x568a ../../../addon/wlan/hostap/wpa_supplicant/libwpa_supplicant.a(events.o)
 .debug_info    0x00000000000430a7     0x1663 ../../../addon/wlan/hostap/wpa_supplicant/libwpa_supplicant.a(notify.o)
 .debug_info    0x000000000004470a     0x3449 ../../../addon/wlan/hostap/wpa_supplicant/libwpa_supplicant.a(scan.o)
 .debug_info    0x0000000000047b53      0xac3 ../../../addon/wlan/hostap/wpa_supplicant/libwpa_supplicant.a(wpa_common.o)
 .debug_info    0x0000000000048616      0x2c7 ../../../addon/wlan/hostap/wpa_supplicant/libwpa_supplicant.a(aes-unwrap.o)
 .debug_info    0x00000000000488dd      0x548 ../../../addon/wlan/hostap/wpa_supplicant/libwpa_supplicant.a(md5-internal.o)
 .debug_info    0x0000000000048e25      0x381 ../../../addon/wlan/hostap/wpa_supplicant/libwpa_supplicant.a(md5.o)
 .debug_info    0x00000000000491a6      0x202 ../../../addon/wlan/hostap/wpa_supplicant/libwpa_supplicant.a(rc4.o)
 .debug_info    0x00000000000493a8      0x458 ../../../addon/wlan/hostap/wpa_supplicant/libwpa_supplicant.a(sha1-pbkdf2.o)
 .debug_info    0x0000000000049800      0x584 ../../../addon/wlan/hostap/wpa_supplicant/libwpa_supplicant.a(sha1.o)
 .debug_info    0x0000000000049d84      0x136 ../../../addon/wlan/hostap/wpa_supplicant/libwpa_supplicant.a(tls_none.o)
 .debug_info    0x0000000000049eba      0x87b ../../../addon/wlan/hostap/wpa_supplicant/libwpa_supplicant.a(eap_common.o)
 .debug_info    0x000000000004a735      0x308 ../../../addon/wlan/hostap/wpa_supplicant/libwpa_supplicant.a(base64.o)
 .debug_info    0x000000000004aa3d      0x983 ../../../addon/wlan/hostap/wpa_supplicant/libwpa_supplicant.a(aes-internal-dec.o)
 .debug_info    0x000000000004b3c0      0x249 ../../../addon/wlan/hostap/wpa_supplicant/libwpa_supplicant.a(aes-internal.o)
 .debug_info    0x000000000004b609      0x601 ../../../addon/wlan/hostap/wpa_supplicant/libwpa_supplicant.a(sha1-internal.o)
 .debug_info    0x000000000004bc0a     0x240c ../../../addon/wlan/libwlan.a(bcm4343.o)
 .debug_info    0x000000000004e016     0x7f3e ../../../addon/wlan/libwlan.a(ether4330.o)
 .debug_info    0x0000000000055f54     0x1ed6 ../../../addon/wlan/libwlan.a(emmc.o)
 .debug_info    0x0000000000057e2a     0x1fa0 ../../../addon/wlan/libwlan.a(p9arch.o)
 .debug_info    0x0000000000059dca      0xa00 ../../../addon/wlan/libwlan.a(p9chan.o)
 .debug_info    0x000000000005a7ca      0x563 ../../../addon/wlan/libwlan.a(p9cmd.o)
 .debug_info    0x000000000005ad2d      0x3f2 ../../../addon/wlan/libwlan.a(p9error.o)
 .debug_info    0x000000000005b11f      0x6d7 ../../../addon/wlan/libwlan.a(p9ether.o)
 .debug_info    0x000000000005b7f6      0xc86 ../../../addon/wlan/libwlan.a(p9proc.o)
 .debug_info    0x000000000005c47c     0x1500 ../../../addon/wlan/libwlan.a(p9util.o)
 .debug_info    0x000000000005d97c     0x8500 ../../../addon/fatfs/libfatfs.a(ff.o)
 .debug_info    0x0000000000065e7c      0x875 ../../../addon/fatfs/libfatfs.a(diskio.o)
 .debug_info    0x00000000000666f1      0xf87 ../../../addon/fatfs/libfatfs.a(ffsystem.o)
 .debug_info    0x0000000000067678      0x2a2 ../../../addon/fatfs/libfatfs.a(ffunicode.o)
 .debug_info    0x000000000006791a     0x58e7 ../../../addon/SDCard/libsdcard.a(emmc.o)
 .debug_info    0x000000000006d201     0x2990 ../../../lib/net/libnet.a(netsubsystem.o)
 .debug_info    0x000000000006fb91     0x243c ../../../lib/net/libnet.a(nettask.o)
 .debug_info    0x0000000000071fcd     0x3c58 ../../../lib/net/libnet.a(transportlayer.o)
 .debug_info    0x0000000000075c25     0x2da2 ../../../lib/net/libnet.a(networklayer.o)
 .debug_info    0x00000000000789c7     0x2782 ../../../lib/net/libnet.a(linklayer.o)
 .debug_info    0x000000000007b149     0x229e ../../../lib/net/libnet.a(netdevlayer.o)
 .debug_info    0x000000000007d3e7      0xb00 ../../../lib/net/libnet.a(phytask.o)
 .debug_info    0x000000000007dee7     0x30a6 ../../../lib/net/libnet.a(arphandler.o)
 .debug_info    0x0000000000080f8d     0x34d0 ../../../lib/net/libnet.a(icmphandler.o)
 .debug_info    0x000000000008445d      0x795 ../../../lib/net/libnet.a(routecache.o)
 .debug_info    0x0000000000084bf2     0x24b5 ../../../lib/net/libnet.a(netconnection.o)
 .debug_info    0x00000000000870a7     0x326f ../../../lib/net/libnet.a(udpconnection.o)
 .debug_info    0x000000000008a316     0x5e85 ../../../lib/net/libnet.a(tcpconnection.o)
 .debug_info    0x000000000009019b      0x882 ../../../lib/net/libnet.a(retransmissionqueue.o)
 .debug_info    0x0000000000090a1d     0x1107 ../../../lib/net/libnet.a(retranstimeoutcalc.o)
 .debug_info    0x0000000000091b24     0x291e ../../../lib/net/libnet.a(tcprejector.o)
 .debug_info    0x0000000000094442      0xe62 ../../../lib/net/libnet.a(netconfig.o)
 .debug_info    0x00000000000952a4      0xf7a ../../../lib/net/libnet.a(ipaddress.o)
 .debug_info    0x000000000009621e      0x986 ../../../lib/net/libnet.a(netqueue.o)
 .debug_info    0x0000000000096ba4      0xc0a ../../../lib/net/libnet.a(checksumcalculator.o)
 .debug_info    0x00000000000977ae     0x4df0 ../../../lib/net/libnet.a(dhcpclient.o)
 .debug_info    0x000000000009c59e     0x3561 ../../../lib/net/libnet.a(ntpdaemon.o)
 .debug_info    0x000000000009faff     0x3235 ../../../lib/net/libnet.a(socket.o)
 .debug_info    0x00000000000a2d34     0x2b29 ../../../lib/net/libnet.a(dnsclient.o)
 .debug_info    0x00000000000a585d     0x328d ../../../lib/net/libnet.a(ntpclient.o)
 .debug_info    0x00000000000a8aea     0x351c ../../../lib/net/libnet.a(netsocket.o)
 .debug_info    0x00000000000ac006      0xd19 ../../../lib/sched/libsched.a(task.o)
 .debug_info    0x00000000000acd1f     0x1ee8 ../../../lib/sched/libsched.a(scheduler.o)
 .debug_info    0x00000000000aec07      0x61f ../../../lib/sched/libsched.a(synchronizationevent.o)
 .debug_info    0x00000000000af226     0x4fe5 ../../../lib/usb/libusb.a(xhcidevice.o)
 .debug_info    0x00000000000b420b     0x41e9 ../../../lib/usb/libusb.a(xhciendpoint.o)
 .debug_info    0x00000000000b83f4     0x28fd ../../../lib/usb/libusb.a(xhcieventmanager.o)
 .debug_info    0x00000000000bacf1     0x1d06 ../../../lib/usb/libusb.a(xhcimmiospace.o)
 .debug_info    0x00000000000bc9f7     0x1cf9 ../../../lib/usb/libusb.a(xhciring.o)
 .debug_info    0x00000000000be6f0     0x147f ../../../lib/usb/libusb.a(xhciroothub.o)
 .debug_info    0x00000000000bfb6f     0x241d ../../../lib/usb/libusb.a(xhcirootport.o)
 .debug_info    0x00000000000c1f8c     0x1479 ../../../lib/usb/libusb.a(xhcisharedmemallocator.o)
 .debug_info    0x00000000000c3405     0x1d92 ../../../lib/usb/libusb.a(xhcislotmanager.o)
 .debug_info    0x00000000000c5197     0x3fdb ../../../lib/usb/libusb.a(xhciusbdevice.o)
 .debug_info    0x00000000000c9172     0x495d ../../../lib/usb/libusb.a(usbdevice.o)
 .debug_info    0x00000000000cdacf      0xab1 ../../../lib/usb/libusb.a(usbdevicefactory.o)
 .debug_info    0x00000000000ce580     0x150f ../../../lib/usb/libusb.a(usbendpoint.o)
 .debug_info    0x00000000000cfa8f     0x35da ../../../lib/usb/libusb.a(usbfunction.o)
 .debug_info    0x00000000000d3069     0x1b43 ../../../lib/usb/libusb.a(usbgamepadps3.o)
 .debug_info    0x00000000000d4bac     0x1f9b ../../../lib/usb/libusb.a(usbgamepadps4.o)
 .debug_info    0x00000000000d6b47     0x1aac ../../../lib/usb/libusb.a(usbgamepadstandard.o)
 .debug_info    0x00000000000d85f3     0x1d02 ../../../lib/usb/libusb.a(usbgamepadswitchpro.o)
 .debug_info    0x00000000000da2f5     0x1ac0 ../../../lib/usb/libusb.a(usbgamepadxbox360.o)
 .debug_info    0x00000000000dbdb5     0x1a3e ../../../lib/usb/libusb.a(usbgamepadxboxone.o)
 .debug_info    0x00000000000dd7f3     0x33c5 ../../../lib/usb/libusb.a(usbhiddevice.o)
 .debug_info    0x00000000000e0bb8     0x2fac ../../../lib/usb/libusb.a(usbhostcontroller.o)
 .debug_info    0x00000000000e3b64     0x2292 ../../../lib/usb/libusb.a(usbkeyboard.o)
 .debug_info    0x00000000000e5df6     0x43cc ../../../lib/usb/libusb.a(usbmassdevice.o)
 .debug_info    0x00000000000ea1c2     0x376e ../../../lib/usb/libusb.a(usbmidi.o)
 .debug_info    0x00000000000ed930     0x14f9 ../../../lib/usb/libusb.a(usbmouse.o)
 .debug_info    0x00000000000eee29     0x2dd2 ../../../lib/usb/libusb.a(usbprinter.o)
 .debug_info    0x00000000000f1bfb     0x1ddf ../../../lib/usb/libusb.a(usbrequest.o)
 .debug_info    0x00000000000f39da     0x46e4 ../../../lib/usb/libusb.a(usbstandardhub.o)
 .debug_info    0x00000000000f80be     0x28a8 ../../../lib/usb/libusb.a(xhcicommandmanager.o)
 .debug_info    0x00000000000fa966     0x47c0 ../../../lib/usb/libusb.a(lan7800.o)
 .debug_info    0x00000000000ff126     0x42eb ../../../lib/usb/libusb.a(smsc951x.o)
 .debug_info    0x0000000000103411     0x32a5 ../../../lib/usb/libusb.a(usbbluetooth.o)
 .debug_info    0x00000000001066b6     0x373d ../../../lib/usb/libusb.a(usbcdcethernet.o)
 .debug_info    0x0000000000109df3     0x1777 ../../../lib/usb/libusb.a(usbconfigparser.o)
 .debug_info    0x000000000010b56a     0x1c31 ../../../lib/usb/libusb.a(usbgamepad.o)
 .debug_info    0x000000000010d19b      0xa56 ../../../lib/usb/libusb.a(usbstring.o)
 .debug_info    0x000000000010dbf1     0x15e8 ../../../lib/input/libinput.a(keyboardbehaviour.o)
 .debug_info    0x000000000010f1d9      0xe7c ../../../lib/input/libinput.a(keymap.o)
 .debug_info    0x0000000000110055      0xde0 ../../../lib/input/libinput.a(mouse.o)
 .debug_info    0x0000000000110e35      0xc9d ../../../lib/input/libinput.a(mousebehaviour.o)
 .debug_info    0x0000000000111ad2     0x164b ../../../lib/fs/libfs.a(partitionmanager.o)
 .debug_info    0x000000000011311d      0x6ad ../../../lib/fs/libfs.a(partition.o)
 .debug_info    0x00000000001137ca     0x155b ../../../lib/libcircle.a(actled.o)
 .debug_info    0x0000000000114d25      0xb2d ../../../lib/libcircle.a(alloc.o)
 .debug_info    0x0000000000115852      0xf62 ../../../lib/libcircle.a(assert.o)
 .debug_info    0x00000000001167b4      0xd54 ../../../lib/libcircle.a(bcmpropertytags.o)
 .debug_info    0x0000000000117508     0x163a ../../../lib/libcircle.a(classallocator.o)
 .debug_info    0x0000000000118b42      0xfa9 ../../../lib/libcircle.a(debug.o)
 .debug_info    0x0000000000119aeb      0x49f ../../../lib/libcircle.a(device.o)
 .debug_info    0x0000000000119f8a      0xedb ../../../lib/libcircle.a(devicenameservice.o)
 .debug_info    0x000000000011ae65     0x29dc ../../../lib/libcircle.a(dmachannel.o)
 .debug_info    0x000000000011d841     0x28c1 ../../../lib/libcircle.a(gpiopin.o)
 .debug_info    0x0000000000120102     0x144c ../../../lib/libcircle.a(koptions.o)
 .debug_info    0x000000000012154e     0x22c5 ../../../lib/libcircle.a(logger.o)
 .debug_info    0x0000000000123813     0x153f ../../../lib/libcircle.a(machineinfo.o)
 .debug_info    0x0000000000124d52      0x681 ../../../lib/libcircle.a(ptrarray.o)
 .debug_info    0x00000000001253d3      0x7db ../../../lib/libcircle.a(ptrlist.o)
 .debug_info    0x0000000000125bae     0x3917 ../../../lib/libcircle.a(screen.o)
 .debug_info    0x00000000001294c5     0x278e ../../../lib/libcircle.a(serial.o)
 .debug_info    0x000000000012bc53     0x241d ../../../lib/libcircle.a(string.o)
 .debug_info    0x000000000012e070     0x1136 ../../../lib/libcircle.a(sysinit.o)
 .debug_info    0x000000000012f1a6     0x269d ../../../lib/libcircle.a(timer.o)
 .debug_info    0x0000000000131843      0x18b ../../../lib/libcircle.a(util.o)
 .debug_info    0x00000000001319ce     0x1207 ../../../lib/libcircle.a(virtualgpiopin.o)
 .debug_info    0x0000000000132bd5      0x254 ../../../lib/libcircle.a(chainboot.o)
 .debug_info    0x0000000000132e29      0x8dc ../../../lib/libcircle.a(macaddress.o)
 .debug_info    0x0000000000133705      0x6c7 ../../../lib/libcircle.a(netdevice.o)
 .debug_info    0x0000000000133dcc      0x8ed ../../../lib/libcircle.a(new.o)
 .debug_info    0x00000000001346b9     0x16da ../../../lib/libcircle.a(heapallocator.o)
 .debug_info    0x0000000000135d93      0x66e ../../../lib/libcircle.a(pageallocator.o)
 .debug_info    0x0000000000136401     0x117b ../../../lib/libcircle.a(numberpool.o)
 .debug_info    0x000000000013757c     0x1483 ../../../lib/libcircle.a(exceptionhandler.o)
 .debug_info    0x00000000001389ff     0x1656 ../../../lib/libcircle.a(memory.o)
 .debug_info    0x000000000013a055      0x61c ../../../lib/libcircle.a(pagetable.o)
 .debug_info    0x000000000013a671      0x231 ../../../lib/libcircle.a(synchronize.o)
 .debug_info    0x000000000013a8a2     0x8ab9 ../../../lib/libcircle.a(bcm54213.o)
 .debug_info    0x000000000014335b     0x5715 ../../../lib/libcircle.a(bcmpciehostbridge.o)
 .debug_info    0x0000000000148a70      0x5b0 ../../../lib/libcircle.a(bcmrandom200.o)
 .debug_info    0x0000000000149020     0x154d ../../../lib/libcircle.a(interruptgic.o)
 .debug_info    0x000000000014a56d     0x1f36 ../../../lib/libcircle.a(dma4channel.o)
 .debug_info    0x000000000014c4a3     0x1955 ../../../lib/libcircle.a(devicetreeblob.o)
 .debug_info    0x000000000014ddf8      0xfe9 ../../../lib/libcircle.a(bcmframebuffer.o)
 .debug_info    0x000000000014ede1     0x1204 ../../../lib/libcircle.a(bcmmailbox.o)
 .debug_info    0x000000000014ffe5      0x3cf ../../../lib/libcircle.a(chargenerator.o)
 .debug_info    0x00000000001503b4      0xafe ../../../lib/libcircle.a(gpiomanager.o)
 .debug_info    0x0000000000150eb2      0xa9a /home/olf/projects/circle/gcc-arm-9.2-2019.12-x86_64-arm-none-eabi/bin/../lib/gcc/arm-none-eabi/9.2.1/../../../../arm-none-eabi/lib/thumb/v8-a+simd/hard/libstdc++.a(class_type_info.o)
 .debug_info    0x000000000015194c      0x3e4 /home/olf/projects/circle/gcc-arm-9.2-2019.12-x86_64-arm-none-eabi/bin/../lib/gcc/arm-none-eabi/9.2.1/../../../../arm-none-eabi/lib/thumb/v8-a+simd/hard/libstdc++.a(del_ops.o)
 .debug_info    0x0000000000151d30      0x3d1 /home/olf/projects/circle/gcc-arm-9.2-2019.12-x86_64-arm-none-eabi/bin/../lib/gcc/arm-none-eabi/9.2.1/../../../../arm-none-eabi/lib/thumb/v8-a+simd/hard/libstdc++.a(del_opv.o)
 .debug_info    0x0000000000152101      0xbd1 /home/olf/projects/circle/gcc-arm-9.2-2019.12-x86_64-arm-none-eabi/bin/../lib/gcc/arm-none-eabi/9.2.1/../../../../arm-none-eabi/lib/thumb/v8-a+simd/hard/libstdc++.a(eh_arm.o)
 .debug_info    0x0000000000152cd2     0x153b /home/olf/projects/circle/gcc-arm-9.2-2019.12-x86_64-arm-none-eabi/bin/../lib/gcc/arm-none-eabi/9.2.1/../../../../arm-none-eabi/lib/thumb/v8-a+simd/hard/libstdc++.a(eh_aux_runtime.o)
 .debug_info    0x000000000015420d      0xa75 /home/olf/projects/circle/gcc-arm-9.2-2019.12-x86_64-arm-none-eabi/bin/../lib/gcc/arm-none-eabi/9.2.1/../../../../arm-none-eabi/lib/thumb/v8-a+simd/hard/libstdc++.a(eh_exception.o)
 .debug_info    0x0000000000154c82     0x14b0 /home/olf/projects/circle/gcc-arm-9.2-2019.12-x86_64-arm-none-eabi/bin/../lib/gcc/arm-none-eabi/9.2.1/../../../../arm-none-eabi/lib/thumb/v8-a+simd/hard/libstdc++.a(eh_globals.o)
 .debug_info    0x0000000000156132     0x2bd5 /home/olf/projects/circle/gcc-arm-9.2-2019.12-x86_64-arm-none-eabi/bin/../lib/gcc/arm-none-eabi/9.2.1/../../../../arm-none-eabi/lib/thumb/v8-a+simd/hard/libstdc++.a(eh_personality.o)
 .debug_info    0x0000000000158d07     0x1499 /home/olf/projects/circle/gcc-arm-9.2-2019.12-x86_64-arm-none-eabi/bin/../lib/gcc/arm-none-eabi/9.2.1/../../../../arm-none-eabi/lib/thumb/v8-a+simd/hard/libstdc++.a(eh_terminate.o)
 .debug_info    0x000000000015a1a0      0xbdd /home/olf/projects/circle/gcc-arm-9.2-2019.12-x86_64-arm-none-eabi/bin/../lib/gcc/arm-none-eabi/9.2.1/../../../../arm-none-eabi/lib/thumb/v8-a+simd/hard/libstdc++.a(eh_throw.o)
 .debug_info    0x000000000015ad7d      0x427 /home/olf/projects/circle/gcc-arm-9.2-2019.12-x86_64-arm-none-eabi/bin/../lib/gcc/arm-none-eabi/9.2.1/../../../../arm-none-eabi/lib/thumb/v8-a+simd/hard/libstdc++.a(eh_unex_handler.o)
 .debug_info    0x000000000015b1a4     0x130d /home/olf/projects/circle/gcc-arm-9.2-2019.12-x86_64-arm-none-eabi/bin/../lib/gcc/arm-none-eabi/9.2.1/../../../../arm-none-eabi/lib/thumb/v8-a+simd/hard/libstdc++.a(new_op.o)
 .debug_info    0x000000000015c4b1      0x3e0 /home/olf/projects/circle/gcc-arm-9.2-2019.12-x86_64-arm-none-eabi/bin/../lib/gcc/arm-none-eabi/9.2.1/../../../../arm-none-eabi/lib/thumb/v8-a+simd/hard/libstdc++.a(new_opv.o)
 .debug_info    0x000000000015c891      0x519 /home/olf/projects/circle/gcc-arm-9.2-2019.12-x86_64-arm-none-eabi/bin/../lib/gcc/arm-none-eabi/9.2.1/../../../../arm-none-eabi/lib/thumb/v8-a+simd/hard/libstdc++.a(pure.o)
 .debug_info    0x000000000015cdaa      0x978 /home/olf/projects/circle/gcc-arm-9.2-2019.12-x86_64-arm-none-eabi/bin/../lib/gcc/arm-none-eabi/9.2.1/../../../../arm-none-eabi/lib/thumb/v8-a+simd/hard/libstdc++.a(si_class_type_info.o)
 .debug_info    0x000000000015d722      0x609 /home/olf/projects/circle/gcc-arm-9.2-2019.12-x86_64-arm-none-eabi/bin/../lib/gcc/arm-none-eabi/9.2.1/../../../../arm-none-eabi/lib/thumb/v8-a+simd/hard/libstdc++.a(tinfo.o)
 .debug_info    0x000000000015dd2b     0x1563 /home/olf/projects/circle/gcc-arm-9.2-2019.12-x86_64-arm-none-eabi/bin/../lib/gcc/arm-none-eabi/9.2.1/../../../../arm-none-eabi/lib/thumb/v8-a+simd/hard/libstdc++.a(vmi_class_type_info.o)
 .debug_info    0x000000000015f28e     0x17e2 /home/olf/projects/circle/gcc-arm-9.2-2019.12-x86_64-arm-none-eabi/bin/../lib/gcc/arm-none-eabi/9.2.1/../../../../arm-none-eabi/lib/thumb/v8-a+simd/hard/libstdc++.a(vterminate.o)
 .debug_info    0x0000000000160a70      0x587 /home/olf/projects/circle/gcc-arm-9.2-2019.12-x86_64-arm-none-eabi/bin/../lib/gcc/arm-none-eabi/9.2.1/../../../../arm-none-eabi/lib/thumb/v8-a+simd/hard/libstdc++.a(bad_alloc.o)
 .debug_info    0x0000000000160ff7      0x536 /home/olf/projects/circle/gcc-arm-9.2-2019.12-x86_64-arm-none-eabi/bin/../lib/gcc/arm-none-eabi/9.2.1/../../../../arm-none-eabi/lib/thumb/v8-a+simd/hard/libstdc++.a(bad_array_new.o)
 .debug_info    0x000000000016152d      0x21d /home/olf/projects/circle/gcc-arm-9.2-2019.12-x86_64-arm-none-eabi/bin/../lib/gcc/arm-none-eabi/9.2.1/../../../../arm-none-eabi/lib/thumb/v8-a+simd/hard/libstdc++.a(bad_cast.o)
 .debug_info    0x000000000016174a      0x21d /home/olf/projects/circle/gcc-arm-9.2-2019.12-x86_64-arm-none-eabi/bin/../lib/gcc/arm-none-eabi/9.2.1/../../../../arm-none-eabi/lib/thumb/v8-a+simd/hard/libstdc++.a(bad_typeid.o)
 .debug_info    0x0000000000161967     0xeff8 /home/olf/projects/circle/gcc-arm-9.2-2019.12-x86_64-arm-none-eabi/bin/../lib/gcc/arm-none-eabi/9.2.1/../../../../arm-none-eabi/lib/thumb/v8-a+simd/hard/libstdc++.a(cp-demangle.o)
 .debug_info    0x000000000017095f     0x116c /home/olf/projects/circle/gcc-arm-9.2-2019.12-x86_64-arm-none-eabi/bin/../lib/gcc/arm-none-eabi/9.2.1/../../../../arm-none-eabi/lib/thumb/v8-a+simd/hard/libstdc++.a(del_op.o)
 .debug_info    0x0000000000171acb     0x216a /home/olf/projects/circle/gcc-arm-9.2-2019.12-x86_64-arm-none-eabi/bin/../lib/gcc/arm-none-eabi/9.2.1/../../../../arm-none-eabi/lib/thumb/v8-a+simd/hard/libstdc++.a(eh_alloc.o)
 .debug_info    0x0000000000173c35     0x1cd9 /home/olf/projects/circle/gcc-arm-9.2-2019.12-x86_64-arm-none-eabi/bin/../lib/gcc/arm-none-eabi/9.2.1/../../../../arm-none-eabi/lib/thumb/v8-a+simd/hard/libstdc++.a(eh_call.o)
 .debug_info    0x000000000017590e     0x1813 /home/olf/projects/circle/gcc-arm-9.2-2019.12-x86_64-arm-none-eabi/bin/../lib/gcc/arm-none-eabi/9.2.1/../../../../arm-none-eabi/lib/thumb/v8-a+simd/hard/libstdc++.a(eh_catch.o)
 .debug_info    0x0000000000177121      0x427 /home/olf/projects/circle/gcc-arm-9.2-2019.12-x86_64-arm-none-eabi/bin/../lib/gcc/arm-none-eabi/9.2.1/../../../../arm-none-eabi/lib/thumb/v8-a+simd/hard/libstdc++.a(eh_term_handler.o)
 .debug_info    0x0000000000177548      0x8c3 /home/olf/projects/circle/gcc-arm-9.2-2019.12-x86_64-arm-none-eabi/bin/../lib/gcc/arm-none-eabi/9.2.1/../../../../arm-none-eabi/lib/thumb/v8-a+simd/hard/libstdc++.a(eh_type.o)
 .debug_info    0x0000000000177e0b      0x455 /home/olf/projects/circle/gcc-arm-9.2-2019.12-x86_64-arm-none-eabi/bin/../lib/gcc/arm-none-eabi/9.2.1/../../../../arm-none-eabi/lib/thumb/v8-a+simd/hard/libstdc++.a(new_handler.o)
 .debug_info    0x0000000000178260       0x26 /home/olf/projects/circle/gcc-arm-9.2-2019.12-x86_64-arm-none-eabi/bin/../lib/gcc/arm-none-eabi/9.2.1/thumb/v8-a+simd/hard/libgcc.a(_aeabi_ldivmod.o)
 .debug_info    0x0000000000178286       0x26 /home/olf/projects/circle/gcc-arm-9.2-2019.12-x86_64-arm-none-eabi/bin/../lib/gcc/arm-none-eabi/9.2.1/thumb/v8-a+simd/hard/libgcc.a(_aeabi_uldivmod.o)
 .debug_info    0x00000000001782ac      0xd80 /home/olf/projects/circle/gcc-arm-9.2-2019.12-x86_64-arm-none-eabi/bin/../lib/gcc/arm-none-eabi/9.2.1/thumb/v8-a+simd/hard/libgcc.a(_udivmoddi4.o)
 .debug_info    0x000000000017902c     0x1ea4 /home/olf/projects/circle/gcc-arm-9.2-2019.12-x86_64-arm-none-eabi/bin/../lib/gcc/arm-none-eabi/9.2.1/thumb/v8-a+simd/hard/libgcc.a(unwind-arm.o)
 .debug_info    0x000000000017aed0       0x26 /home/olf/projects/circle/gcc-arm-9.2-2019.12-x86_64-arm-none-eabi/bin/../lib/gcc/arm-none-eabi/9.2.1/thumb/v8-a+simd/hard/libgcc.a(libunwind.o)
 .debug_info    0x000000000017aef6      0x9f4 /home/olf/projects/circle/gcc-arm-9.2-2019.12-x86_64-arm-none-eabi/bin/../lib/gcc/arm-none-eabi/9.2.1/thumb/v8-a+simd/hard/libgcc.a(pr-support.o)
 .debug_info    0x000000000017b8ea       0x26 /home/olf/projects/circle/gcc-arm-9.2-2019.12-x86_64-arm-none-eabi/bin/../lib/gcc/arm-none-eabi/9.2.1/thumb/v8-a+simd/hard/libgcc.a(_dvmd_tls.o)

.debug_abbrev   0x0000000000000000    0x3336c
 .debug_abbrev  0x0000000000000000      0x441 main.o
 .debug_abbrev  0x0000000000000441      0x514 kernel.o
 .debug_abbrev  0x0000000000000955      0x337 ../../../addon/wlan/hostap/wpa_supplicant/libwpa_supplicant.a(wpasupplicant.o)
 .debug_abbrev  0x0000000000000c8c      0x297 ../../../addon/wlan/hostap/wpa_supplicant/libwpa_supplicant.a(eloop_circle.o)
 .debug_abbrev  0x0000000000000f23      0x42c ../../../addon/wlan/hostap/wpa_supplicant/libwpa_supplicant.a(os_circle.o)
 .debug_abbrev  0x000000000000134f      0x1e7 ../../../addon/wlan/hostap/wpa_supplicant/libwpa_supplicant.a(main_circle.o)
 .debug_abbrev  0x0000000000001536      0x67a ../../../addon/wlan/hostap/wpa_supplicant/libwpa_supplicant.a(wpa_supplicant.o)
 .debug_abbrev  0x0000000000001bb0      0x5be ../../../addon/wlan/hostap/wpa_supplicant/libwpa_supplicant.a(wpas_glue.o)
 .debug_abbrev  0x000000000000216e       0x70 ../../../addon/wlan/hostap/wpa_supplicant/libwpa_supplicant.a(drivers.o)
 .debug_abbrev  0x00000000000021de      0x63a ../../../addon/wlan/hostap/wpa_supplicant/libwpa_supplicant.a(driver_circle.o)
 .debug_abbrev  0x0000000000002818      0x2ad ../../../addon/wlan/hostap/wpa_supplicant/libwpa_supplicant.a(scan_helpers.o)
 .debug_abbrev  0x0000000000002ac5      0x514 ../../../addon/wlan/hostap/wpa_supplicant/libwpa_supplicant.a(eapol_supp_sm.o)
 .debug_abbrev  0x0000000000002fd9      0x5fc ../../../addon/wlan/hostap/wpa_supplicant/libwpa_supplicant.a(eap.o)
 .debug_abbrev  0x00000000000035d5      0x309 ../../../addon/wlan/hostap/wpa_supplicant/libwpa_supplicant.a(eap_methods.o)
 .debug_abbrev  0x00000000000038de      0x43f ../../../addon/wlan/hostap/wpa_supplicant/libwpa_supplicant.a(l2_packet_circle.o)
 .debug_abbrev  0x0000000000003d1d      0x4d1 ../../../addon/wlan/hostap/wpa_supplicant/libwpa_supplicant.a(pmksa_cache.o)
 .debug_abbrev  0x00000000000041ee      0x4fe ../../../addon/wlan/hostap/wpa_supplicant/libwpa_supplicant.a(preauth.o)
 .debug_abbrev  0x00000000000046ec      0x662 ../../../addon/wlan/hostap/wpa_supplicant/libwpa_supplicant.a(wpa.o)
 .debug_abbrev  0x0000000000004d4e      0x3ce ../../../addon/wlan/hostap/wpa_supplicant/libwpa_supplicant.a(wpa_ie.o)
 .debug_abbrev  0x000000000000511c      0x2c5 ../../../addon/wlan/hostap/wpa_supplicant/libwpa_supplicant.a(common.o)
 .debug_abbrev  0x00000000000053e1      0x3ec ../../../addon/wlan/hostap/wpa_supplicant/libwpa_supplicant.a(wpa_debug.o)
 .debug_abbrev  0x00000000000057cd      0x2ee ../../../addon/wlan/hostap/wpa_supplicant/libwpa_supplicant.a(wpabuf.o)
 .debug_abbrev  0x0000000000005abb      0x25a ../../../addon/wlan/hostap/wpa_supplicant/libwpa_supplicant.a(blacklist.o)
 .debug_abbrev  0x0000000000005d15      0x556 ../../../addon/wlan/hostap/wpa_supplicant/libwpa_supplicant.a(config.o)
 .debug_abbrev  0x000000000000626b      0x429 ../../../addon/wlan/hostap/wpa_supplicant/libwpa_supplicant.a(config_file_circle.o)
 .debug_abbrev  0x0000000000006694      0x50f ../../../addon/wlan/hostap/wpa_supplicant/libwpa_supplicant.a(events.o)
 .debug_abbrev  0x0000000000006ba3      0x2f9 ../../../addon/wlan/hostap/wpa_supplicant/libwpa_supplicant.a(notify.o)
 .debug_abbrev  0x0000000000006e9c      0x51a ../../../addon/wlan/hostap/wpa_supplicant/libwpa_supplicant.a(scan.o)
 .debug_abbrev  0x00000000000073b6      0x2f5 ../../../addon/wlan/hostap/wpa_supplicant/libwpa_supplicant.a(wpa_common.o)
 .debug_abbrev  0x00000000000076ab      0x117 ../../../addon/wlan/hostap/wpa_supplicant/libwpa_supplicant.a(aes-unwrap.o)
 .debug_abbrev  0x00000000000077c2      0x226 ../../../addon/wlan/hostap/wpa_supplicant/libwpa_supplicant.a(md5-internal.o)
 .debug_abbrev  0x00000000000079e8      0x141 ../../../addon/wlan/hostap/wpa_supplicant/libwpa_supplicant.a(md5.o)
 .debug_abbrev  0x0000000000007b29      0x12f ../../../addon/wlan/hostap/wpa_supplicant/libwpa_supplicant.a(rc4.o)
 .debug_abbrev  0x0000000000007c58      0x1c8 ../../../addon/wlan/hostap/wpa_supplicant/libwpa_supplicant.a(sha1-pbkdf2.o)
 .debug_abbrev  0x0000000000007e20      0x166 ../../../addon/wlan/hostap/wpa_supplicant/libwpa_supplicant.a(sha1.o)
 .debug_abbrev  0x0000000000007f86       0xe7 ../../../addon/wlan/hostap/wpa_supplicant/libwpa_supplicant.a(tls_none.o)
 .debug_abbrev  0x000000000000806d      0x27f ../../../addon/wlan/hostap/wpa_supplicant/libwpa_supplicant.a(eap_common.o)
 .debug_abbrev  0x00000000000082ec      0x135 ../../../addon/wlan/hostap/wpa_supplicant/libwpa_supplicant.a(base64.o)
 .debug_abbrev  0x0000000000008421      0x22c ../../../addon/wlan/hostap/wpa_supplicant/libwpa_supplicant.a(aes-internal-dec.o)
 .debug_abbrev  0x000000000000864d      0x10b ../../../addon/wlan/hostap/wpa_supplicant/libwpa_supplicant.a(aes-internal.o)
 .debug_abbrev  0x0000000000008758      0x26b ../../../addon/wlan/hostap/wpa_supplicant/libwpa_supplicant.a(sha1-internal.o)
 .debug_abbrev  0x00000000000089c3      0x578 ../../../addon/wlan/libwlan.a(bcm4343.o)
 .debug_abbrev  0x0000000000008f3b      0x54f ../../../addon/wlan/libwlan.a(ether4330.o)
 .debug_abbrev  0x000000000000948a      0x408 ../../../addon/wlan/libwlan.a(emmc.o)
 .debug_abbrev  0x0000000000009892      0x490 ../../../addon/wlan/libwlan.a(p9arch.o)
 .debug_abbrev  0x0000000000009d22      0x2f5 ../../../addon/wlan/libwlan.a(p9chan.o)
 .debug_abbrev  0x000000000000a017      0x1d7 ../../../addon/wlan/libwlan.a(p9cmd.o)
 .debug_abbrev  0x000000000000a1ee      0x180 ../../../addon/wlan/libwlan.a(p9error.o)
 .debug_abbrev  0x000000000000a36e      0x1ee ../../../addon/wlan/libwlan.a(p9ether.o)
 .debug_abbrev  0x000000000000a55c      0x415 ../../../addon/wlan/libwlan.a(p9proc.o)
 .debug_abbrev  0x000000000000a971      0x386 ../../../addon/wlan/libwlan.a(p9util.o)
 .debug_abbrev  0x000000000000acf7      0x3ea ../../../addon/fatfs/libfatfs.a(ff.o)
 .debug_abbrev  0x000000000000b0e1      0x25a ../../../addon/fatfs/libfatfs.a(diskio.o)
 .debug_abbrev  0x000000000000b33b      0x380 ../../../addon/fatfs/libfatfs.a(ffsystem.o)
 .debug_abbrev  0x000000000000b6bb       0xdf ../../../addon/fatfs/libfatfs.a(ffunicode.o)
 .debug_abbrev  0x000000000000b79a      0x688 ../../../addon/SDCard/libsdcard.a(emmc.o)
 .debug_abbrev  0x000000000000be22      0x456 ../../../lib/net/libnet.a(netsubsystem.o)
 .debug_abbrev  0x000000000000c278      0x3d9 ../../../lib/net/libnet.a(nettask.o)
 .debug_abbrev  0x000000000000c651      0x560 ../../../lib/net/libnet.a(transportlayer.o)
 .debug_abbrev  0x000000000000cbb1      0x4da ../../../lib/net/libnet.a(networklayer.o)
 .debug_abbrev  0x000000000000d08b      0x3f5 ../../../lib/net/libnet.a(linklayer.o)
 .debug_abbrev  0x000000000000d480      0x4a2 ../../../lib/net/libnet.a(netdevlayer.o)
 .debug_abbrev  0x000000000000d922      0x38a ../../../lib/net/libnet.a(phytask.o)
 .debug_abbrev  0x000000000000dcac      0x5c3 ../../../lib/net/libnet.a(arphandler.o)
 .debug_abbrev  0x000000000000e26f      0x491 ../../../lib/net/libnet.a(icmphandler.o)
 .debug_abbrev  0x000000000000e700      0x226 ../../../lib/net/libnet.a(routecache.o)
 .debug_abbrev  0x000000000000e926      0x3e6 ../../../lib/net/libnet.a(netconnection.o)
 .debug_abbrev  0x000000000000ed0c      0x598 ../../../lib/net/libnet.a(udpconnection.o)
 .debug_abbrev  0x000000000000f2a4      0x6a8 ../../../lib/net/libnet.a(tcpconnection.o)
 .debug_abbrev  0x000000000000f94c      0x20d ../../../lib/net/libnet.a(retransmissionqueue.o)
 .debug_abbrev  0x000000000000fb59      0x380 ../../../lib/net/libnet.a(retranstimeoutcalc.o)
 .debug_abbrev  0x000000000000fed9      0x49e ../../../lib/net/libnet.a(tcprejector.o)
 .debug_abbrev  0x0000000000010377      0x26a ../../../lib/net/libnet.a(netconfig.o)
 .debug_abbrev  0x00000000000105e1      0x2c7 ../../../lib/net/libnet.a(ipaddress.o)
 .debug_abbrev  0x00000000000108a8      0x2dc ../../../lib/net/libnet.a(netqueue.o)
 .debug_abbrev  0x0000000000010b84      0x2e5 ../../../lib/net/libnet.a(checksumcalculator.o)
 .debug_abbrev  0x0000000000010e69      0x66a ../../../lib/net/libnet.a(dhcpclient.o)
 .debug_abbrev  0x00000000000114d3      0x477 ../../../lib/net/libnet.a(ntpdaemon.o)
 .debug_abbrev  0x000000000001194a      0x55a ../../../lib/net/libnet.a(socket.o)
 .debug_abbrev  0x0000000000011ea4      0x4a9 ../../../lib/net/libnet.a(dnsclient.o)
 .debug_abbrev  0x000000000001234d      0x45d ../../../lib/net/libnet.a(ntpclient.o)
 .debug_abbrev  0x00000000000127aa      0x47d ../../../lib/net/libnet.a(netsocket.o)
 .debug_abbrev  0x0000000000012c27      0x400 ../../../lib/sched/libsched.a(task.o)
 .debug_abbrev  0x0000000000013027      0x4d5 ../../../lib/sched/libsched.a(scheduler.o)
 .debug_abbrev  0x00000000000134fc      0x26f ../../../lib/sched/libsched.a(synchronizationevent.o)
 .debug_abbrev  0x000000000001376b      0x6bf ../../../lib/usb/libusb.a(xhcidevice.o)
 .debug_abbrev  0x0000000000013e2a      0x5f2 ../../../lib/usb/libusb.a(xhciendpoint.o)
 .debug_abbrev  0x000000000001441c      0x45a ../../../lib/usb/libusb.a(xhcieventmanager.o)
 .debug_abbrev  0x0000000000014876      0x3d1 ../../../lib/usb/libusb.a(xhcimmiospace.o)
 .debug_abbrev  0x0000000000014c47      0x443 ../../../lib/usb/libusb.a(xhciring.o)
 .debug_abbrev  0x000000000001508a      0x444 ../../../lib/usb/libusb.a(xhciroothub.o)
 .debug_abbrev  0x00000000000154ce      0x5ef ../../../lib/usb/libusb.a(xhcirootport.o)
 .debug_abbrev  0x0000000000015abd      0x382 ../../../lib/usb/libusb.a(xhcisharedmemallocator.o)
 .debug_abbrev  0x0000000000015e3f      0x40d ../../../lib/usb/libusb.a(xhcislotmanager.o)
 .debug_abbrev  0x000000000001624c      0x64e ../../../lib/usb/libusb.a(xhciusbdevice.o)
 .debug_abbrev  0x000000000001689a      0x7c1 ../../../lib/usb/libusb.a(usbdevice.o)
 .debug_abbrev  0x000000000001705b      0x1ab ../../../lib/usb/libusb.a(usbdevicefactory.o)
 .debug_abbrev  0x0000000000017206      0x351 ../../../lib/usb/libusb.a(usbendpoint.o)
 .debug_abbrev  0x0000000000017557      0x52c ../../../lib/usb/libusb.a(usbfunction.o)
 .debug_abbrev  0x0000000000017a83      0x52f ../../../lib/usb/libusb.a(usbgamepadps3.o)
 .debug_abbrev  0x0000000000017fb2      0x631 ../../../lib/usb/libusb.a(usbgamepadps4.o)
 .debug_abbrev  0x00000000000185e3      0x4cb ../../../lib/usb/libusb.a(usbgamepadstandard.o)
 .debug_abbrev  0x0000000000018aae      0x579 ../../../lib/usb/libusb.a(usbgamepadswitchpro.o)
 .debug_abbrev  0x0000000000019027      0x540 ../../../lib/usb/libusb.a(usbgamepadxbox360.o)
 .debug_abbrev  0x0000000000019567      0x531 ../../../lib/usb/libusb.a(usbgamepadxboxone.o)
 .debug_abbrev  0x0000000000019a98      0x579 ../../../lib/usb/libusb.a(usbhiddevice.o)
 .debug_abbrev  0x000000000001a011      0x5bc ../../../lib/usb/libusb.a(usbhostcontroller.o)
 .debug_abbrev  0x000000000001a5cd      0x59b ../../../lib/usb/libusb.a(usbkeyboard.o)
 .debug_abbrev  0x000000000001ab68      0x65c ../../../lib/usb/libusb.a(usbmassdevice.o)
 .debug_abbrev  0x000000000001b1c4      0x64a ../../../lib/usb/libusb.a(usbmidi.o)
 .debug_abbrev  0x000000000001b80e      0x470 ../../../lib/usb/libusb.a(usbmouse.o)
 .debug_abbrev  0x000000000001bc7e      0x561 ../../../lib/usb/libusb.a(usbprinter.o)
 .debug_abbrev  0x000000000001c1df      0x401 ../../../lib/usb/libusb.a(usbrequest.o)
 .debug_abbrev  0x000000000001c5e0      0x6e2 ../../../lib/usb/libusb.a(usbstandardhub.o)
 .debug_abbrev  0x000000000001ccc2      0x498 ../../../lib/usb/libusb.a(xhcicommandmanager.o)
 .debug_abbrev  0x000000000001d15a      0x682 ../../../lib/usb/libusb.a(lan7800.o)
 .debug_abbrev  0x000000000001d7dc      0x6c2 ../../../lib/usb/libusb.a(smsc951x.o)
 .debug_abbrev  0x000000000001de9e      0x5b1 ../../../lib/usb/libusb.a(usbbluetooth.o)
 .debug_abbrev  0x000000000001e44f      0x58b ../../../lib/usb/libusb.a(usbcdcethernet.o)
 .debug_abbrev  0x000000000001e9da      0x401 ../../../lib/usb/libusb.a(usbconfigparser.o)
 .debug_abbrev  0x000000000001eddb      0x542 ../../../lib/usb/libusb.a(usbgamepad.o)
 .debug_abbrev  0x000000000001f31d      0x2b5 ../../../lib/usb/libusb.a(usbstring.o)
 .debug_abbrev  0x000000000001f5d2      0x40a ../../../lib/input/libinput.a(keyboardbehaviour.o)
 .debug_abbrev  0x000000000001f9dc      0x385 ../../../lib/input/libinput.a(keymap.o)
 .debug_abbrev  0x000000000001fd61      0x357 ../../../lib/input/libinput.a(mouse.o)
 .debug_abbrev  0x00000000000200b8      0x36b ../../../lib/input/libinput.a(mousebehaviour.o)
 .debug_abbrev  0x0000000000020423      0x437 ../../../lib/fs/libfs.a(partitionmanager.o)
 .debug_abbrev  0x000000000002085a      0x299 ../../../lib/fs/libfs.a(partition.o)
 .debug_abbrev  0x0000000000020af3      0x3fb ../../../lib/libcircle.a(actled.o)
 .debug_abbrev  0x0000000000020eee      0x339 ../../../lib/libcircle.a(alloc.o)
 .debug_abbrev  0x0000000000021227      0x2fc ../../../lib/libcircle.a(assert.o)
 .debug_abbrev  0x0000000000021523      0x310 ../../../lib/libcircle.a(bcmpropertytags.o)
 .debug_abbrev  0x0000000000021833      0x3f7 ../../../lib/libcircle.a(classallocator.o)
 .debug_abbrev  0x0000000000021c2a      0x2f0 ../../../lib/libcircle.a(debug.o)
 .debug_abbrev  0x0000000000021f1a      0x262 ../../../lib/libcircle.a(device.o)
 .debug_abbrev  0x000000000002217c      0x369 ../../../lib/libcircle.a(devicenameservice.o)
 .debug_abbrev  0x00000000000224e5      0x4b8 ../../../lib/libcircle.a(dmachannel.o)
 .debug_abbrev  0x000000000002299d      0x5d1 ../../../lib/libcircle.a(gpiopin.o)
 .debug_abbrev  0x0000000000022f6e      0x42c ../../../lib/libcircle.a(koptions.o)
 .debug_abbrev  0x000000000002339a      0x507 ../../../lib/libcircle.a(logger.o)
 .debug_abbrev  0x00000000000238a1      0x3fd ../../../lib/libcircle.a(machineinfo.o)
 .debug_abbrev  0x0000000000023c9e      0x1e6 ../../../lib/libcircle.a(ptrarray.o)
 .debug_abbrev  0x0000000000023e84      0x1c2 ../../../lib/libcircle.a(ptrlist.o)
 .debug_abbrev  0x0000000000024046      0x5db ../../../lib/libcircle.a(screen.o)
 .debug_abbrev  0x0000000000024621      0x5e6 ../../../lib/libcircle.a(serial.o)
 .debug_abbrev  0x0000000000024c07      0x491 ../../../lib/libcircle.a(string.o)
 .debug_abbrev  0x0000000000025098      0x3f1 ../../../lib/libcircle.a(sysinit.o)
 .debug_abbrev  0x0000000000025489      0x5e8 ../../../lib/libcircle.a(timer.o)
 .debug_abbrev  0x0000000000025a71      0x12e ../../../lib/libcircle.a(util.o)
 .debug_abbrev  0x0000000000025b9f      0x4a2 ../../../lib/libcircle.a(virtualgpiopin.o)
 .debug_abbrev  0x0000000000026041      0x16b ../../../lib/libcircle.a(chainboot.o)
 .debug_abbrev  0x00000000000261ac      0x2a3 ../../../lib/libcircle.a(macaddress.o)
 .debug_abbrev  0x000000000002644f      0x2bd ../../../lib/libcircle.a(netdevice.o)
 .debug_abbrev  0x000000000002670c      0x2b0 ../../../lib/libcircle.a(new.o)
 .debug_abbrev  0x00000000000269bc      0x478 ../../../lib/libcircle.a(heapallocator.o)
 .debug_abbrev  0x0000000000026e34      0x27d ../../../lib/libcircle.a(pageallocator.o)
 .debug_abbrev  0x00000000000270b1      0x367 ../../../lib/libcircle.a(numberpool.o)
 .debug_abbrev  0x0000000000027418      0x432 ../../../lib/libcircle.a(exceptionhandler.o)
 .debug_abbrev  0x000000000002784a      0x44e ../../../lib/libcircle.a(memory.o)
 .debug_abbrev  0x0000000000027c98      0x279 ../../../lib/libcircle.a(pagetable.o)
 .debug_abbrev  0x0000000000027f11      0x116 ../../../lib/libcircle.a(synchronize.o)
 .debug_abbrev  0x0000000000028027      0x7d9 ../../../lib/libcircle.a(bcm54213.o)
 .debug_abbrev  0x0000000000028800      0x582 ../../../lib/libcircle.a(bcmpciehostbridge.o)
 .debug_abbrev  0x0000000000028d82      0x268 ../../../lib/libcircle.a(bcmrandom200.o)
 .debug_abbrev  0x0000000000028fea      0x508 ../../../lib/libcircle.a(interruptgic.o)
 .debug_abbrev  0x00000000000294f2      0x49f ../../../lib/libcircle.a(dma4channel.o)
 .debug_abbrev  0x0000000000029991      0x45b ../../../lib/libcircle.a(devicetreeblob.o)
 .debug_abbrev  0x0000000000029dec      0x37c ../../../lib/libcircle.a(bcmframebuffer.o)
 .debug_abbrev  0x000000000002a168      0x415 ../../../lib/libcircle.a(bcmmailbox.o)
 .debug_abbrev  0x000000000002a57d      0x1ac ../../../lib/libcircle.a(chargenerator.o)
 .debug_abbrev  0x000000000002a729      0x394 ../../../lib/libcircle.a(gpiomanager.o)
 .debug_abbrev  0x000000000002aabd      0x4b1 /home/olf/projects/circle/gcc-arm-9.2-2019.12-x86_64-arm-none-eabi/bin/../lib/gcc/arm-none-eabi/9.2.1/../../../../arm-none-eabi/lib/thumb/v8-a+simd/hard/libstdc++.a(class_type_info.o)
 .debug_abbrev  0x000000000002af6e      0x28a /home/olf/projects/circle/gcc-arm-9.2-2019.12-x86_64-arm-none-eabi/bin/../lib/gcc/arm-none-eabi/9.2.1/../../../../arm-none-eabi/lib/thumb/v8-a+simd/hard/libstdc++.a(del_ops.o)
 .debug_abbrev  0x000000000002b1f8      0x272 /home/olf/projects/circle/gcc-arm-9.2-2019.12-x86_64-arm-none-eabi/bin/../lib/gcc/arm-none-eabi/9.2.1/../../../../arm-none-eabi/lib/thumb/v8-a+simd/hard/libstdc++.a(del_opv.o)
 .debug_abbrev  0x000000000002b46a      0x454 /home/olf/projects/circle/gcc-arm-9.2-2019.12-x86_64-arm-none-eabi/bin/../lib/gcc/arm-none-eabi/9.2.1/../../../../arm-none-eabi/lib/thumb/v8-a+simd/hard/libstdc++.a(eh_arm.o)
 .debug_abbrev  0x000000000002b8be      0x4f1 /home/olf/projects/circle/gcc-arm-9.2-2019.12-x86_64-arm-none-eabi/bin/../lib/gcc/arm-none-eabi/9.2.1/../../../../arm-none-eabi/lib/thumb/v8-a+simd/hard/libstdc++.a(eh_aux_runtime.o)
 .debug_abbrev  0x000000000002bdaf      0x451 /home/olf/projects/circle/gcc-arm-9.2-2019.12-x86_64-arm-none-eabi/bin/../lib/gcc/arm-none-eabi/9.2.1/../../../../arm-none-eabi/lib/thumb/v8-a+simd/hard/libstdc++.a(eh_exception.o)
 .debug_abbrev  0x000000000002c200      0x493 /home/olf/projects/circle/gcc-arm-9.2-2019.12-x86_64-arm-none-eabi/bin/../lib/gcc/arm-none-eabi/9.2.1/../../../../arm-none-eabi/lib/thumb/v8-a+simd/hard/libstdc++.a(eh_globals.o)
 .debug_abbrev  0x000000000002c693      0x807 /home/olf/projects/circle/gcc-arm-9.2-2019.12-x86_64-arm-none-eabi/bin/../lib/gcc/arm-none-eabi/9.2.1/../../../../arm-none-eabi/lib/thumb/v8-a+simd/hard/libstdc++.a(eh_personality.o)
 .debug_abbrev  0x000000000002ce9a      0x563 /home/olf/projects/circle/gcc-arm-9.2-2019.12-x86_64-arm-none-eabi/bin/../lib/gcc/arm-none-eabi/9.2.1/../../../../arm-none-eabi/lib/thumb/v8-a+simd/hard/libstdc++.a(eh_terminate.o)
 .debug_abbrev  0x000000000002d3fd      0x4f1 /home/olf/projects/circle/gcc-arm-9.2-2019.12-x86_64-arm-none-eabi/bin/../lib/gcc/arm-none-eabi/9.2.1/../../../../arm-none-eabi/lib/thumb/v8-a+simd/hard/libstdc++.a(eh_throw.o)
 .debug_abbrev  0x000000000002d8ee      0x28a /home/olf/projects/circle/gcc-arm-9.2-2019.12-x86_64-arm-none-eabi/bin/../lib/gcc/arm-none-eabi/9.2.1/../../../../arm-none-eabi/lib/thumb/v8-a+simd/hard/libstdc++.a(eh_unex_handler.o)
 .debug_abbrev  0x000000000002db78      0x4ed /home/olf/projects/circle/gcc-arm-9.2-2019.12-x86_64-arm-none-eabi/bin/../lib/gcc/arm-none-eabi/9.2.1/../../../../arm-none-eabi/lib/thumb/v8-a+simd/hard/libstdc++.a(new_op.o)
 .debug_abbrev  0x000000000002e065      0x283 /home/olf/projects/circle/gcc-arm-9.2-2019.12-x86_64-arm-none-eabi/bin/../lib/gcc/arm-none-eabi/9.2.1/../../../../arm-none-eabi/lib/thumb/v8-a+simd/hard/libstdc++.a(new_opv.o)
 .debug_abbrev  0x000000000002e2e8      0x2ef /home/olf/projects/circle/gcc-arm-9.2-2019.12-x86_64-arm-none-eabi/bin/../lib/gcc/arm-none-eabi/9.2.1/../../../../arm-none-eabi/lib/thumb/v8-a+simd/hard/libstdc++.a(pure.o)
 .debug_abbrev  0x000000000002e5d7      0x453 /home/olf/projects/circle/gcc-arm-9.2-2019.12-x86_64-arm-none-eabi/bin/../lib/gcc/arm-none-eabi/9.2.1/../../../../arm-none-eabi/lib/thumb/v8-a+simd/hard/libstdc++.a(si_class_type_info.o)
 .debug_abbrev  0x000000000002ea2a      0x35a /home/olf/projects/circle/gcc-arm-9.2-2019.12-x86_64-arm-none-eabi/bin/../lib/gcc/arm-none-eabi/9.2.1/../../../../arm-none-eabi/lib/thumb/v8-a+simd/hard/libstdc++.a(tinfo.o)
 .debug_abbrev  0x000000000002ed84      0x5e4 /home/olf/projects/circle/gcc-arm-9.2-2019.12-x86_64-arm-none-eabi/bin/../lib/gcc/arm-none-eabi/9.2.1/../../../../arm-none-eabi/lib/thumb/v8-a+simd/hard/libstdc++.a(vmi_class_type_info.o)
 .debug_abbrev  0x000000000002f368      0x510 /home/olf/projects/circle/gcc-arm-9.2-2019.12-x86_64-arm-none-eabi/bin/../lib/gcc/arm-none-eabi/9.2.1/../../../../arm-none-eabi/lib/thumb/v8-a+simd/hard/libstdc++.a(vterminate.o)
 .debug_abbrev  0x000000000002f878      0x336 /home/olf/projects/circle/gcc-arm-9.2-2019.12-x86_64-arm-none-eabi/bin/../lib/gcc/arm-none-eabi/9.2.1/../../../../arm-none-eabi/lib/thumb/v8-a+simd/hard/libstdc++.a(bad_alloc.o)
 .debug_abbrev  0x000000000002fbae      0x318 /home/olf/projects/circle/gcc-arm-9.2-2019.12-x86_64-arm-none-eabi/bin/../lib/gcc/arm-none-eabi/9.2.1/../../../../arm-none-eabi/lib/thumb/v8-a+simd/hard/libstdc++.a(bad_array_new.o)
 .debug_abbrev  0x000000000002fec6      0x1a4 /home/olf/projects/circle/gcc-arm-9.2-2019.12-x86_64-arm-none-eabi/bin/../lib/gcc/arm-none-eabi/9.2.1/../../../../arm-none-eabi/lib/thumb/v8-a+simd/hard/libstdc++.a(bad_cast.o)
 .debug_abbrev  0x000000000003006a      0x1a4 /home/olf/projects/circle/gcc-arm-9.2-2019.12-x86_64-arm-none-eabi/bin/../lib/gcc/arm-none-eabi/9.2.1/../../../../arm-none-eabi/lib/thumb/v8-a+simd/hard/libstdc++.a(bad_typeid.o)
 .debug_abbrev  0x000000000003020e      0x5a4 /home/olf/projects/circle/gcc-arm-9.2-2019.12-x86_64-arm-none-eabi/bin/../lib/gcc/arm-none-eabi/9.2.1/../../../../arm-none-eabi/lib/thumb/v8-a+simd/hard/libstdc++.a(cp-demangle.o)
 .debug_abbrev  0x00000000000307b2      0x429 /home/olf/projects/circle/gcc-arm-9.2-2019.12-x86_64-arm-none-eabi/bin/../lib/gcc/arm-none-eabi/9.2.1/../../../../arm-none-eabi/lib/thumb/v8-a+simd/hard/libstdc++.a(del_op.o)
 .debug_abbrev  0x0000000000030bdb      0x7e3 /home/olf/projects/circle/gcc-arm-9.2-2019.12-x86_64-arm-none-eabi/bin/../lib/gcc/arm-none-eabi/9.2.1/../../../../arm-none-eabi/lib/thumb/v8-a+simd/hard/libstdc++.a(eh_alloc.o)
 .debug_abbrev  0x00000000000313be      0x745 /home/olf/projects/circle/gcc-arm-9.2-2019.12-x86_64-arm-none-eabi/bin/../lib/gcc/arm-none-eabi/9.2.1/../../../../arm-none-eabi/lib/thumb/v8-a+simd/hard/libstdc++.a(eh_call.o)
 .debug_abbrev  0x0000000000031b03      0x5d1 /home/olf/projects/circle/gcc-arm-9.2-2019.12-x86_64-arm-none-eabi/bin/../lib/gcc/arm-none-eabi/9.2.1/../../../../arm-none-eabi/lib/thumb/v8-a+simd/hard/libstdc++.a(eh_catch.o)
 .debug_abbrev  0x00000000000320d4      0x28a /home/olf/projects/circle/gcc-arm-9.2-2019.12-x86_64-arm-none-eabi/bin/../lib/gcc/arm-none-eabi/9.2.1/../../../../arm-none-eabi/lib/thumb/v8-a+simd/hard/libstdc++.a(eh_term_handler.o)
 .debug_abbrev  0x000000000003235e      0x3eb /home/olf/projects/circle/gcc-arm-9.2-2019.12-x86_64-arm-none-eabi/bin/../lib/gcc/arm-none-eabi/9.2.1/../../../../arm-none-eabi/lib/thumb/v8-a+simd/hard/libstdc++.a(eh_type.o)
 .debug_abbrev  0x0000000000032749      0x2d9 /home/olf/projects/circle/gcc-arm-9.2-2019.12-x86_64-arm-none-eabi/bin/../lib/gcc/arm-none-eabi/9.2.1/../../../../arm-none-eabi/lib/thumb/v8-a+simd/hard/libstdc++.a(new_handler.o)
 .debug_abbrev  0x0000000000032a22       0x14 /home/olf/projects/circle/gcc-arm-9.2-2019.12-x86_64-arm-none-eabi/bin/../lib/gcc/arm-none-eabi/9.2.1/thumb/v8-a+simd/hard/libgcc.a(_aeabi_ldivmod.o)
 .debug_abbrev  0x0000000000032a36       0x14 /home/olf/projects/circle/gcc-arm-9.2-2019.12-x86_64-arm-none-eabi/bin/../lib/gcc/arm-none-eabi/9.2.1/thumb/v8-a+simd/hard/libgcc.a(_aeabi_uldivmod.o)
 .debug_abbrev  0x0000000000032a4a      0x1cb /home/olf/projects/circle/gcc-arm-9.2-2019.12-x86_64-arm-none-eabi/bin/../lib/gcc/arm-none-eabi/9.2.1/thumb/v8-a+simd/hard/libgcc.a(_udivmoddi4.o)
 .debug_abbrev  0x0000000000032c15      0x468 /home/olf/projects/circle/gcc-arm-9.2-2019.12-x86_64-arm-none-eabi/bin/../lib/gcc/arm-none-eabi/9.2.1/thumb/v8-a+simd/hard/libgcc.a(unwind-arm.o)
 .debug_abbrev  0x000000000003307d       0x14 /home/olf/projects/circle/gcc-arm-9.2-2019.12-x86_64-arm-none-eabi/bin/../lib/gcc/arm-none-eabi/9.2.1/thumb/v8-a+simd/hard/libgcc.a(libunwind.o)
 .debug_abbrev  0x0000000000033091      0x2c7 /home/olf/projects/circle/gcc-arm-9.2-2019.12-x86_64-arm-none-eabi/bin/../lib/gcc/arm-none-eabi/9.2.1/thumb/v8-a+simd/hard/libgcc.a(pr-support.o)
 .debug_abbrev  0x0000000000033358       0x14 /home/olf/projects/circle/gcc-arm-9.2-2019.12-x86_64-arm-none-eabi/bin/../lib/gcc/arm-none-eabi/9.2.1/thumb/v8-a+simd/hard/libgcc.a(_dvmd_tls.o)

.debug_loc      0x0000000000000000    0x9fce7
 .debug_loc     0x0000000000000000       0x22 main.o
 .debug_loc     0x0000000000000022      0x249 kernel.o
 .debug_loc     0x000000000000026b      0x178 ../../../addon/wlan/hostap/wpa_supplicant/libwpa_supplicant.a(wpasupplicant.o)
 .debug_loc     0x00000000000003e3      0x59b ../../../addon/wlan/hostap/wpa_supplicant/libwpa_supplicant.a(eloop_circle.o)
 .debug_loc     0x000000000000097e      0x995 ../../../addon/wlan/hostap/wpa_supplicant/libwpa_supplicant.a(os_circle.o)
 .debug_loc     0x0000000000001313       0xaf ../../../addon/wlan/hostap/wpa_supplicant/libwpa_supplicant.a(main_circle.o)
 .debug_loc     0x00000000000013c2     0x40fd ../../../addon/wlan/hostap/wpa_supplicant/libwpa_supplicant.a(wpa_supplicant.o)
 .debug_loc     0x00000000000054bf     0x23c5 ../../../addon/wlan/hostap/wpa_supplicant/libwpa_supplicant.a(wpas_glue.o)
 .debug_loc     0x0000000000007884     0x159d ../../../addon/wlan/hostap/wpa_supplicant/libwpa_supplicant.a(driver_circle.o)
 .debug_loc     0x0000000000008e21      0x71f ../../../addon/wlan/hostap/wpa_supplicant/libwpa_supplicant.a(scan_helpers.o)
 .debug_loc     0x0000000000009540     0x205b ../../../addon/wlan/hostap/wpa_supplicant/libwpa_supplicant.a(eapol_supp_sm.o)
 .debug_loc     0x000000000000b59b     0x35ba ../../../addon/wlan/hostap/wpa_supplicant/libwpa_supplicant.a(eap.o)
 .debug_loc     0x000000000000eb55      0x605 ../../../addon/wlan/hostap/wpa_supplicant/libwpa_supplicant.a(eap_methods.o)
 .debug_loc     0x000000000000f15a      0x7a1 ../../../addon/wlan/hostap/wpa_supplicant/libwpa_supplicant.a(l2_packet_circle.o)
 .debug_loc     0x000000000000f8fb      0xd0a ../../../addon/wlan/hostap/wpa_supplicant/libwpa_supplicant.a(pmksa_cache.o)
 .debug_loc     0x0000000000010605      0xd55 ../../../addon/wlan/hostap/wpa_supplicant/libwpa_supplicant.a(preauth.o)
 .debug_loc     0x000000000001135a     0x4c4b ../../../addon/wlan/hostap/wpa_supplicant/libwpa_supplicant.a(wpa.o)
 .debug_loc     0x0000000000015fa5     0x109b ../../../addon/wlan/hostap/wpa_supplicant/libwpa_supplicant.a(wpa_ie.o)
 .debug_loc     0x0000000000017040      0xd65 ../../../addon/wlan/hostap/wpa_supplicant/libwpa_supplicant.a(common.o)
 .debug_loc     0x0000000000017da5      0xc45 ../../../addon/wlan/hostap/wpa_supplicant/libwpa_supplicant.a(wpa_debug.o)
 .debug_loc     0x00000000000189ea      0xf04 ../../../addon/wlan/hostap/wpa_supplicant/libwpa_supplicant.a(wpabuf.o)
 .debug_loc     0x00000000000198ee      0x2a9 ../../../addon/wlan/hostap/wpa_supplicant/libwpa_supplicant.a(blacklist.o)
 .debug_loc     0x0000000000019b97     0x4367 ../../../addon/wlan/hostap/wpa_supplicant/libwpa_supplicant.a(config.o)
 .debug_loc     0x000000000001defe     0x28cc ../../../addon/wlan/hostap/wpa_supplicant/libwpa_supplicant.a(config_file_circle.o)
 .debug_loc     0x00000000000207ca     0x2439 ../../../addon/wlan/hostap/wpa_supplicant/libwpa_supplicant.a(events.o)
 .debug_loc     0x0000000000022c03       0x4a ../../../addon/wlan/hostap/wpa_supplicant/libwpa_supplicant.a(notify.o)
 .debug_loc     0x0000000000022c4d      0xb33 ../../../addon/wlan/hostap/wpa_supplicant/libwpa_supplicant.a(scan.o)
 .debug_loc     0x0000000000023780      0x73d ../../../addon/wlan/hostap/wpa_supplicant/libwpa_supplicant.a(wpa_common.o)
 .debug_loc     0x0000000000023ebd      0x1ee ../../../addon/wlan/hostap/wpa_supplicant/libwpa_supplicant.a(aes-unwrap.o)
 .debug_loc     0x00000000000240ab      0xd3e ../../../addon/wlan/hostap/wpa_supplicant/libwpa_supplicant.a(md5-internal.o)
 .debug_loc     0x0000000000024de9      0x1f1 ../../../addon/wlan/hostap/wpa_supplicant/libwpa_supplicant.a(md5.o)
 .debug_loc     0x0000000000024fda      0x327 ../../../addon/wlan/hostap/wpa_supplicant/libwpa_supplicant.a(rc4.o)
 .debug_loc     0x0000000000025301      0x24c ../../../addon/wlan/hostap/wpa_supplicant/libwpa_supplicant.a(sha1-pbkdf2.o)
 .debug_loc     0x000000000002554d      0x3bf ../../../addon/wlan/hostap/wpa_supplicant/libwpa_supplicant.a(sha1.o)
 .debug_loc     0x000000000002590c       0x25 ../../../addon/wlan/hostap/wpa_supplicant/libwpa_supplicant.a(tls_none.o)
 .debug_loc     0x0000000000025931      0x82e ../../../addon/wlan/hostap/wpa_supplicant/libwpa_supplicant.a(eap_common.o)
 .debug_loc     0x000000000002615f      0x673 ../../../addon/wlan/hostap/wpa_supplicant/libwpa_supplicant.a(base64.o)
 .debug_loc     0x00000000000267d2      0x662 ../../../addon/wlan/hostap/wpa_supplicant/libwpa_supplicant.a(aes-internal-dec.o)
 .debug_loc     0x0000000000026e34       0xd0 ../../../addon/wlan/hostap/wpa_supplicant/libwpa_supplicant.a(aes-internal.o)
 .debug_loc     0x0000000000026f04     0x16b4 ../../../addon/wlan/hostap/wpa_supplicant/libwpa_supplicant.a(sha1-internal.o)
 .debug_loc     0x00000000000285b8      0xbb0 ../../../addon/wlan/libwlan.a(bcm4343.o)
 .debug_loc     0x0000000000029168     0x5342 ../../../addon/wlan/libwlan.a(ether4330.o)
 .debug_loc     0x000000000002e4aa     0x1170 ../../../addon/wlan/libwlan.a(emmc.o)
 .debug_loc     0x000000000002f61a      0x7d0 ../../../addon/wlan/libwlan.a(p9arch.o)
 .debug_loc     0x000000000002fdea      0x3b4 ../../../addon/wlan/libwlan.a(p9chan.o)
 .debug_loc     0x000000000003019e      0x289 ../../../addon/wlan/libwlan.a(p9cmd.o)
 .debug_loc     0x0000000000030427      0x12c ../../../addon/wlan/libwlan.a(p9error.o)
 .debug_loc     0x0000000000030553      0x537 ../../../addon/wlan/libwlan.a(p9ether.o)
 .debug_loc     0x0000000000030a8a      0x45f ../../../addon/wlan/libwlan.a(p9proc.o)
 .debug_loc     0x0000000000030ee9      0x40b ../../../addon/wlan/libwlan.a(p9util.o)
 .debug_loc     0x00000000000312f4     0xc159 ../../../addon/fatfs/libfatfs.a(ff.o)
 .debug_loc     0x000000000003d44d      0x69e ../../../addon/fatfs/libfatfs.a(diskio.o)
 .debug_loc     0x000000000003daeb      0x51d ../../../addon/fatfs/libfatfs.a(ffsystem.o)
 .debug_loc     0x000000000003e008      0x59e ../../../addon/fatfs/libfatfs.a(ffunicode.o)
 .debug_loc     0x000000000003e5a6     0x3535 ../../../addon/SDCard/libsdcard.a(emmc.o)
 .debug_loc     0x0000000000041adb      0x2e5 ../../../lib/net/libnet.a(netsubsystem.o)
 .debug_loc     0x0000000000041dc0       0xf3 ../../../lib/net/libnet.a(nettask.o)
 .debug_loc     0x0000000000041eb3     0x13ab ../../../lib/net/libnet.a(transportlayer.o)
 .debug_loc     0x000000000004325e      0xd34 ../../../lib/net/libnet.a(networklayer.o)
 .debug_loc     0x0000000000043f92      0xbed ../../../lib/net/libnet.a(linklayer.o)
 .debug_loc     0x0000000000044b7f      0x355 ../../../lib/net/libnet.a(netdevlayer.o)
 .debug_loc     0x0000000000044ed4      0x14a ../../../lib/net/libnet.a(phytask.o)
 .debug_loc     0x000000000004501e     0x139a ../../../lib/net/libnet.a(arphandler.o)
 .debug_loc     0x00000000000463b8      0xb40 ../../../lib/net/libnet.a(icmphandler.o)
 .debug_loc     0x0000000000046ef8      0x3dc ../../../lib/net/libnet.a(routecache.o)
 .debug_loc     0x00000000000472d4      0x268 ../../../lib/net/libnet.a(netconnection.o)
 .debug_loc     0x000000000004753c     0x10fb ../../../lib/net/libnet.a(udpconnection.o)
 .debug_loc     0x0000000000048637     0x275b ../../../lib/net/libnet.a(tcpconnection.o)
 .debug_loc     0x000000000004ad92      0x5c0 ../../../lib/net/libnet.a(retransmissionqueue.o)
 .debug_loc     0x000000000004b352      0x61d ../../../lib/net/libnet.a(retranstimeoutcalc.o)
 .debug_loc     0x000000000004b96f      0x7bf ../../../lib/net/libnet.a(tcprejector.o)
 .debug_loc     0x000000000004c12e      0x4b9 ../../../lib/net/libnet.a(netconfig.o)
 .debug_loc     0x000000000004c5e7      0xa8d ../../../lib/net/libnet.a(ipaddress.o)
 .debug_loc     0x000000000004d074      0x5a9 ../../../lib/net/libnet.a(netqueue.o)
 .debug_loc     0x000000000004d61d      0x7a9 ../../../lib/net/libnet.a(checksumcalculator.o)
 .debug_loc     0x000000000004ddc6      0xcaa ../../../lib/net/libnet.a(dhcpclient.o)
 .debug_loc     0x000000000004ea70      0x226 ../../../lib/net/libnet.a(ntpdaemon.o)
 .debug_loc     0x000000000004ec96      0xf1f ../../../lib/net/libnet.a(socket.o)
 .debug_loc     0x000000000004fbb5      0x6cb ../../../lib/net/libnet.a(dnsclient.o)
 .debug_loc     0x0000000000050280      0x201 ../../../lib/net/libnet.a(ntpclient.o)
 .debug_loc     0x0000000000050481      0x39a ../../../lib/net/libnet.a(netsocket.o)
 .debug_loc     0x000000000005081b      0x2d5 ../../../lib/sched/libsched.a(task.o)
 .debug_loc     0x0000000000050af0      0xa1e ../../../lib/sched/libsched.a(scheduler.o)
 .debug_loc     0x000000000005150e      0x109 ../../../lib/sched/libsched.a(synchronizationevent.o)
 .debug_loc     0x0000000000051617      0xb94 ../../../lib/usb/libusb.a(xhcidevice.o)
 .debug_loc     0x00000000000521ab     0x1510 ../../../lib/usb/libusb.a(xhciendpoint.o)
 .debug_loc     0x00000000000536bb      0x295 ../../../lib/usb/libusb.a(xhcieventmanager.o)
 .debug_loc     0x0000000000053950     0x1138 ../../../lib/usb/libusb.a(xhcimmiospace.o)
 .debug_loc     0x0000000000054a88      0x5c2 ../../../lib/usb/libusb.a(xhciring.o)
 .debug_loc     0x000000000005504a      0x3e5 ../../../lib/usb/libusb.a(xhciroothub.o)
 .debug_loc     0x000000000005542f      0xa99 ../../../lib/usb/libusb.a(xhcirootport.o)
 .debug_loc     0x0000000000055ec8      0x876 ../../../lib/usb/libusb.a(xhcisharedmemallocator.o)
 .debug_loc     0x000000000005673e      0x4b3 ../../../lib/usb/libusb.a(xhcislotmanager.o)
 .debug_loc     0x0000000000056bf1      0x9f7 ../../../lib/usb/libusb.a(xhciusbdevice.o)
 .debug_loc     0x00000000000575e8     0x100d ../../../lib/usb/libusb.a(usbdevice.o)
 .debug_loc     0x00000000000585f5      0x384 ../../../lib/usb/libusb.a(usbdevicefactory.o)
 .debug_loc     0x0000000000058979      0x537 ../../../lib/usb/libusb.a(usbendpoint.o)
 .debug_loc     0x0000000000058eb0      0x81d ../../../lib/usb/libusb.a(usbfunction.o)
 .debug_loc     0x00000000000596cd      0x58a ../../../lib/usb/libusb.a(usbgamepadps3.o)
 .debug_loc     0x0000000000059c57      0x812 ../../../lib/usb/libusb.a(usbgamepadps4.o)
 .debug_loc     0x000000000005a469      0xe39 ../../../lib/usb/libusb.a(usbgamepadstandard.o)
 .debug_loc     0x000000000005b2a2      0x449 ../../../lib/usb/libusb.a(usbgamepadswitchpro.o)
 .debug_loc     0x000000000005b6eb      0x611 ../../../lib/usb/libusb.a(usbgamepadxbox360.o)
 .debug_loc     0x000000000005bcfc      0x4f1 ../../../lib/usb/libusb.a(usbgamepadxboxone.o)
 .debug_loc     0x000000000005c1ed      0xc94 ../../../lib/usb/libusb.a(usbhiddevice.o)
 .debug_loc     0x000000000005ce81      0xc15 ../../../lib/usb/libusb.a(usbhostcontroller.o)
 .debug_loc     0x000000000005da96      0x6c4 ../../../lib/usb/libusb.a(usbkeyboard.o)
 .debug_loc     0x000000000005e15a      0xde0 ../../../lib/usb/libusb.a(usbmassdevice.o)
 .debug_loc     0x000000000005ef3a      0xaa2 ../../../lib/usb/libusb.a(usbmidi.o)
 .debug_loc     0x000000000005f9dc      0x2bf ../../../lib/usb/libusb.a(usbmouse.o)
 .debug_loc     0x000000000005fc9b      0x3ab ../../../lib/usb/libusb.a(usbprinter.o)
 .debug_loc     0x0000000000060046      0x6b2 ../../../lib/usb/libusb.a(usbrequest.o)
 .debug_loc     0x00000000000606f8      0xc16 ../../../lib/usb/libusb.a(usbstandardhub.o)
 .debug_loc     0x000000000006130e      0xa35 ../../../lib/usb/libusb.a(xhcicommandmanager.o)
 .debug_loc     0x0000000000061d43      0xef8 ../../../lib/usb/libusb.a(lan7800.o)
 .debug_loc     0x0000000000062c3b      0xbee ../../../lib/usb/libusb.a(smsc951x.o)
 .debug_loc     0x0000000000063829      0x66d ../../../lib/usb/libusb.a(usbbluetooth.o)
 .debug_loc     0x0000000000063e96      0x96c ../../../lib/usb/libusb.a(usbcdcethernet.o)
 .debug_loc     0x0000000000064802      0x78d ../../../lib/usb/libusb.a(usbconfigparser.o)
 .debug_loc     0x0000000000064f8f      0x3e3 ../../../lib/usb/libusb.a(usbgamepad.o)
 .debug_loc     0x0000000000065372      0x463 ../../../lib/usb/libusb.a(usbstring.o)
 .debug_loc     0x00000000000657d5      0x5e2 ../../../lib/input/libinput.a(keyboardbehaviour.o)
 .debug_loc     0x0000000000065db7      0x611 ../../../lib/input/libinput.a(keymap.o)
 .debug_loc     0x00000000000663c8      0x40e ../../../lib/input/libinput.a(mouse.o)
 .debug_loc     0x00000000000667d6      0x7a2 ../../../lib/input/libinput.a(mousebehaviour.o)
 .debug_loc     0x0000000000066f78      0x1f5 ../../../lib/fs/libfs.a(partitionmanager.o)
 .debug_loc     0x000000000006716d      0x4b9 ../../../lib/fs/libfs.a(partition.o)
 .debug_loc     0x0000000000067626      0x2b8 ../../../lib/libcircle.a(actled.o)
 .debug_loc     0x00000000000678de      0x39d ../../../lib/libcircle.a(alloc.o)
 .debug_loc     0x0000000000067c7b       0x8b ../../../lib/libcircle.a(assert.o)
 .debug_loc     0x0000000000067d06      0x4bc ../../../lib/libcircle.a(bcmpropertytags.o)
 .debug_loc     0x00000000000681c2      0x5ef ../../../lib/libcircle.a(classallocator.o)
 .debug_loc     0x00000000000687b1      0x19b ../../../lib/libcircle.a(debug.o)
 .debug_loc     0x000000000006894c       0xef ../../../lib/libcircle.a(device.o)
 .debug_loc     0x0000000000068a3b      0x950 ../../../lib/libcircle.a(devicenameservice.o)
 .debug_loc     0x000000000006938b     0x1abd ../../../lib/libcircle.a(dmachannel.o)
 .debug_loc     0x000000000006ae48     0x1a78 ../../../lib/libcircle.a(gpiopin.o)
 .debug_loc     0x000000000006c8c0      0x5f7 ../../../lib/libcircle.a(koptions.o)
 .debug_loc     0x000000000006ceb7      0xbbb ../../../lib/libcircle.a(logger.o)
 .debug_loc     0x000000000006da72      0x93e ../../../lib/libcircle.a(machineinfo.o)
 .debug_loc     0x000000000006e3b0      0x5ce ../../../lib/libcircle.a(ptrarray.o)
 .debug_loc     0x000000000006e97e      0x575 ../../../lib/libcircle.a(ptrlist.o)
 .debug_loc     0x000000000006eef3     0x1e23 ../../../lib/libcircle.a(screen.o)
 .debug_loc     0x0000000000070d16     0x1a01 ../../../lib/libcircle.a(serial.o)
 .debug_loc     0x0000000000072717     0x31d8 ../../../lib/libcircle.a(string.o)
 .debug_loc     0x00000000000758ef      0x150 ../../../lib/libcircle.a(sysinit.o)
 .debug_loc     0x0000000000075a3f     0x16ca ../../../lib/libcircle.a(timer.o)
 .debug_loc     0x0000000000077109      0x189 ../../../lib/libcircle.a(util.o)
 .debug_loc     0x0000000000077292      0x41a ../../../lib/libcircle.a(virtualgpiopin.o)
 .debug_loc     0x00000000000776ac      0x176 ../../../lib/libcircle.a(chainboot.o)
 .debug_loc     0x0000000000077822      0x5c7 ../../../lib/libcircle.a(macaddress.o)
 .debug_loc     0x0000000000077de9      0x112 ../../../lib/libcircle.a(netdevice.o)
 .debug_loc     0x0000000000077efb      0x25c ../../../lib/libcircle.a(new.o)
 .debug_loc     0x0000000000078157      0x6d9 ../../../lib/libcircle.a(heapallocator.o)
 .debug_loc     0x0000000000078830      0x316 ../../../lib/libcircle.a(pageallocator.o)
 .debug_loc     0x0000000000078b46      0x36f ../../../lib/libcircle.a(numberpool.o)
 .debug_loc     0x0000000000078eb5      0x32b ../../../lib/libcircle.a(exceptionhandler.o)
 .debug_loc     0x00000000000791e0      0x331 ../../../lib/libcircle.a(memory.o)
 .debug_loc     0x0000000000079511      0x265 ../../../lib/libcircle.a(pagetable.o)
 .debug_loc     0x0000000000079776       0xf3 ../../../lib/libcircle.a(synchronize.o)
 .debug_loc     0x0000000000079869     0x61ef ../../../lib/libcircle.a(bcm54213.o)
 .debug_loc     0x000000000007fa58     0x3c47 ../../../lib/libcircle.a(bcmpciehostbridge.o)
 .debug_loc     0x000000000008369f      0x249 ../../../lib/libcircle.a(bcmrandom200.o)
 .debug_loc     0x00000000000838e8     0x10b7 ../../../lib/libcircle.a(interruptgic.o)
 .debug_loc     0x000000000008499f     0x1abb ../../../lib/libcircle.a(dma4channel.o)
 .debug_loc     0x000000000008645a      0xaff ../../../lib/libcircle.a(devicetreeblob.o)
 .debug_loc     0x0000000000086f59      0x4bd ../../../lib/libcircle.a(bcmframebuffer.o)
 .debug_loc     0x0000000000087416      0x446 ../../../lib/libcircle.a(bcmmailbox.o)
 .debug_loc     0x000000000008785c      0x1c6 ../../../lib/libcircle.a(chargenerator.o)
 .debug_loc     0x0000000000087a22      0x565 ../../../lib/libcircle.a(gpiomanager.o)
 .debug_loc     0x0000000000087f87      0x4eb /home/olf/projects/circle/gcc-arm-9.2-2019.12-x86_64-arm-none-eabi/bin/../lib/gcc/arm-none-eabi/9.2.1/../../../../arm-none-eabi/lib/thumb/v8-a+simd/hard/libstdc++.a(class_type_info.o)
 .debug_loc     0x0000000000088472       0x25 /home/olf/projects/circle/gcc-arm-9.2-2019.12-x86_64-arm-none-eabi/bin/../lib/gcc/arm-none-eabi/9.2.1/../../../../arm-none-eabi/lib/thumb/v8-a+simd/hard/libstdc++.a(del_ops.o)
 .debug_loc     0x0000000000088497       0x25 /home/olf/projects/circle/gcc-arm-9.2-2019.12-x86_64-arm-none-eabi/bin/../lib/gcc/arm-none-eabi/9.2.1/../../../../arm-none-eabi/lib/thumb/v8-a+simd/hard/libstdc++.a(del_opv.o)
 .debug_loc     0x00000000000884bc      0x4b8 /home/olf/projects/circle/gcc-arm-9.2-2019.12-x86_64-arm-none-eabi/bin/../lib/gcc/arm-none-eabi/9.2.1/../../../../arm-none-eabi/lib/thumb/v8-a+simd/hard/libstdc++.a(eh_arm.o)
 .debug_loc     0x0000000000088974       0x93 /home/olf/projects/circle/gcc-arm-9.2-2019.12-x86_64-arm-none-eabi/bin/../lib/gcc/arm-none-eabi/9.2.1/../../../../arm-none-eabi/lib/thumb/v8-a+simd/hard/libstdc++.a(eh_aux_runtime.o)
 .debug_loc     0x0000000000088a07      0x150 /home/olf/projects/circle/gcc-arm-9.2-2019.12-x86_64-arm-none-eabi/bin/../lib/gcc/arm-none-eabi/9.2.1/../../../../arm-none-eabi/lib/thumb/v8-a+simd/hard/libstdc++.a(eh_exception.o)
 .debug_loc     0x0000000000088b57     0x199f /home/olf/projects/circle/gcc-arm-9.2-2019.12-x86_64-arm-none-eabi/bin/../lib/gcc/arm-none-eabi/9.2.1/../../../../arm-none-eabi/lib/thumb/v8-a+simd/hard/libstdc++.a(eh_personality.o)
 .debug_loc     0x000000000008a4f6       0xfc /home/olf/projects/circle/gcc-arm-9.2-2019.12-x86_64-arm-none-eabi/bin/../lib/gcc/arm-none-eabi/9.2.1/../../../../arm-none-eabi/lib/thumb/v8-a+simd/hard/libstdc++.a(eh_terminate.o)
 .debug_loc     0x000000000008a5f2      0x3a1 /home/olf/projects/circle/gcc-arm-9.2-2019.12-x86_64-arm-none-eabi/bin/../lib/gcc/arm-none-eabi/9.2.1/../../../../arm-none-eabi/lib/thumb/v8-a+simd/hard/libstdc++.a(eh_throw.o)
 .debug_loc     0x000000000008a993       0x93 /home/olf/projects/circle/gcc-arm-9.2-2019.12-x86_64-arm-none-eabi/bin/../lib/gcc/arm-none-eabi/9.2.1/../../../../arm-none-eabi/lib/thumb/v8-a+simd/hard/libstdc++.a(new_op.o)
 .debug_loc     0x000000000008aa26       0x25 /home/olf/projects/circle/gcc-arm-9.2-2019.12-x86_64-arm-none-eabi/bin/../lib/gcc/arm-none-eabi/9.2.1/../../../../arm-none-eabi/lib/thumb/v8-a+simd/hard/libstdc++.a(new_opv.o)
 .debug_loc     0x000000000008aa4b      0x6b1 /home/olf/projects/circle/gcc-arm-9.2-2019.12-x86_64-arm-none-eabi/bin/../lib/gcc/arm-none-eabi/9.2.1/../../../../arm-none-eabi/lib/thumb/v8-a+simd/hard/libstdc++.a(si_class_type_info.o)
 .debug_loc     0x000000000008b0fc      0x157 /home/olf/projects/circle/gcc-arm-9.2-2019.12-x86_64-arm-none-eabi/bin/../lib/gcc/arm-none-eabi/9.2.1/../../../../arm-none-eabi/lib/thumb/v8-a+simd/hard/libstdc++.a(tinfo.o)
 .debug_loc     0x000000000008b253     0x168f /home/olf/projects/circle/gcc-arm-9.2-2019.12-x86_64-arm-none-eabi/bin/../lib/gcc/arm-none-eabi/9.2.1/../../../../arm-none-eabi/lib/thumb/v8-a+simd/hard/libstdc++.a(vmi_class_type_info.o)
 .debug_loc     0x000000000008c8e2       0xe7 /home/olf/projects/circle/gcc-arm-9.2-2019.12-x86_64-arm-none-eabi/bin/../lib/gcc/arm-none-eabi/9.2.1/../../../../arm-none-eabi/lib/thumb/v8-a+simd/hard/libstdc++.a(vterminate.o)
 .debug_loc     0x000000000008c9c9       0xa5 /home/olf/projects/circle/gcc-arm-9.2-2019.12-x86_64-arm-none-eabi/bin/../lib/gcc/arm-none-eabi/9.2.1/../../../../arm-none-eabi/lib/thumb/v8-a+simd/hard/libstdc++.a(bad_alloc.o)
 .debug_loc     0x000000000008ca6e       0xa5 /home/olf/projects/circle/gcc-arm-9.2-2019.12-x86_64-arm-none-eabi/bin/../lib/gcc/arm-none-eabi/9.2.1/../../../../arm-none-eabi/lib/thumb/v8-a+simd/hard/libstdc++.a(bad_array_new.o)
 .debug_loc     0x000000000008cb13       0xa5 /home/olf/projects/circle/gcc-arm-9.2-2019.12-x86_64-arm-none-eabi/bin/../lib/gcc/arm-none-eabi/9.2.1/../../../../arm-none-eabi/lib/thumb/v8-a+simd/hard/libstdc++.a(bad_cast.o)
 .debug_loc     0x000000000008cbb8       0xa5 /home/olf/projects/circle/gcc-arm-9.2-2019.12-x86_64-arm-none-eabi/bin/../lib/gcc/arm-none-eabi/9.2.1/../../../../arm-none-eabi/lib/thumb/v8-a+simd/hard/libstdc++.a(bad_typeid.o)
 .debug_loc     0x000000000008cc5d     0xee17 /home/olf/projects/circle/gcc-arm-9.2-2019.12-x86_64-arm-none-eabi/bin/../lib/gcc/arm-none-eabi/9.2.1/../../../../arm-none-eabi/lib/thumb/v8-a+simd/hard/libstdc++.a(cp-demangle.o)
 .debug_loc     0x000000000009ba74       0x25 /home/olf/projects/circle/gcc-arm-9.2-2019.12-x86_64-arm-none-eabi/bin/../lib/gcc/arm-none-eabi/9.2.1/../../../../arm-none-eabi/lib/thumb/v8-a+simd/hard/libstdc++.a(del_op.o)
 .debug_loc     0x000000000009ba99      0x5dd /home/olf/projects/circle/gcc-arm-9.2-2019.12-x86_64-arm-none-eabi/bin/../lib/gcc/arm-none-eabi/9.2.1/../../../../arm-none-eabi/lib/thumb/v8-a+simd/hard/libstdc++.a(eh_alloc.o)
 .debug_loc     0x000000000009c076      0x457 /home/olf/projects/circle/gcc-arm-9.2-2019.12-x86_64-arm-none-eabi/bin/../lib/gcc/arm-none-eabi/9.2.1/../../../../arm-none-eabi/lib/thumb/v8-a+simd/hard/libstdc++.a(eh_call.o)
 .debug_loc     0x000000000009c4cd      0x32a /home/olf/projects/circle/gcc-arm-9.2-2019.12-x86_64-arm-none-eabi/bin/../lib/gcc/arm-none-eabi/9.2.1/../../../../arm-none-eabi/lib/thumb/v8-a+simd/hard/libstdc++.a(eh_catch.o)
 .debug_loc     0x000000000009c7f7       0x86 /home/olf/projects/circle/gcc-arm-9.2-2019.12-x86_64-arm-none-eabi/bin/../lib/gcc/arm-none-eabi/9.2.1/../../../../arm-none-eabi/lib/thumb/v8-a+simd/hard/libstdc++.a(eh_type.o)
 .debug_loc     0x000000000009c87d       0x37 /home/olf/projects/circle/gcc-arm-9.2-2019.12-x86_64-arm-none-eabi/bin/../lib/gcc/arm-none-eabi/9.2.1/../../../../arm-none-eabi/lib/thumb/v8-a+simd/hard/libstdc++.a(new_handler.o)
 .debug_loc     0x000000000009c8b4      0xf82 /home/olf/projects/circle/gcc-arm-9.2-2019.12-x86_64-arm-none-eabi/bin/../lib/gcc/arm-none-eabi/9.2.1/thumb/v8-a+simd/hard/libgcc.a(_udivmoddi4.o)
 .debug_loc     0x000000000009d836     0x1ee5 /home/olf/projects/circle/gcc-arm-9.2-2019.12-x86_64-arm-none-eabi/bin/../lib/gcc/arm-none-eabi/9.2.1/thumb/v8-a+simd/hard/libgcc.a(unwind-arm.o)
 .debug_loc     0x000000000009f71b      0x5cc /home/olf/projects/circle/gcc-arm-9.2-2019.12-x86_64-arm-none-eabi/bin/../lib/gcc/arm-none-eabi/9.2.1/thumb/v8-a+simd/hard/libgcc.a(pr-support.o)

.debug_aranges  0x0000000000000000     0x21b0
 .debug_aranges
                0x0000000000000000       0x20 main.o
 .debug_aranges
                0x0000000000000020       0x20 kernel.o
 .debug_aranges
                0x0000000000000040       0x20 ../../../addon/wlan/hostap/wpa_supplicant/libwpa_supplicant.a(wpasupplicant.o)
 .debug_aranges
                0x0000000000000060       0x20 ../../../addon/wlan/hostap/wpa_supplicant/libwpa_supplicant.a(eloop_circle.o)
 .debug_aranges
                0x0000000000000080       0x20 ../../../addon/wlan/hostap/wpa_supplicant/libwpa_supplicant.a(os_circle.o)
 .debug_aranges
                0x00000000000000a0       0x20 ../../../addon/wlan/hostap/wpa_supplicant/libwpa_supplicant.a(main_circle.o)
 .debug_aranges
                0x00000000000000c0       0x20 ../../../addon/wlan/hostap/wpa_supplicant/libwpa_supplicant.a(wpa_supplicant.o)
 .debug_aranges
                0x00000000000000e0       0x20 ../../../addon/wlan/hostap/wpa_supplicant/libwpa_supplicant.a(wpas_glue.o)
 .debug_aranges
                0x0000000000000100       0x18 ../../../addon/wlan/hostap/wpa_supplicant/libwpa_supplicant.a(drivers.o)
 .debug_aranges
                0x0000000000000118       0x20 ../../../addon/wlan/hostap/wpa_supplicant/libwpa_supplicant.a(driver_circle.o)
 .debug_aranges
                0x0000000000000138       0x20 ../../../addon/wlan/hostap/wpa_supplicant/libwpa_supplicant.a(scan_helpers.o)
 .debug_aranges
                0x0000000000000158       0x20 ../../../addon/wlan/hostap/wpa_supplicant/libwpa_supplicant.a(eapol_supp_sm.o)
 .debug_aranges
                0x0000000000000178       0x20 ../../../addon/wlan/hostap/wpa_supplicant/libwpa_supplicant.a(eap.o)
 .debug_aranges
                0x0000000000000198       0x20 ../../../addon/wlan/hostap/wpa_supplicant/libwpa_supplicant.a(eap_methods.o)
 .debug_aranges
                0x00000000000001b8       0x20 ../../../addon/wlan/hostap/wpa_supplicant/libwpa_supplicant.a(l2_packet_circle.o)
 .debug_aranges
                0x00000000000001d8       0x20 ../../../addon/wlan/hostap/wpa_supplicant/libwpa_supplicant.a(pmksa_cache.o)
 .debug_aranges
                0x00000000000001f8       0x20 ../../../addon/wlan/hostap/wpa_supplicant/libwpa_supplicant.a(preauth.o)
 .debug_aranges
                0x0000000000000218       0x20 ../../../addon/wlan/hostap/wpa_supplicant/libwpa_supplicant.a(wpa.o)
 .debug_aranges
                0x0000000000000238       0x20 ../../../addon/wlan/hostap/wpa_supplicant/libwpa_supplicant.a(wpa_ie.o)
 .debug_aranges
                0x0000000000000258       0x20 ../../../addon/wlan/hostap/wpa_supplicant/libwpa_supplicant.a(common.o)
 .debug_aranges
                0x0000000000000278       0x20 ../../../addon/wlan/hostap/wpa_supplicant/libwpa_supplicant.a(wpa_debug.o)
 .debug_aranges
                0x0000000000000298       0x20 ../../../addon/wlan/hostap/wpa_supplicant/libwpa_supplicant.a(wpabuf.o)
 .debug_aranges
                0x00000000000002b8       0x20 ../../../addon/wlan/hostap/wpa_supplicant/libwpa_supplicant.a(blacklist.o)
 .debug_aranges
                0x00000000000002d8       0x20 ../../../addon/wlan/hostap/wpa_supplicant/libwpa_supplicant.a(config.o)
 .debug_aranges
                0x00000000000002f8       0x20 ../../../addon/wlan/hostap/wpa_supplicant/libwpa_supplicant.a(config_file_circle.o)
 .debug_aranges
                0x0000000000000318       0x20 ../../../addon/wlan/hostap/wpa_supplicant/libwpa_supplicant.a(events.o)
 .debug_aranges
                0x0000000000000338       0x20 ../../../addon/wlan/hostap/wpa_supplicant/libwpa_supplicant.a(notify.o)
 .debug_aranges
                0x0000000000000358       0x20 ../../../addon/wlan/hostap/wpa_supplicant/libwpa_supplicant.a(scan.o)
 .debug_aranges
                0x0000000000000378       0x20 ../../../addon/wlan/hostap/wpa_supplicant/libwpa_supplicant.a(wpa_common.o)
 .debug_aranges
                0x0000000000000398       0x20 ../../../addon/wlan/hostap/wpa_supplicant/libwpa_supplicant.a(aes-unwrap.o)
 .debug_aranges
                0x00000000000003b8       0x20 ../../../addon/wlan/hostap/wpa_supplicant/libwpa_supplicant.a(md5-internal.o)
 .debug_aranges
                0x00000000000003d8       0x20 ../../../addon/wlan/hostap/wpa_supplicant/libwpa_supplicant.a(md5.o)
 .debug_aranges
                0x00000000000003f8       0x20 ../../../addon/wlan/hostap/wpa_supplicant/libwpa_supplicant.a(rc4.o)
 .debug_aranges
                0x0000000000000418       0x20 ../../../addon/wlan/hostap/wpa_supplicant/libwpa_supplicant.a(sha1-pbkdf2.o)
 .debug_aranges
                0x0000000000000438       0x20 ../../../addon/wlan/hostap/wpa_supplicant/libwpa_supplicant.a(sha1.o)
 .debug_aranges
                0x0000000000000458       0x20 ../../../addon/wlan/hostap/wpa_supplicant/libwpa_supplicant.a(tls_none.o)
 .debug_aranges
                0x0000000000000478       0x20 ../../../addon/wlan/hostap/wpa_supplicant/libwpa_supplicant.a(eap_common.o)
 .debug_aranges
                0x0000000000000498       0x20 ../../../addon/wlan/hostap/wpa_supplicant/libwpa_supplicant.a(base64.o)
 .debug_aranges
                0x00000000000004b8       0x20 ../../../addon/wlan/hostap/wpa_supplicant/libwpa_supplicant.a(aes-internal-dec.o)
 .debug_aranges
                0x00000000000004d8       0x20 ../../../addon/wlan/hostap/wpa_supplicant/libwpa_supplicant.a(aes-internal.o)
 .debug_aranges
                0x00000000000004f8       0x20 ../../../addon/wlan/hostap/wpa_supplicant/libwpa_supplicant.a(sha1-internal.o)
 .debug_aranges
                0x0000000000000518       0x48 ../../../addon/wlan/libwlan.a(bcm4343.o)
 .debug_aranges
                0x0000000000000560       0x20 ../../../addon/wlan/libwlan.a(ether4330.o)
 .debug_aranges
                0x0000000000000580       0x20 ../../../addon/wlan/libwlan.a(emmc.o)
 .debug_aranges
                0x00000000000005a0       0x20 ../../../addon/wlan/libwlan.a(p9arch.o)
 .debug_aranges
                0x00000000000005c0       0x20 ../../../addon/wlan/libwlan.a(p9chan.o)
 .debug_aranges
                0x00000000000005e0       0x20 ../../../addon/wlan/libwlan.a(p9cmd.o)
 .debug_aranges
                0x0000000000000600       0x20 ../../../addon/wlan/libwlan.a(p9error.o)
 .debug_aranges
                0x0000000000000620       0x20 ../../../addon/wlan/libwlan.a(p9ether.o)
 .debug_aranges
                0x0000000000000640       0x38 ../../../addon/wlan/libwlan.a(p9proc.o)
 .debug_aranges
                0x0000000000000678       0x20 ../../../addon/wlan/libwlan.a(p9util.o)
 .debug_aranges
                0x0000000000000698       0x20 ../../../addon/fatfs/libfatfs.a(ff.o)
 .debug_aranges
                0x00000000000006b8       0x20 ../../../addon/fatfs/libfatfs.a(diskio.o)
 .debug_aranges
                0x00000000000006d8       0x20 ../../../addon/fatfs/libfatfs.a(ffsystem.o)
 .debug_aranges
                0x00000000000006f8       0x20 ../../../addon/fatfs/libfatfs.a(ffunicode.o)
 .debug_aranges
                0x0000000000000718       0x20 ../../../addon/SDCard/libsdcard.a(emmc.o)
 .debug_aranges
                0x0000000000000738       0x20 ../../../lib/net/libnet.a(netsubsystem.o)
 .debug_aranges
                0x0000000000000758       0x20 ../../../lib/net/libnet.a(nettask.o)
 .debug_aranges
                0x0000000000000778       0x80 ../../../lib/net/libnet.a(transportlayer.o)
 .debug_aranges
                0x00000000000007f8       0x20 ../../../lib/net/libnet.a(networklayer.o)
 .debug_aranges
                0x0000000000000818       0x20 ../../../lib/net/libnet.a(linklayer.o)
 .debug_aranges
                0x0000000000000838       0x20 ../../../lib/net/libnet.a(netdevlayer.o)
 .debug_aranges
                0x0000000000000858       0x28 ../../../lib/net/libnet.a(phytask.o)
 .debug_aranges
                0x0000000000000880       0x20 ../../../lib/net/libnet.a(arphandler.o)
 .debug_aranges
                0x00000000000008a0       0x20 ../../../lib/net/libnet.a(icmphandler.o)
 .debug_aranges
                0x00000000000008c0       0x20 ../../../lib/net/libnet.a(routecache.o)
 .debug_aranges
                0x00000000000008e0       0x20 ../../../lib/net/libnet.a(netconnection.o)
 .debug_aranges
                0x0000000000000900       0x20 ../../../lib/net/libnet.a(udpconnection.o)
 .debug_aranges
                0x0000000000000920       0x20 ../../../lib/net/libnet.a(tcpconnection.o)
 .debug_aranges
                0x0000000000000940       0x20 ../../../lib/net/libnet.a(retransmissionqueue.o)
 .debug_aranges
                0x0000000000000960       0x20 ../../../lib/net/libnet.a(retranstimeoutcalc.o)
 .debug_aranges
                0x0000000000000980       0x80 ../../../lib/net/libnet.a(tcprejector.o)
 .debug_aranges
                0x0000000000000a00       0x20 ../../../lib/net/libnet.a(netconfig.o)
 .debug_aranges
                0x0000000000000a20       0x20 ../../../lib/net/libnet.a(ipaddress.o)
 .debug_aranges
                0x0000000000000a40       0x20 ../../../lib/net/libnet.a(netqueue.o)
 .debug_aranges
                0x0000000000000a60       0x20 ../../../lib/net/libnet.a(checksumcalculator.o)
 .debug_aranges
                0x0000000000000a80       0x20 ../../../lib/net/libnet.a(dhcpclient.o)
 .debug_aranges
                0x0000000000000aa0       0x20 ../../../lib/net/libnet.a(ntpdaemon.o)
 .debug_aranges
                0x0000000000000ac0       0x20 ../../../lib/net/libnet.a(socket.o)
 .debug_aranges
                0x0000000000000ae0       0x20 ../../../lib/net/libnet.a(dnsclient.o)
 .debug_aranges
                0x0000000000000b00       0x20 ../../../lib/net/libnet.a(ntpclient.o)
 .debug_aranges
                0x0000000000000b20       0x50 ../../../lib/net/libnet.a(netsocket.o)
 .debug_aranges
                0x0000000000000b70       0x20 ../../../lib/sched/libsched.a(task.o)
 .debug_aranges
                0x0000000000000b90       0x20 ../../../lib/sched/libsched.a(scheduler.o)
 .debug_aranges
                0x0000000000000bb0       0x20 ../../../lib/sched/libsched.a(synchronizationevent.o)
 .debug_aranges
                0x0000000000000bd0       0x28 ../../../lib/usb/libusb.a(xhcidevice.o)
 .debug_aranges
                0x0000000000000bf8       0x20 ../../../lib/usb/libusb.a(xhciendpoint.o)
 .debug_aranges
                0x0000000000000c18       0x20 ../../../lib/usb/libusb.a(xhcieventmanager.o)
 .debug_aranges
                0x0000000000000c38       0x20 ../../../lib/usb/libusb.a(xhcimmiospace.o)
 .debug_aranges
                0x0000000000000c58       0x20 ../../../lib/usb/libusb.a(xhciring.o)
 .debug_aranges
                0x0000000000000c78       0x20 ../../../lib/usb/libusb.a(xhciroothub.o)
 .debug_aranges
                0x0000000000000c98       0x20 ../../../lib/usb/libusb.a(xhcirootport.o)
 .debug_aranges
                0x0000000000000cb8       0x20 ../../../lib/usb/libusb.a(xhcisharedmemallocator.o)
 .debug_aranges
                0x0000000000000cd8       0x20 ../../../lib/usb/libusb.a(xhcislotmanager.o)
 .debug_aranges
                0x0000000000000cf8       0x28 ../../../lib/usb/libusb.a(xhciusbdevice.o)
 .debug_aranges
                0x0000000000000d20       0x28 ../../../lib/usb/libusb.a(usbdevice.o)
 .debug_aranges
                0x0000000000000d48       0x20 ../../../lib/usb/libusb.a(usbdevicefactory.o)
 .debug_aranges
                0x0000000000000d68       0x20 ../../../lib/usb/libusb.a(usbendpoint.o)
 .debug_aranges
                0x0000000000000d88       0x28 ../../../lib/usb/libusb.a(usbfunction.o)
 .debug_aranges
                0x0000000000000db0       0x38 ../../../lib/usb/libusb.a(usbgamepadps3.o)
 .debug_aranges
                0x0000000000000de8       0x30 ../../../lib/usb/libusb.a(usbgamepadps4.o)
 .debug_aranges
                0x0000000000000e18       0x48 ../../../lib/usb/libusb.a(usbgamepadstandard.o)
 .debug_aranges
                0x0000000000000e60       0x38 ../../../lib/usb/libusb.a(usbgamepadswitchpro.o)
 .debug_aranges
                0x0000000000000e98       0x38 ../../../lib/usb/libusb.a(usbgamepadxbox360.o)
 .debug_aranges
                0x0000000000000ed0       0x40 ../../../lib/usb/libusb.a(usbgamepadxboxone.o)
 .debug_aranges
                0x0000000000000f10       0x28 ../../../lib/usb/libusb.a(usbhiddevice.o)
 .debug_aranges
                0x0000000000000f38       0x28 ../../../lib/usb/libusb.a(usbhostcontroller.o)
 .debug_aranges
                0x0000000000000f60       0x30 ../../../lib/usb/libusb.a(usbkeyboard.o)
 .debug_aranges
                0x0000000000000f90       0x30 ../../../lib/usb/libusb.a(usbmassdevice.o)
 .debug_aranges
                0x0000000000000fc0       0x30 ../../../lib/usb/libusb.a(usbmidi.o)
 .debug_aranges
                0x0000000000000ff0       0x28 ../../../lib/usb/libusb.a(usbmouse.o)
 .debug_aranges
                0x0000000000001018       0x30 ../../../lib/usb/libusb.a(usbprinter.o)
 .debug_aranges
                0x0000000000001048       0x20 ../../../lib/usb/libusb.a(usbrequest.o)
 .debug_aranges
                0x0000000000001068       0x28 ../../../lib/usb/libusb.a(usbstandardhub.o)
 .debug_aranges
                0x0000000000001090       0x20 ../../../lib/usb/libusb.a(xhcicommandmanager.o)
 .debug_aranges
                0x00000000000010b0       0x40 ../../../lib/usb/libusb.a(lan7800.o)
 .debug_aranges
                0x00000000000010f0       0x40 ../../../lib/usb/libusb.a(smsc951x.o)
 .debug_aranges
                0x0000000000001130       0x30 ../../../lib/usb/libusb.a(usbbluetooth.o)
 .debug_aranges
                0x0000000000001160       0x50 ../../../lib/usb/libusb.a(usbcdcethernet.o)
 .debug_aranges
                0x00000000000011b0       0x20 ../../../lib/usb/libusb.a(usbconfigparser.o)
 .debug_aranges
                0x00000000000011d0       0x50 ../../../lib/usb/libusb.a(usbgamepad.o)
 .debug_aranges
                0x0000000000001220       0x20 ../../../lib/usb/libusb.a(usbstring.o)
 .debug_aranges
                0x0000000000001240       0x20 ../../../lib/input/libinput.a(keyboardbehaviour.o)
 .debug_aranges
                0x0000000000001260       0x20 ../../../lib/input/libinput.a(keymap.o)
 .debug_aranges
                0x0000000000001280       0x28 ../../../lib/input/libinput.a(mouse.o)
 .debug_aranges
                0x00000000000012a8       0x20 ../../../lib/input/libinput.a(mousebehaviour.o)
 .debug_aranges
                0x00000000000012c8       0x20 ../../../lib/fs/libfs.a(partitionmanager.o)
 .debug_aranges
                0x00000000000012e8       0x20 ../../../lib/fs/libfs.a(partition.o)
 .debug_aranges
                0x0000000000001308       0x20 ../../../lib/libcircle.a(actled.o)
 .debug_aranges
                0x0000000000001328       0x20 ../../../lib/libcircle.a(alloc.o)
 .debug_aranges
                0x0000000000001348       0x20 ../../../lib/libcircle.a(assert.o)
 .debug_aranges
                0x0000000000001368       0x20 ../../../lib/libcircle.a(bcmpropertytags.o)
 .debug_aranges
                0x0000000000001388       0x20 ../../../lib/libcircle.a(classallocator.o)
 .debug_aranges
                0x00000000000013a8       0x20 ../../../lib/libcircle.a(debug.o)
 .debug_aranges
                0x00000000000013c8       0x20 ../../../lib/libcircle.a(device.o)
 .debug_aranges
                0x00000000000013e8       0x20 ../../../lib/libcircle.a(devicenameservice.o)
 .debug_aranges
                0x0000000000001408       0x20 ../../../lib/libcircle.a(dmachannel.o)
 .debug_aranges
                0x0000000000001428       0x28 ../../../lib/libcircle.a(gpiopin.o)
 .debug_aranges
                0x0000000000001450       0x20 ../../../lib/libcircle.a(koptions.o)
 .debug_aranges
                0x0000000000001470       0x20 ../../../lib/libcircle.a(logger.o)
 .debug_aranges
                0x0000000000001490       0x20 ../../../lib/libcircle.a(machineinfo.o)
 .debug_aranges
                0x00000000000014b0       0x20 ../../../lib/libcircle.a(ptrarray.o)
 .debug_aranges
                0x00000000000014d0       0x20 ../../../lib/libcircle.a(ptrlist.o)
 .debug_aranges
                0x00000000000014f0       0x20 ../../../lib/libcircle.a(screen.o)
 .debug_aranges
                0x0000000000001510       0x20 ../../../lib/libcircle.a(serial.o)
 .debug_aranges
                0x0000000000001530       0x20 ../../../lib/libcircle.a(string.o)
 .debug_aranges
                0x0000000000001550       0x20 ../../../lib/libcircle.a(sysinit.o)
 .debug_aranges
                0x0000000000001570       0x20 ../../../lib/libcircle.a(timer.o)
 .debug_aranges
                0x0000000000001590       0x20 ../../../lib/libcircle.a(util.o)
 .debug_aranges
                0x00000000000015b0       0x28 ../../../lib/libcircle.a(virtualgpiopin.o)
 .debug_aranges
                0x00000000000015d8       0x20 ../../../lib/libcircle.a(chainboot.o)
 .debug_aranges
                0x00000000000015f8       0x20 ../../../lib/libcircle.a(macaddress.o)
 .debug_aranges
                0x0000000000001618       0x28 ../../../lib/libcircle.a(netdevice.o)
 .debug_aranges
                0x0000000000001640       0x20 ../../../lib/libcircle.a(new.o)
 .debug_aranges
                0x0000000000001660       0x20 ../../../lib/libcircle.a(heapallocator.o)
 .debug_aranges
                0x0000000000001680       0x20 ../../../lib/libcircle.a(pageallocator.o)
 .debug_aranges
                0x00000000000016a0       0x20 ../../../lib/libcircle.a(numberpool.o)
 .debug_aranges
                0x00000000000016c0       0x20 ../../../lib/libcircle.a(exceptionhandler.o)
 .debug_aranges
                0x00000000000016e0       0x20 ../../../lib/libcircle.a(memory.o)
 .debug_aranges
                0x0000000000001700       0x20 ../../../lib/libcircle.a(pagetable.o)
 .debug_aranges
                0x0000000000001720       0x20 ../../../lib/libcircle.a(synchronize.o)
 .debug_aranges
                0x0000000000001740       0x28 ../../../lib/libcircle.a(bcm54213.o)
 .debug_aranges
                0x0000000000001768       0x20 ../../../lib/libcircle.a(bcmpciehostbridge.o)
 .debug_aranges
                0x0000000000001788       0x28 ../../../lib/libcircle.a(bcmrandom200.o)
 .debug_aranges
                0x00000000000017b0       0x20 ../../../lib/libcircle.a(interruptgic.o)
 .debug_aranges
                0x00000000000017d0       0x20 ../../../lib/libcircle.a(dma4channel.o)
 .debug_aranges
                0x00000000000017f0       0x20 ../../../lib/libcircle.a(devicetreeblob.o)
 .debug_aranges
                0x0000000000001810       0x20 ../../../lib/libcircle.a(bcmframebuffer.o)
 .debug_aranges
                0x0000000000001830       0x28 ../../../lib/libcircle.a(bcmmailbox.o)
 .debug_aranges
                0x0000000000001858       0x20 ../../../lib/libcircle.a(chargenerator.o)
 .debug_aranges
                0x0000000000001878       0x20 ../../../lib/libcircle.a(gpiomanager.o)
 .debug_aranges
                0x0000000000001898       0x50 /home/olf/projects/circle/gcc-arm-9.2-2019.12-x86_64-arm-none-eabi/bin/../lib/gcc/arm-none-eabi/9.2.1/../../../../arm-none-eabi/lib/thumb/v8-a+simd/hard/libstdc++.a(class_type_info.o)
 .debug_aranges
                0x00000000000018e8       0x20 /home/olf/projects/circle/gcc-arm-9.2-2019.12-x86_64-arm-none-eabi/bin/../lib/gcc/arm-none-eabi/9.2.1/../../../../arm-none-eabi/lib/thumb/v8-a+simd/hard/libstdc++.a(del_ops.o)
 .debug_aranges
                0x0000000000001908       0x20 /home/olf/projects/circle/gcc-arm-9.2-2019.12-x86_64-arm-none-eabi/bin/../lib/gcc/arm-none-eabi/9.2.1/../../../../arm-none-eabi/lib/thumb/v8-a+simd/hard/libstdc++.a(del_opv.o)
 .debug_aranges
                0x0000000000001928       0x30 /home/olf/projects/circle/gcc-arm-9.2-2019.12-x86_64-arm-none-eabi/bin/../lib/gcc/arm-none-eabi/9.2.1/../../../../arm-none-eabi/lib/thumb/v8-a+simd/hard/libstdc++.a(eh_arm.o)
 .debug_aranges
                0x0000000000001958       0x30 /home/olf/projects/circle/gcc-arm-9.2-2019.12-x86_64-arm-none-eabi/bin/../lib/gcc/arm-none-eabi/9.2.1/../../../../arm-none-eabi/lib/thumb/v8-a+simd/hard/libstdc++.a(eh_aux_runtime.o)
 .debug_aranges
                0x0000000000001988       0x70 /home/olf/projects/circle/gcc-arm-9.2-2019.12-x86_64-arm-none-eabi/bin/../lib/gcc/arm-none-eabi/9.2.1/../../../../arm-none-eabi/lib/thumb/v8-a+simd/hard/libstdc++.a(eh_exception.o)
 .debug_aranges
                0x00000000000019f8       0x20 /home/olf/projects/circle/gcc-arm-9.2-2019.12-x86_64-arm-none-eabi/bin/../lib/gcc/arm-none-eabi/9.2.1/../../../../arm-none-eabi/lib/thumb/v8-a+simd/hard/libstdc++.a(eh_globals.o)
 .debug_aranges
                0x0000000000001a18       0x38 /home/olf/projects/circle/gcc-arm-9.2-2019.12-x86_64-arm-none-eabi/bin/../lib/gcc/arm-none-eabi/9.2.1/../../../../arm-none-eabi/lib/thumb/v8-a+simd/hard/libstdc++.a(eh_personality.o)
 .debug_aranges
                0x0000000000001a50       0x58 /home/olf/projects/circle/gcc-arm-9.2-2019.12-x86_64-arm-none-eabi/bin/../lib/gcc/arm-none-eabi/9.2.1/../../../../arm-none-eabi/lib/thumb/v8-a+simd/hard/libstdc++.a(eh_terminate.o)
 .debug_aranges
                0x0000000000001aa8       0x38 /home/olf/projects/circle/gcc-arm-9.2-2019.12-x86_64-arm-none-eabi/bin/../lib/gcc/arm-none-eabi/9.2.1/../../../../arm-none-eabi/lib/thumb/v8-a+simd/hard/libstdc++.a(eh_throw.o)
 .debug_aranges
                0x0000000000001ae0       0x18 /home/olf/projects/circle/gcc-arm-9.2-2019.12-x86_64-arm-none-eabi/bin/../lib/gcc/arm-none-eabi/9.2.1/../../../../arm-none-eabi/lib/thumb/v8-a+simd/hard/libstdc++.a(eh_unex_handler.o)
 .debug_aranges
                0x0000000000001af8       0x20 /home/olf/projects/circle/gcc-arm-9.2-2019.12-x86_64-arm-none-eabi/bin/../lib/gcc/arm-none-eabi/9.2.1/../../../../arm-none-eabi/lib/thumb/v8-a+simd/hard/libstdc++.a(new_op.o)
 .debug_aranges
                0x0000000000001b18       0x20 /home/olf/projects/circle/gcc-arm-9.2-2019.12-x86_64-arm-none-eabi/bin/../lib/gcc/arm-none-eabi/9.2.1/../../../../arm-none-eabi/lib/thumb/v8-a+simd/hard/libstdc++.a(new_opv.o)
 .debug_aranges
                0x0000000000001b38       0x28 /home/olf/projects/circle/gcc-arm-9.2-2019.12-x86_64-arm-none-eabi/bin/../lib/gcc/arm-none-eabi/9.2.1/../../../../arm-none-eabi/lib/thumb/v8-a+simd/hard/libstdc++.a(pure.o)
 .debug_aranges
                0x0000000000001b60       0x40 /home/olf/projects/circle/gcc-arm-9.2-2019.12-x86_64-arm-none-eabi/bin/../lib/gcc/arm-none-eabi/9.2.1/../../../../arm-none-eabi/lib/thumb/v8-a+simd/hard/libstdc++.a(si_class_type_info.o)
 .debug_aranges
                0x0000000000001ba0       0x48 /home/olf/projects/circle/gcc-arm-9.2-2019.12-x86_64-arm-none-eabi/bin/../lib/gcc/arm-none-eabi/9.2.1/../../../../arm-none-eabi/lib/thumb/v8-a+simd/hard/libstdc++.a(tinfo.o)
 .debug_aranges
                0x0000000000001be8       0x40 /home/olf/projects/circle/gcc-arm-9.2-2019.12-x86_64-arm-none-eabi/bin/../lib/gcc/arm-none-eabi/9.2.1/../../../../arm-none-eabi/lib/thumb/v8-a+simd/hard/libstdc++.a(vmi_class_type_info.o)
 .debug_aranges
                0x0000000000001c28       0x20 /home/olf/projects/circle/gcc-arm-9.2-2019.12-x86_64-arm-none-eabi/bin/../lib/gcc/arm-none-eabi/9.2.1/../../../../arm-none-eabi/lib/thumb/v8-a+simd/hard/libstdc++.a(vterminate.o)
 .debug_aranges
                0x0000000000001c48       0x30 /home/olf/projects/circle/gcc-arm-9.2-2019.12-x86_64-arm-none-eabi/bin/../lib/gcc/arm-none-eabi/9.2.1/../../../../arm-none-eabi/lib/thumb/v8-a+simd/hard/libstdc++.a(bad_alloc.o)
 .debug_aranges
                0x0000000000001c78       0x30 /home/olf/projects/circle/gcc-arm-9.2-2019.12-x86_64-arm-none-eabi/bin/../lib/gcc/arm-none-eabi/9.2.1/../../../../arm-none-eabi/lib/thumb/v8-a+simd/hard/libstdc++.a(bad_array_new.o)
 .debug_aranges
                0x0000000000001ca8       0x30 /home/olf/projects/circle/gcc-arm-9.2-2019.12-x86_64-arm-none-eabi/bin/../lib/gcc/arm-none-eabi/9.2.1/../../../../arm-none-eabi/lib/thumb/v8-a+simd/hard/libstdc++.a(bad_cast.o)
 .debug_aranges
                0x0000000000001cd8       0x30 /home/olf/projects/circle/gcc-arm-9.2-2019.12-x86_64-arm-none-eabi/bin/../lib/gcc/arm-none-eabi/9.2.1/../../../../arm-none-eabi/lib/thumb/v8-a+simd/hard/libstdc++.a(bad_typeid.o)
 .debug_aranges
                0x0000000000001d08      0x178 /home/olf/projects/circle/gcc-arm-9.2-2019.12-x86_64-arm-none-eabi/bin/../lib/gcc/arm-none-eabi/9.2.1/../../../../arm-none-eabi/lib/thumb/v8-a+simd/hard/libstdc++.a(cp-demangle.o)
 .debug_aranges
                0x0000000000001e80       0x20 /home/olf/projects/circle/gcc-arm-9.2-2019.12-x86_64-arm-none-eabi/bin/../lib/gcc/arm-none-eabi/9.2.1/../../../../arm-none-eabi/lib/thumb/v8-a+simd/hard/libstdc++.a(del_op.o)
 .debug_aranges
                0x0000000000001ea0       0x58 /home/olf/projects/circle/gcc-arm-9.2-2019.12-x86_64-arm-none-eabi/bin/../lib/gcc/arm-none-eabi/9.2.1/../../../../arm-none-eabi/lib/thumb/v8-a+simd/hard/libstdc++.a(eh_alloc.o)
 .debug_aranges
                0x0000000000001ef8       0x30 /home/olf/projects/circle/gcc-arm-9.2-2019.12-x86_64-arm-none-eabi/bin/../lib/gcc/arm-none-eabi/9.2.1/../../../../arm-none-eabi/lib/thumb/v8-a+simd/hard/libstdc++.a(eh_call.o)
 .debug_aranges
                0x0000000000001f28       0x40 /home/olf/projects/circle/gcc-arm-9.2-2019.12-x86_64-arm-none-eabi/bin/../lib/gcc/arm-none-eabi/9.2.1/../../../../arm-none-eabi/lib/thumb/v8-a+simd/hard/libstdc++.a(eh_catch.o)
 .debug_aranges
                0x0000000000001f68       0x18 /home/olf/projects/circle/gcc-arm-9.2-2019.12-x86_64-arm-none-eabi/bin/../lib/gcc/arm-none-eabi/9.2.1/../../../../arm-none-eabi/lib/thumb/v8-a+simd/hard/libstdc++.a(eh_term_handler.o)
 .debug_aranges
                0x0000000000001f80       0x20 /home/olf/projects/circle/gcc-arm-9.2-2019.12-x86_64-arm-none-eabi/bin/../lib/gcc/arm-none-eabi/9.2.1/../../../../arm-none-eabi/lib/thumb/v8-a+simd/hard/libstdc++.a(eh_type.o)
 .debug_aranges
                0x0000000000001fa0       0x28 /home/olf/projects/circle/gcc-arm-9.2-2019.12-x86_64-arm-none-eabi/bin/../lib/gcc/arm-none-eabi/9.2.1/../../../../arm-none-eabi/lib/thumb/v8-a+simd/hard/libstdc++.a(new_handler.o)
 .debug_aranges
                0x0000000000001fc8       0x20 /home/olf/projects/circle/gcc-arm-9.2-2019.12-x86_64-arm-none-eabi/bin/../lib/gcc/arm-none-eabi/9.2.1/thumb/v8-a+simd/hard/libgcc.a(_aeabi_ldivmod.o)
 .debug_aranges
                0x0000000000001fe8       0x20 /home/olf/projects/circle/gcc-arm-9.2-2019.12-x86_64-arm-none-eabi/bin/../lib/gcc/arm-none-eabi/9.2.1/thumb/v8-a+simd/hard/libgcc.a(_aeabi_uldivmod.o)
 .debug_aranges
                0x0000000000002008       0x20 /home/olf/projects/circle/gcc-arm-9.2-2019.12-x86_64-arm-none-eabi/bin/../lib/gcc/arm-none-eabi/9.2.1/thumb/v8-a+simd/hard/libgcc.a(_udivmoddi4.o)
 .debug_aranges
                0x0000000000002028       0xf0 /home/olf/projects/circle/gcc-arm-9.2-2019.12-x86_64-arm-none-eabi/bin/../lib/gcc/arm-none-eabi/9.2.1/thumb/v8-a+simd/hard/libgcc.a(unwind-arm.o)
 .debug_aranges
                0x0000000000002118       0x20 /home/olf/projects/circle/gcc-arm-9.2-2019.12-x86_64-arm-none-eabi/bin/../lib/gcc/arm-none-eabi/9.2.1/thumb/v8-a+simd/hard/libgcc.a(libunwind.o)
 .debug_aranges
                0x0000000000002138       0x58 /home/olf/projects/circle/gcc-arm-9.2-2019.12-x86_64-arm-none-eabi/bin/../lib/gcc/arm-none-eabi/9.2.1/thumb/v8-a+simd/hard/libgcc.a(pr-support.o)
 .debug_aranges
                0x0000000000002190       0x20 /home/olf/projects/circle/gcc-arm-9.2-2019.12-x86_64-arm-none-eabi/bin/../lib/gcc/arm-none-eabi/9.2.1/thumb/v8-a+simd/hard/libgcc.a(_dvmd_tls.o)

.debug_ranges   0x0000000000000000    0x11d50
 .debug_ranges  0x0000000000000000       0x10 main.o
 .debug_ranges  0x0000000000000010       0x18 ../../../addon/wlan/hostap/wpa_supplicant/libwpa_supplicant.a(eloop_circle.o)
 .debug_ranges  0x0000000000000028       0x30 ../../../addon/wlan/hostap/wpa_supplicant/libwpa_supplicant.a(os_circle.o)
 .debug_ranges  0x0000000000000058      0x510 ../../../addon/wlan/hostap/wpa_supplicant/libwpa_supplicant.a(wpa_supplicant.o)
 .debug_ranges  0x0000000000000568      0x228 ../../../addon/wlan/hostap/wpa_supplicant/libwpa_supplicant.a(wpas_glue.o)
 .debug_ranges  0x0000000000000790      0x150 ../../../addon/wlan/hostap/wpa_supplicant/libwpa_supplicant.a(driver_circle.o)
 .debug_ranges  0x00000000000008e0       0x48 ../../../addon/wlan/hostap/wpa_supplicant/libwpa_supplicant.a(scan_helpers.o)
 .debug_ranges  0x0000000000000928      0x2f8 ../../../addon/wlan/hostap/wpa_supplicant/libwpa_supplicant.a(eapol_supp_sm.o)
 .debug_ranges  0x0000000000000c20      0x8b8 ../../../addon/wlan/hostap/wpa_supplicant/libwpa_supplicant.a(eap.o)
 .debug_ranges  0x00000000000014d8       0x18 ../../../addon/wlan/hostap/wpa_supplicant/libwpa_supplicant.a(eap_methods.o)
 .debug_ranges  0x00000000000014f0       0xb0 ../../../addon/wlan/hostap/wpa_supplicant/libwpa_supplicant.a(pmksa_cache.o)
 .debug_ranges  0x00000000000015a0       0xa8 ../../../addon/wlan/hostap/wpa_supplicant/libwpa_supplicant.a(preauth.o)
 .debug_ranges  0x0000000000001648      0x5d8 ../../../addon/wlan/hostap/wpa_supplicant/libwpa_supplicant.a(wpa.o)
 .debug_ranges  0x0000000000001c20       0xf0 ../../../addon/wlan/hostap/wpa_supplicant/libwpa_supplicant.a(wpa_ie.o)
 .debug_ranges  0x0000000000001d10      0x100 ../../../addon/wlan/hostap/wpa_supplicant/libwpa_supplicant.a(common.o)
 .debug_ranges  0x0000000000001e10       0x90 ../../../addon/wlan/hostap/wpa_supplicant/libwpa_supplicant.a(wpa_debug.o)
 .debug_ranges  0x0000000000001ea0      0x3b0 ../../../addon/wlan/hostap/wpa_supplicant/libwpa_supplicant.a(wpabuf.o)
 .debug_ranges  0x0000000000002250       0x20 ../../../addon/wlan/hostap/wpa_supplicant/libwpa_supplicant.a(blacklist.o)
 .debug_ranges  0x0000000000002270      0x1c0 ../../../addon/wlan/hostap/wpa_supplicant/libwpa_supplicant.a(config.o)
 .debug_ranges  0x0000000000002430      0x240 ../../../addon/wlan/hostap/wpa_supplicant/libwpa_supplicant.a(config_file_circle.o)
 .debug_ranges  0x0000000000002670      0x578 ../../../addon/wlan/hostap/wpa_supplicant/libwpa_supplicant.a(events.o)
 .debug_ranges  0x0000000000002be8      0x180 ../../../addon/wlan/hostap/wpa_supplicant/libwpa_supplicant.a(scan.o)
 .debug_ranges  0x0000000000002d68       0x18 ../../../addon/wlan/hostap/wpa_supplicant/libwpa_supplicant.a(wpa_common.o)
 .debug_ranges  0x0000000000002d80       0x20 ../../../addon/wlan/hostap/wpa_supplicant/libwpa_supplicant.a(md5-internal.o)
 .debug_ranges  0x0000000000002da0       0x30 ../../../addon/wlan/hostap/wpa_supplicant/libwpa_supplicant.a(rc4.o)
 .debug_ranges  0x0000000000002dd0       0x18 ../../../addon/wlan/hostap/wpa_supplicant/libwpa_supplicant.a(sha1-pbkdf2.o)
 .debug_ranges  0x0000000000002de8       0xf0 ../../../addon/wlan/hostap/wpa_supplicant/libwpa_supplicant.a(eap_common.o)
 .debug_ranges  0x0000000000002ed8      0x2a8 ../../../addon/wlan/hostap/wpa_supplicant/libwpa_supplicant.a(aes-internal-dec.o)
 .debug_ranges  0x0000000000003180       0x28 ../../../addon/wlan/hostap/wpa_supplicant/libwpa_supplicant.a(sha1-internal.o)
 .debug_ranges  0x00000000000031a8       0x78 ../../../addon/wlan/libwlan.a(bcm4343.o)
 .debug_ranges  0x0000000000003220      0xc70 ../../../addon/wlan/libwlan.a(ether4330.o)
 .debug_ranges  0x0000000000003e90      0x3a8 ../../../addon/wlan/libwlan.a(emmc.o)
 .debug_ranges  0x0000000000004238       0xc0 ../../../addon/wlan/libwlan.a(p9arch.o)
 .debug_ranges  0x00000000000042f8       0x78 ../../../addon/wlan/libwlan.a(p9cmd.o)
 .debug_ranges  0x0000000000004370       0x50 ../../../addon/wlan/libwlan.a(p9ether.o)
 .debug_ranges  0x00000000000043c0       0x60 ../../../addon/wlan/libwlan.a(p9proc.o)
 .debug_ranges  0x0000000000004420     0x11d8 ../../../addon/fatfs/libfatfs.a(ff.o)
 .debug_ranges  0x00000000000055f8       0x68 ../../../addon/fatfs/libfatfs.a(ffsystem.o)
 .debug_ranges  0x0000000000005660      0x580 ../../../addon/SDCard/libsdcard.a(emmc.o)
 .debug_ranges  0x0000000000005be0       0x20 ../../../lib/net/libnet.a(nettask.o)
 .debug_ranges  0x0000000000005c00      0x1f8 ../../../lib/net/libnet.a(transportlayer.o)
 .debug_ranges  0x0000000000005df8       0x70 ../../../lib/net/libnet.a(networklayer.o)
 .debug_ranges  0x0000000000005e68       0x20 ../../../lib/net/libnet.a(linklayer.o)
 .debug_ranges  0x0000000000005e88       0x38 ../../../lib/net/libnet.a(phytask.o)
 .debug_ranges  0x0000000000005ec0      0x260 ../../../lib/net/libnet.a(arphandler.o)
 .debug_ranges  0x0000000000006120       0x50 ../../../lib/net/libnet.a(icmphandler.o)
 .debug_ranges  0x0000000000006170       0x50 ../../../lib/net/libnet.a(routecache.o)
 .debug_ranges  0x00000000000061c0       0x20 ../../../lib/net/libnet.a(netconnection.o)
 .debug_ranges  0x00000000000061e0       0x40 ../../../lib/net/libnet.a(udpconnection.o)
 .debug_ranges  0x0000000000006220      0x210 ../../../lib/net/libnet.a(tcpconnection.o)
 .debug_ranges  0x0000000000006430      0x110 ../../../lib/net/libnet.a(retranstimeoutcalc.o)
 .debug_ranges  0x0000000000006540       0xa8 ../../../lib/net/libnet.a(tcprejector.o)
 .debug_ranges  0x00000000000065e8       0x68 ../../../lib/net/libnet.a(ipaddress.o)
 .debug_ranges  0x0000000000006650       0xc0 ../../../lib/net/libnet.a(netqueue.o)
 .debug_ranges  0x0000000000006710      0x110 ../../../lib/net/libnet.a(dhcpclient.o)
 .debug_ranges  0x0000000000006820       0x20 ../../../lib/net/libnet.a(ntpdaemon.o)
 .debug_ranges  0x0000000000006840       0x58 ../../../lib/net/libnet.a(socket.o)
 .debug_ranges  0x0000000000006898       0x98 ../../../lib/net/libnet.a(dnsclient.o)
 .debug_ranges  0x0000000000006930       0x38 ../../../lib/net/libnet.a(ntpclient.o)
 .debug_ranges  0x0000000000006968       0x60 ../../../lib/net/libnet.a(netsocket.o)
 .debug_ranges  0x00000000000069c8       0x18 ../../../lib/sched/libsched.a(task.o)
 .debug_ranges  0x00000000000069e0      0x120 ../../../lib/sched/libsched.a(scheduler.o)
 .debug_ranges  0x0000000000006b00       0x20 ../../../lib/sched/libsched.a(synchronizationevent.o)
 .debug_ranges  0x0000000000006b20       0x68 ../../../lib/usb/libusb.a(xhcidevice.o)
 .debug_ranges  0x0000000000006b88       0xe8 ../../../lib/usb/libusb.a(xhciendpoint.o)
 .debug_ranges  0x0000000000006c70      0x2b0 ../../../lib/usb/libusb.a(xhcimmiospace.o)
 .debug_ranges  0x0000000000006f20       0x30 ../../../lib/usb/libusb.a(xhciring.o)
 .debug_ranges  0x0000000000006f50       0x80 ../../../lib/usb/libusb.a(xhciroothub.o)
 .debug_ranges  0x0000000000006fd0      0x140 ../../../lib/usb/libusb.a(xhcirootport.o)
 .debug_ranges  0x0000000000007110       0x18 ../../../lib/usb/libusb.a(xhcisharedmemallocator.o)
 .debug_ranges  0x0000000000007128       0x30 ../../../lib/usb/libusb.a(xhcislotmanager.o)
 .debug_ranges  0x0000000000007158       0xc0 ../../../lib/usb/libusb.a(xhciusbdevice.o)
 .debug_ranges  0x0000000000007218      0x208 ../../../lib/usb/libusb.a(usbdevice.o)
 .debug_ranges  0x0000000000007420       0xe8 ../../../lib/usb/libusb.a(usbfunction.o)
 .debug_ranges  0x0000000000007508       0xc8 ../../../lib/usb/libusb.a(usbgamepadps3.o)
 .debug_ranges  0x00000000000075d0       0x88 ../../../lib/usb/libusb.a(usbgamepadps4.o)
 .debug_ranges  0x0000000000007658      0x108 ../../../lib/usb/libusb.a(usbgamepadstandard.o)
 .debug_ranges  0x0000000000007760       0xb8 ../../../lib/usb/libusb.a(usbgamepadswitchpro.o)
 .debug_ranges  0x0000000000007818      0x120 ../../../lib/usb/libusb.a(usbgamepadxbox360.o)
 .debug_ranges  0x0000000000007938       0xa0 ../../../lib/usb/libusb.a(usbgamepadxboxone.o)
 .debug_ranges  0x00000000000079d8       0x38 ../../../lib/usb/libusb.a(usbhiddevice.o)
 .debug_ranges  0x0000000000007a10      0x138 ../../../lib/usb/libusb.a(usbhostcontroller.o)
 .debug_ranges  0x0000000000007b48       0xf8 ../../../lib/usb/libusb.a(usbkeyboard.o)
 .debug_ranges  0x0000000000007c40       0xd0 ../../../lib/usb/libusb.a(usbmassdevice.o)
 .debug_ranges  0x0000000000007d10      0x130 ../../../lib/usb/libusb.a(usbmidi.o)
 .debug_ranges  0x0000000000007e40       0x18 ../../../lib/usb/libusb.a(usbmouse.o)
 .debug_ranges  0x0000000000007e58       0x48 ../../../lib/usb/libusb.a(usbprinter.o)
 .debug_ranges  0x0000000000007ea0      0x1b8 ../../../lib/usb/libusb.a(usbstandardhub.o)
 .debug_ranges  0x0000000000008058       0x48 ../../../lib/usb/libusb.a(lan7800.o)
 .debug_ranges  0x00000000000080a0       0x48 ../../../lib/usb/libusb.a(smsc951x.o)
 .debug_ranges  0x00000000000080e8       0x68 ../../../lib/usb/libusb.a(usbbluetooth.o)
 .debug_ranges  0x0000000000008150       0x90 ../../../lib/usb/libusb.a(usbcdcethernet.o)
 .debug_ranges  0x00000000000081e0       0x90 ../../../lib/usb/libusb.a(usbconfigparser.o)
 .debug_ranges  0x0000000000008270       0x90 ../../../lib/usb/libusb.a(usbgamepad.o)
 .debug_ranges  0x0000000000008300       0x38 ../../../lib/usb/libusb.a(usbstring.o)
 .debug_ranges  0x0000000000008338       0x20 ../../../lib/input/libinput.a(keyboardbehaviour.o)
 .debug_ranges  0x0000000000008358       0x60 ../../../lib/input/libinput.a(keymap.o)
 .debug_ranges  0x00000000000083b8       0x40 ../../../lib/input/libinput.a(mouse.o)
 .debug_ranges  0x00000000000083f8       0x18 ../../../lib/input/libinput.a(mousebehaviour.o)
 .debug_ranges  0x0000000000008410       0xd0 ../../../lib/fs/libfs.a(partitionmanager.o)
 .debug_ranges  0x00000000000084e0       0x20 ../../../lib/fs/libfs.a(partition.o)
 .debug_ranges  0x0000000000008500       0x40 ../../../lib/libcircle.a(actled.o)
 .debug_ranges  0x0000000000008540       0x60 ../../../lib/libcircle.a(alloc.o)
 .debug_ranges  0x00000000000085a0       0x80 ../../../lib/libcircle.a(classallocator.o)
 .debug_ranges  0x0000000000008620       0x58 ../../../lib/libcircle.a(debug.o)
 .debug_ranges  0x0000000000008678       0x20 ../../../lib/libcircle.a(device.o)
 .debug_ranges  0x0000000000008698      0x130 ../../../lib/libcircle.a(devicenameservice.o)
 .debug_ranges  0x00000000000087c8      0x198 ../../../lib/libcircle.a(dmachannel.o)
 .debug_ranges  0x0000000000008960      0x278 ../../../lib/libcircle.a(gpiopin.o)
 .debug_ranges  0x0000000000008bd8      0x1c0 ../../../lib/libcircle.a(koptions.o)
 .debug_ranges  0x0000000000008d98      0x190 ../../../lib/libcircle.a(logger.o)
 .debug_ranges  0x0000000000008f28       0x60 ../../../lib/libcircle.a(machineinfo.o)
 .debug_ranges  0x0000000000008f88       0x18 ../../../lib/libcircle.a(ptrarray.o)
 .debug_ranges  0x0000000000008fa0       0x40 ../../../lib/libcircle.a(ptrlist.o)
 .debug_ranges  0x0000000000008fe0      0x430 ../../../lib/libcircle.a(screen.o)
 .debug_ranges  0x0000000000009410      0x380 ../../../lib/libcircle.a(serial.o)
 .debug_ranges  0x0000000000009790      0x318 ../../../lib/libcircle.a(string.o)
 .debug_ranges  0x0000000000009aa8       0x48 ../../../lib/libcircle.a(sysinit.o)
 .debug_ranges  0x0000000000009af0      0x400 ../../../lib/libcircle.a(timer.o)
 .debug_ranges  0x0000000000009ef0       0x18 ../../../lib/libcircle.a(util.o)
 .debug_ranges  0x0000000000009f08       0xf8 ../../../lib/libcircle.a(virtualgpiopin.o)
 .debug_ranges  0x000000000000a000       0x40 ../../../lib/libcircle.a(macaddress.o)
 .debug_ranges  0x000000000000a040       0x68 ../../../lib/libcircle.a(netdevice.o)
 .debug_ranges  0x000000000000a0a8       0x68 ../../../lib/libcircle.a(new.o)
 .debug_ranges  0x000000000000a110      0x168 ../../../lib/libcircle.a(heapallocator.o)
 .debug_ranges  0x000000000000a278       0x90 ../../../lib/libcircle.a(pageallocator.o)
 .debug_ranges  0x000000000000a308       0x58 ../../../lib/libcircle.a(exceptionhandler.o)
 .debug_ranges  0x000000000000a360       0x70 ../../../lib/libcircle.a(memory.o)
 .debug_ranges  0x000000000000a3d0       0x58 ../../../lib/libcircle.a(pagetable.o)
 .debug_ranges  0x000000000000a428     0x1bf8 ../../../lib/libcircle.a(bcm54213.o)
 .debug_ranges  0x000000000000c020      0xad0 ../../../lib/libcircle.a(bcmpciehostbridge.o)
 .debug_ranges  0x000000000000caf0      0x130 ../../../lib/libcircle.a(bcmrandom200.o)
 .debug_ranges  0x000000000000cc20      0x340 ../../../lib/libcircle.a(interruptgic.o)
 .debug_ranges  0x000000000000cf60      0x148 ../../../lib/libcircle.a(dma4channel.o)
 .debug_ranges  0x000000000000d0a8       0x60 ../../../lib/libcircle.a(devicetreeblob.o)
 .debug_ranges  0x000000000000d108       0x18 ../../../lib/libcircle.a(bcmframebuffer.o)
 .debug_ranges  0x000000000000d120      0x178 ../../../lib/libcircle.a(bcmmailbox.o)
 .debug_ranges  0x000000000000d298       0xb8 ../../../lib/libcircle.a(gpiomanager.o)
 .debug_ranges  0x000000000000d350       0x90 /home/olf/projects/circle/gcc-arm-9.2-2019.12-x86_64-arm-none-eabi/bin/../lib/gcc/arm-none-eabi/9.2.1/../../../../arm-none-eabi/lib/thumb/v8-a+simd/hard/libstdc++.a(class_type_info.o)
 .debug_ranges  0x000000000000d3e0       0x10 /home/olf/projects/circle/gcc-arm-9.2-2019.12-x86_64-arm-none-eabi/bin/../lib/gcc/arm-none-eabi/9.2.1/../../../../arm-none-eabi/lib/thumb/v8-a+simd/hard/libstdc++.a(del_ops.o)
 .debug_ranges  0x000000000000d3f0       0x10 /home/olf/projects/circle/gcc-arm-9.2-2019.12-x86_64-arm-none-eabi/bin/../lib/gcc/arm-none-eabi/9.2.1/../../../../arm-none-eabi/lib/thumb/v8-a+simd/hard/libstdc++.a(del_opv.o)
 .debug_ranges  0x000000000000d400       0xc0 /home/olf/projects/circle/gcc-arm-9.2-2019.12-x86_64-arm-none-eabi/bin/../lib/gcc/arm-none-eabi/9.2.1/../../../../arm-none-eabi/lib/thumb/v8-a+simd/hard/libstdc++.a(eh_arm.o)
 .debug_ranges  0x000000000000d4c0       0x68 /home/olf/projects/circle/gcc-arm-9.2-2019.12-x86_64-arm-none-eabi/bin/../lib/gcc/arm-none-eabi/9.2.1/../../../../arm-none-eabi/lib/thumb/v8-a+simd/hard/libstdc++.a(eh_aux_runtime.o)
 .debug_ranges  0x000000000000d528       0x60 /home/olf/projects/circle/gcc-arm-9.2-2019.12-x86_64-arm-none-eabi/bin/../lib/gcc/arm-none-eabi/9.2.1/../../../../arm-none-eabi/lib/thumb/v8-a+simd/hard/libstdc++.a(eh_exception.o)
 .debug_ranges  0x000000000000d588       0x10 /home/olf/projects/circle/gcc-arm-9.2-2019.12-x86_64-arm-none-eabi/bin/../lib/gcc/arm-none-eabi/9.2.1/../../../../arm-none-eabi/lib/thumb/v8-a+simd/hard/libstdc++.a(eh_globals.o)
 .debug_ranges  0x000000000000d598      0x338 /home/olf/projects/circle/gcc-arm-9.2-2019.12-x86_64-arm-none-eabi/bin/../lib/gcc/arm-none-eabi/9.2.1/../../../../arm-none-eabi/lib/thumb/v8-a+simd/hard/libstdc++.a(eh_personality.o)
 .debug_ranges  0x000000000000d8d0       0x78 /home/olf/projects/circle/gcc-arm-9.2-2019.12-x86_64-arm-none-eabi/bin/../lib/gcc/arm-none-eabi/9.2.1/../../../../arm-none-eabi/lib/thumb/v8-a+simd/hard/libstdc++.a(eh_terminate.o)
 .debug_ranges  0x000000000000d948       0x98 /home/olf/projects/circle/gcc-arm-9.2-2019.12-x86_64-arm-none-eabi/bin/../lib/gcc/arm-none-eabi/9.2.1/../../../../arm-none-eabi/lib/thumb/v8-a+simd/hard/libstdc++.a(eh_throw.o)
 .debug_ranges  0x000000000000d9e0       0x40 /home/olf/projects/circle/gcc-arm-9.2-2019.12-x86_64-arm-none-eabi/bin/../lib/gcc/arm-none-eabi/9.2.1/../../../../arm-none-eabi/lib/thumb/v8-a+simd/hard/libstdc++.a(new_op.o)
 .debug_ranges  0x000000000000da20       0x10 /home/olf/projects/circle/gcc-arm-9.2-2019.12-x86_64-arm-none-eabi/bin/../lib/gcc/arm-none-eabi/9.2.1/../../../../arm-none-eabi/lib/thumb/v8-a+simd/hard/libstdc++.a(new_opv.o)
 .debug_ranges  0x000000000000da30       0x18 /home/olf/projects/circle/gcc-arm-9.2-2019.12-x86_64-arm-none-eabi/bin/../lib/gcc/arm-none-eabi/9.2.1/../../../../arm-none-eabi/lib/thumb/v8-a+simd/hard/libstdc++.a(pure.o)
 .debug_ranges  0x000000000000da48       0x78 /home/olf/projects/circle/gcc-arm-9.2-2019.12-x86_64-arm-none-eabi/bin/../lib/gcc/arm-none-eabi/9.2.1/../../../../arm-none-eabi/lib/thumb/v8-a+simd/hard/libstdc++.a(si_class_type_info.o)
 .debug_ranges  0x000000000000dac0       0x38 /home/olf/projects/circle/gcc-arm-9.2-2019.12-x86_64-arm-none-eabi/bin/../lib/gcc/arm-none-eabi/9.2.1/../../../../arm-none-eabi/lib/thumb/v8-a+simd/hard/libstdc++.a(tinfo.o)
 .debug_ranges  0x000000000000daf8      0x678 /home/olf/projects/circle/gcc-arm-9.2-2019.12-x86_64-arm-none-eabi/bin/../lib/gcc/arm-none-eabi/9.2.1/../../../../arm-none-eabi/lib/thumb/v8-a+simd/hard/libstdc++.a(vmi_class_type_info.o)
 .debug_ranges  0x000000000000e170       0x98 /home/olf/projects/circle/gcc-arm-9.2-2019.12-x86_64-arm-none-eabi/bin/../lib/gcc/arm-none-eabi/9.2.1/../../../../arm-none-eabi/lib/thumb/v8-a+simd/hard/libstdc++.a(vterminate.o)
 .debug_ranges  0x000000000000e208       0x38 /home/olf/projects/circle/gcc-arm-9.2-2019.12-x86_64-arm-none-eabi/bin/../lib/gcc/arm-none-eabi/9.2.1/../../../../arm-none-eabi/lib/thumb/v8-a+simd/hard/libstdc++.a(bad_alloc.o)
 .debug_ranges  0x000000000000e240       0x38 /home/olf/projects/circle/gcc-arm-9.2-2019.12-x86_64-arm-none-eabi/bin/../lib/gcc/arm-none-eabi/9.2.1/../../../../arm-none-eabi/lib/thumb/v8-a+simd/hard/libstdc++.a(bad_array_new.o)
 .debug_ranges  0x000000000000e278       0x38 /home/olf/projects/circle/gcc-arm-9.2-2019.12-x86_64-arm-none-eabi/bin/../lib/gcc/arm-none-eabi/9.2.1/../../../../arm-none-eabi/lib/thumb/v8-a+simd/hard/libstdc++.a(bad_cast.o)
 .debug_ranges  0x000000000000e2b0       0x38 /home/olf/projects/circle/gcc-arm-9.2-2019.12-x86_64-arm-none-eabi/bin/../lib/gcc/arm-none-eabi/9.2.1/../../../../arm-none-eabi/lib/thumb/v8-a+simd/hard/libstdc++.a(bad_typeid.o)
 .debug_ranges  0x000000000000e2e8     0x3458 /home/olf/projects/circle/gcc-arm-9.2-2019.12-x86_64-arm-none-eabi/bin/../lib/gcc/arm-none-eabi/9.2.1/../../../../arm-none-eabi/lib/thumb/v8-a+simd/hard/libstdc++.a(cp-demangle.o)
 .debug_ranges  0x0000000000011740       0x10 /home/olf/projects/circle/gcc-arm-9.2-2019.12-x86_64-arm-none-eabi/bin/../lib/gcc/arm-none-eabi/9.2.1/../../../../arm-none-eabi/lib/thumb/v8-a+simd/hard/libstdc++.a(del_op.o)
 .debug_ranges  0x0000000000011750      0x1b0 /home/olf/projects/circle/gcc-arm-9.2-2019.12-x86_64-arm-none-eabi/bin/../lib/gcc/arm-none-eabi/9.2.1/../../../../arm-none-eabi/lib/thumb/v8-a+simd/hard/libstdc++.a(eh_alloc.o)
 .debug_ranges  0x0000000000011900       0xb0 /home/olf/projects/circle/gcc-arm-9.2-2019.12-x86_64-arm-none-eabi/bin/../lib/gcc/arm-none-eabi/9.2.1/../../../../arm-none-eabi/lib/thumb/v8-a+simd/hard/libstdc++.a(eh_call.o)
 .debug_ranges  0x00000000000119b0       0x78 /home/olf/projects/circle/gcc-arm-9.2-2019.12-x86_64-arm-none-eabi/bin/../lib/gcc/arm-none-eabi/9.2.1/../../../../arm-none-eabi/lib/thumb/v8-a+simd/hard/libstdc++.a(eh_catch.o)
 .debug_ranges  0x0000000000011a28       0x28 /home/olf/projects/circle/gcc-arm-9.2-2019.12-x86_64-arm-none-eabi/bin/../lib/gcc/arm-none-eabi/9.2.1/../../../../arm-none-eabi/lib/thumb/v8-a+simd/hard/libstdc++.a(eh_type.o)
 .debug_ranges  0x0000000000011a50       0x18 /home/olf/projects/circle/gcc-arm-9.2-2019.12-x86_64-arm-none-eabi/bin/../lib/gcc/arm-none-eabi/9.2.1/../../../../arm-none-eabi/lib/thumb/v8-a+simd/hard/libstdc++.a(new_handler.o)
 .debug_ranges  0x0000000000011a68       0xc0 /home/olf/projects/circle/gcc-arm-9.2-2019.12-x86_64-arm-none-eabi/bin/../lib/gcc/arm-none-eabi/9.2.1/thumb/v8-a+simd/hard/libgcc.a(_udivmoddi4.o)
 .debug_ranges  0x0000000000011b28      0x1e0 /home/olf/projects/circle/gcc-arm-9.2-2019.12-x86_64-arm-none-eabi/bin/../lib/gcc/arm-none-eabi/9.2.1/thumb/v8-a+simd/hard/libgcc.a(unwind-arm.o)
 .debug_ranges  0x0000000000011d08       0x48 /home/olf/projects/circle/gcc-arm-9.2-2019.12-x86_64-arm-none-eabi/bin/../lib/gcc/arm-none-eabi/9.2.1/thumb/v8-a+simd/hard/libgcc.a(pr-support.o)

.debug_line     0x0000000000000000    0x6beba
 .debug_line    0x0000000000000000      0x3f4 main.o
 .debug_line    0x00000000000003f4      0x66e kernel.o
 .debug_line    0x0000000000000a62      0x289 ../../../addon/wlan/hostap/wpa_supplicant/libwpa_supplicant.a(wpasupplicant.o)
 .debug_line    0x0000000000000ceb      0x490 ../../../addon/wlan/hostap/wpa_supplicant/libwpa_supplicant.a(eloop_circle.o)
 .debug_line    0x000000000000117b      0x5f4 ../../../addon/wlan/hostap/wpa_supplicant/libwpa_supplicant.a(os_circle.o)
 .debug_line    0x000000000000176f      0x152 ../../../addon/wlan/hostap/wpa_supplicant/libwpa_supplicant.a(main_circle.o)
 .debug_line    0x00000000000018c1     0x2f03 ../../../addon/wlan/hostap/wpa_supplicant/libwpa_supplicant.a(wpa_supplicant.o)
 .debug_line    0x00000000000047c4      0xe45 ../../../addon/wlan/hostap/wpa_supplicant/libwpa_supplicant.a(wpas_glue.o)
 .debug_line    0x0000000000005609       0x5f ../../../addon/wlan/hostap/wpa_supplicant/libwpa_supplicant.a(drivers.o)
 .debug_line    0x0000000000005668      0xa6c ../../../addon/wlan/hostap/wpa_supplicant/libwpa_supplicant.a(driver_circle.o)
 .debug_line    0x00000000000060d4      0x5bc ../../../addon/wlan/hostap/wpa_supplicant/libwpa_supplicant.a(scan_helpers.o)
 .debug_line    0x0000000000006690     0x17ef ../../../addon/wlan/hostap/wpa_supplicant/libwpa_supplicant.a(eapol_supp_sm.o)
 .debug_line    0x0000000000007e7f     0x1fda ../../../addon/wlan/hostap/wpa_supplicant/libwpa_supplicant.a(eap.o)
 .debug_line    0x0000000000009e59      0x576 ../../../addon/wlan/hostap/wpa_supplicant/libwpa_supplicant.a(eap_methods.o)
 .debug_line    0x000000000000a3cf      0x501 ../../../addon/wlan/hostap/wpa_supplicant/libwpa_supplicant.a(l2_packet_circle.o)
 .debug_line    0x000000000000a8d0      0x83d ../../../addon/wlan/hostap/wpa_supplicant/libwpa_supplicant.a(pmksa_cache.o)
 .debug_line    0x000000000000b10d      0x8dc ../../../addon/wlan/hostap/wpa_supplicant/libwpa_supplicant.a(preauth.o)
 .debug_line    0x000000000000b9e9     0x1fb4 ../../../addon/wlan/hostap/wpa_supplicant/libwpa_supplicant.a(wpa.o)
 .debug_line    0x000000000000d99d      0x8e6 ../../../addon/wlan/hostap/wpa_supplicant/libwpa_supplicant.a(wpa_ie.o)
 .debug_line    0x000000000000e283      0x496 ../../../addon/wlan/hostap/wpa_supplicant/libwpa_supplicant.a(common.o)
 .debug_line    0x000000000000e719      0x49e ../../../addon/wlan/hostap/wpa_supplicant/libwpa_supplicant.a(wpa_debug.o)
 .debug_line    0x000000000000ebb7      0x747 ../../../addon/wlan/hostap/wpa_supplicant/libwpa_supplicant.a(wpabuf.o)
 .debug_line    0x000000000000f2fe      0x27b ../../../addon/wlan/hostap/wpa_supplicant/libwpa_supplicant.a(blacklist.o)
 .debug_line    0x000000000000f579     0x2186 ../../../addon/wlan/hostap/wpa_supplicant/libwpa_supplicant.a(config.o)
 .debug_line    0x00000000000116ff      0xed6 ../../../addon/wlan/hostap/wpa_supplicant/libwpa_supplicant.a(config_file_circle.o)
 .debug_line    0x00000000000125d5     0x1338 ../../../addon/wlan/hostap/wpa_supplicant/libwpa_supplicant.a(events.o)
 .debug_line    0x000000000001390d      0x1e8 ../../../addon/wlan/hostap/wpa_supplicant/libwpa_supplicant.a(notify.o)
 .debug_line    0x0000000000013af5      0x8a5 ../../../addon/wlan/hostap/wpa_supplicant/libwpa_supplicant.a(scan.o)
 .debug_line    0x000000000001439a      0x53c ../../../addon/wlan/hostap/wpa_supplicant/libwpa_supplicant.a(wpa_common.o)
 .debug_line    0x00000000000148d6      0x17c ../../../addon/wlan/hostap/wpa_supplicant/libwpa_supplicant.a(aes-unwrap.o)
 .debug_line    0x0000000000014a52      0x497 ../../../addon/wlan/hostap/wpa_supplicant/libwpa_supplicant.a(md5-internal.o)
 .debug_line    0x0000000000014ee9      0x21d ../../../addon/wlan/hostap/wpa_supplicant/libwpa_supplicant.a(md5.o)
 .debug_line    0x0000000000015106      0x236 ../../../addon/wlan/hostap/wpa_supplicant/libwpa_supplicant.a(rc4.o)
 .debug_line    0x000000000001533c      0x1a2 ../../../addon/wlan/hostap/wpa_supplicant/libwpa_supplicant.a(sha1-pbkdf2.o)
 .debug_line    0x00000000000154de      0x2e7 ../../../addon/wlan/hostap/wpa_supplicant/libwpa_supplicant.a(sha1.o)
 .debug_line    0x00000000000157c5       0x84 ../../../addon/wlan/hostap/wpa_supplicant/libwpa_supplicant.a(tls_none.o)
 .debug_line    0x0000000000015849      0x43c ../../../addon/wlan/hostap/wpa_supplicant/libwpa_supplicant.a(eap_common.o)
 .debug_line    0x0000000000015c85      0x390 ../../../addon/wlan/hostap/wpa_supplicant/libwpa_supplicant.a(base64.o)
 .debug_line    0x0000000000016015      0x70f ../../../addon/wlan/hostap/wpa_supplicant/libwpa_supplicant.a(aes-internal-dec.o)
 .debug_line    0x0000000000016724      0x1d3 ../../../addon/wlan/hostap/wpa_supplicant/libwpa_supplicant.a(aes-internal.o)
 .debug_line    0x00000000000168f7      0xe4e ../../../addon/wlan/hostap/wpa_supplicant/libwpa_supplicant.a(sha1-internal.o)
 .debug_line    0x0000000000017745      0x83c ../../../addon/wlan/libwlan.a(bcm4343.o)
 .debug_line    0x0000000000017f81     0x364f ../../../addon/wlan/libwlan.a(ether4330.o)
 .debug_line    0x000000000001b5d0      0xd6a ../../../addon/wlan/libwlan.a(emmc.o)
 .debug_line    0x000000000001c33a      0x47f ../../../addon/wlan/libwlan.a(p9arch.o)
 .debug_line    0x000000000001c7b9      0x2fd ../../../addon/wlan/libwlan.a(p9chan.o)
 .debug_line    0x000000000001cab6      0x265 ../../../addon/wlan/libwlan.a(p9cmd.o)
 .debug_line    0x000000000001cd1b      0x2a2 ../../../addon/wlan/libwlan.a(p9error.o)
 .debug_line    0x000000000001cfbd      0x39e ../../../addon/wlan/libwlan.a(p9ether.o)
 .debug_line    0x000000000001d35b      0x345 ../../../addon/wlan/libwlan.a(p9proc.o)
 .debug_line    0x000000000001d6a0      0x38a ../../../addon/wlan/libwlan.a(p9util.o)
 .debug_line    0x000000000001da2a     0x6f0a ../../../addon/fatfs/libfatfs.a(ff.o)
 .debug_line    0x0000000000024934      0x3a5 ../../../addon/fatfs/libfatfs.a(diskio.o)
 .debug_line    0x0000000000024cd9      0x3c6 ../../../addon/fatfs/libfatfs.a(ffsystem.o)
 .debug_line    0x000000000002509f      0x2b5 ../../../addon/fatfs/libfatfs.a(ffunicode.o)
 .debug_line    0x0000000000025354     0x1fd4 ../../../addon/SDCard/libsdcard.a(emmc.o)
 .debug_line    0x0000000000027328      0x441 ../../../lib/net/libnet.a(netsubsystem.o)
 .debug_line    0x0000000000027769      0x25e ../../../lib/net/libnet.a(nettask.o)
 .debug_line    0x00000000000279c7      0xd2c ../../../lib/net/libnet.a(transportlayer.o)
 .debug_line    0x00000000000286f3      0x791 ../../../lib/net/libnet.a(networklayer.o)
 .debug_line    0x0000000000028e84      0x6a2 ../../../lib/net/libnet.a(linklayer.o)
 .debug_line    0x0000000000029526      0x3e7 ../../../lib/net/libnet.a(netdevlayer.o)
 .debug_line    0x000000000002990d      0x19c ../../../lib/net/libnet.a(phytask.o)
 .debug_line    0x0000000000029aa9      0xb82 ../../../lib/net/libnet.a(arphandler.o)
 .debug_line    0x000000000002a62b      0x5f6 ../../../lib/net/libnet.a(icmphandler.o)
 .debug_line    0x000000000002ac21      0x26a ../../../lib/net/libnet.a(routecache.o)
 .debug_line    0x000000000002ae8b      0x2ed ../../../lib/net/libnet.a(netconnection.o)
 .debug_line    0x000000000002b178      0x850 ../../../lib/net/libnet.a(udpconnection.o)
 .debug_line    0x000000000002b9c8     0x1ab1 ../../../lib/net/libnet.a(tcpconnection.o)
 .debug_line    0x000000000002d479      0x31c ../../../lib/net/libnet.a(retransmissionqueue.o)
 .debug_line    0x000000000002d795      0x4a4 ../../../lib/net/libnet.a(retranstimeoutcalc.o)
 .debug_line    0x000000000002dc39      0x4d2 ../../../lib/net/libnet.a(tcprejector.o)
 .debug_line    0x000000000002e10b      0x2c8 ../../../lib/net/libnet.a(netconfig.o)
 .debug_line    0x000000000002e3d3      0x4d3 ../../../lib/net/libnet.a(ipaddress.o)
 .debug_line    0x000000000002e8a6      0x3a2 ../../../lib/net/libnet.a(netqueue.o)
 .debug_line    0x000000000002ec48      0x34d ../../../lib/net/libnet.a(checksumcalculator.o)
 .debug_line    0x000000000002ef95      0xf25 ../../../lib/net/libnet.a(dhcpclient.o)
 .debug_line    0x000000000002feba      0x3d8 ../../../lib/net/libnet.a(ntpdaemon.o)
 .debug_line    0x0000000000030292      0x754 ../../../lib/net/libnet.a(socket.o)
 .debug_line    0x00000000000309e6      0x5da ../../../lib/net/libnet.a(dnsclient.o)
 .debug_line    0x0000000000030fc0      0x34a ../../../lib/net/libnet.a(ntpclient.o)
 .debug_line    0x000000000003130a      0x3fd ../../../lib/net/libnet.a(netsocket.o)
 .debug_line    0x0000000000031707      0x2c1 ../../../lib/sched/libsched.a(task.o)
 .debug_line    0x00000000000319c8      0x750 ../../../lib/sched/libsched.a(scheduler.o)
 .debug_line    0x0000000000032118      0x173 ../../../lib/sched/libsched.a(synchronizationevent.o)
 .debug_line    0x000000000003228b      0xa53 ../../../lib/usb/libusb.a(xhcidevice.o)
 .debug_line    0x0000000000032cde      0xb84 ../../../lib/usb/libusb.a(xhciendpoint.o)
 .debug_line    0x0000000000033862      0x439 ../../../lib/usb/libusb.a(xhcieventmanager.o)
 .debug_line    0x0000000000033c9b      0x7a2 ../../../lib/usb/libusb.a(xhcimmiospace.o)
 .debug_line    0x000000000003443d      0x49f ../../../lib/usb/libusb.a(xhciring.o)
 .debug_line    0x00000000000348dc      0x385 ../../../lib/usb/libusb.a(xhciroothub.o)
 .debug_line    0x0000000000034c61      0x7dd ../../../lib/usb/libusb.a(xhcirootport.o)
 .debug_line    0x000000000003543e      0x3b1 ../../../lib/usb/libusb.a(xhcisharedmemallocator.o)
 .debug_line    0x00000000000357ef      0x3c4 ../../../lib/usb/libusb.a(xhcislotmanager.o)
 .debug_line    0x0000000000035bb3      0x959 ../../../lib/usb/libusb.a(xhciusbdevice.o)
 .debug_line    0x000000000003650c      0xef2 ../../../lib/usb/libusb.a(usbdevice.o)
 .debug_line    0x00000000000373fe      0x341 ../../../lib/usb/libusb.a(usbdevicefactory.o)
 .debug_line    0x000000000003773f      0x319 ../../../lib/usb/libusb.a(usbendpoint.o)
 .debug_line    0x0000000000037a58      0x6ed ../../../lib/usb/libusb.a(usbfunction.o)
 .debug_line    0x0000000000038145      0x571 ../../../lib/usb/libusb.a(usbgamepadps3.o)
 .debug_line    0x00000000000386b6      0x909 ../../../lib/usb/libusb.a(usbgamepadps4.o)
 .debug_line    0x0000000000038fbf      0x76b ../../../lib/usb/libusb.a(usbgamepadstandard.o)
 .debug_line    0x000000000003972a      0x64c ../../../lib/usb/libusb.a(usbgamepadswitchpro.o)
 .debug_line    0x0000000000039d76      0x4f7 ../../../lib/usb/libusb.a(usbgamepadxbox360.o)
 .debug_line    0x000000000003a26d      0x56d ../../../lib/usb/libusb.a(usbgamepadxboxone.o)
 .debug_line    0x000000000003a7da      0x76d ../../../lib/usb/libusb.a(usbhiddevice.o)
 .debug_line    0x000000000003af47      0x6f9 ../../../lib/usb/libusb.a(usbhostcontroller.o)
 .debug_line    0x000000000003b640      0x59f ../../../lib/usb/libusb.a(usbkeyboard.o)
 .debug_line    0x000000000003bbdf      0xb89 ../../../lib/usb/libusb.a(usbmassdevice.o)
 .debug_line    0x000000000003c768      0x75d ../../../lib/usb/libusb.a(usbmidi.o)
 .debug_line    0x000000000003cec5      0x30e ../../../lib/usb/libusb.a(usbmouse.o)
 .debug_line    0x000000000003d1d3      0x471 ../../../lib/usb/libusb.a(usbprinter.o)
 .debug_line    0x000000000003d644      0x3cd ../../../lib/usb/libusb.a(usbrequest.o)
 .debug_line    0x000000000003da11      0xd6a ../../../lib/usb/libusb.a(usbstandardhub.o)
 .debug_line    0x000000000003e77b      0x5df ../../../lib/usb/libusb.a(xhcicommandmanager.o)
 .debug_line    0x000000000003ed5a      0xa79 ../../../lib/usb/libusb.a(lan7800.o)
 .debug_line    0x000000000003f7d3      0x8b3 ../../../lib/usb/libusb.a(smsc951x.o)
 .debug_line    0x0000000000040086      0x5f9 ../../../lib/usb/libusb.a(usbbluetooth.o)
 .debug_line    0x000000000004067f      0x67e ../../../lib/usb/libusb.a(usbcdcethernet.o)
 .debug_line    0x0000000000040cfd      0x41d ../../../lib/usb/libusb.a(usbconfigparser.o)
 .debug_line    0x000000000004111a      0x3b2 ../../../lib/usb/libusb.a(usbgamepad.o)
 .debug_line    0x00000000000414cc      0x4ac ../../../lib/usb/libusb.a(usbstring.o)
 .debug_line    0x0000000000041978      0x3d7 ../../../lib/input/libinput.a(keyboardbehaviour.o)
 .debug_line    0x0000000000041d4f      0x3e2 ../../../lib/input/libinput.a(keymap.o)
 .debug_line    0x0000000000042131      0x296 ../../../lib/input/libinput.a(mouse.o)
 .debug_line    0x00000000000423c7      0x4bf ../../../lib/input/libinput.a(mousebehaviour.o)
 .debug_line    0x0000000000042886      0x347 ../../../lib/fs/libfs.a(partitionmanager.o)
 .debug_line    0x0000000000042bcd      0x265 ../../../lib/fs/libfs.a(partition.o)
 .debug_line    0x0000000000042e32      0x257 ../../../lib/libcircle.a(actled.o)
 .debug_line    0x0000000000043089      0x236 ../../../lib/libcircle.a(alloc.o)
 .debug_line    0x00000000000432bf      0x146 ../../../lib/libcircle.a(assert.o)
 .debug_line    0x0000000000043405      0x27e ../../../lib/libcircle.a(bcmpropertytags.o)
 .debug_line    0x0000000000043683      0x429 ../../../lib/libcircle.a(classallocator.o)
 .debug_line    0x0000000000043aac      0x1a6 ../../../lib/libcircle.a(debug.o)
 .debug_line    0x0000000000043c52       0xf7 ../../../lib/libcircle.a(device.o)
 .debug_line    0x0000000000043d49      0x5e3 ../../../lib/libcircle.a(devicenameservice.o)
 .debug_line    0x000000000004432c      0xc7e ../../../lib/libcircle.a(dmachannel.o)
 .debug_line    0x0000000000044faa      0xd24 ../../../lib/libcircle.a(gpiopin.o)
 .debug_line    0x0000000000045cce      0x5f3 ../../../lib/libcircle.a(koptions.o)
 .debug_line    0x00000000000462c1      0x8ea ../../../lib/libcircle.a(logger.o)
 .debug_line    0x0000000000046bab      0x77e ../../../lib/libcircle.a(machineinfo.o)
 .debug_line    0x0000000000047329      0x2e8 ../../../lib/libcircle.a(ptrarray.o)
 .debug_line    0x0000000000047611      0x389 ../../../lib/libcircle.a(ptrlist.o)
 .debug_line    0x000000000004799a     0x13db ../../../lib/libcircle.a(screen.o)
 .debug_line    0x0000000000048d75     0x10ef ../../../lib/libcircle.a(serial.o)
 .debug_line    0x0000000000049e64     0x1565 ../../../lib/libcircle.a(string.o)
 .debug_line    0x000000000004b3c9      0x2ed ../../../lib/libcircle.a(sysinit.o)
 .debug_line    0x000000000004b6b6      0xe64 ../../../lib/libcircle.a(timer.o)
 .debug_line    0x000000000004c51a       0xfc ../../../lib/libcircle.a(util.o)
 .debug_line    0x000000000004c616      0x3f5 ../../../lib/libcircle.a(virtualgpiopin.o)
 .debug_line    0x000000000004ca0b      0x128 ../../../lib/libcircle.a(chainboot.o)
 .debug_line    0x000000000004cb33      0x275 ../../../lib/libcircle.a(macaddress.o)
 .debug_line    0x000000000004cda8      0x18b ../../../lib/libcircle.a(netdevice.o)
 .debug_line    0x000000000004cf33      0x131 ../../../lib/libcircle.a(new.o)
 .debug_line    0x000000000004d064      0x52b ../../../lib/libcircle.a(heapallocator.o)
 .debug_line    0x000000000004d58f      0x27a ../../../lib/libcircle.a(pageallocator.o)
 .debug_line    0x000000000004d809      0x20d ../../../lib/libcircle.a(numberpool.o)
 .debug_line    0x000000000004da16      0x2c4 ../../../lib/libcircle.a(exceptionhandler.o)
 .debug_line    0x000000000004dcda      0x428 ../../../lib/libcircle.a(memory.o)
 .debug_line    0x000000000004e102      0x30c ../../../lib/libcircle.a(pagetable.o)
 .debug_line    0x000000000004e40e      0x191 ../../../lib/libcircle.a(synchronize.o)
 .debug_line    0x000000000004e59f     0x3250 ../../../lib/libcircle.a(bcm54213.o)
 .debug_line    0x00000000000517ef     0x1ce7 ../../../lib/libcircle.a(bcmpciehostbridge.o)
 .debug_line    0x00000000000534d6      0x242 ../../../lib/libcircle.a(bcmrandom200.o)
 .debug_line    0x0000000000053718      0xac1 ../../../lib/libcircle.a(interruptgic.o)
 .debug_line    0x00000000000541d9      0xb31 ../../../lib/libcircle.a(dma4channel.o)
 .debug_line    0x0000000000054d0a      0x5c4 ../../../lib/libcircle.a(devicetreeblob.o)
 .debug_line    0x00000000000552ce      0x3c6 ../../../lib/libcircle.a(bcmframebuffer.o)
 .debug_line    0x0000000000055694      0x3dd ../../../lib/libcircle.a(bcmmailbox.o)
 .debug_line    0x0000000000055a71      0x129 ../../../lib/libcircle.a(chargenerator.o)
 .debug_line    0x0000000000055b9a      0x38c ../../../lib/libcircle.a(gpiomanager.o)
 .debug_line    0x0000000000055f26      0x49b /home/olf/projects/circle/gcc-arm-9.2-2019.12-x86_64-arm-none-eabi/bin/../lib/gcc/arm-none-eabi/9.2.1/../../../../arm-none-eabi/lib/thumb/v8-a+simd/hard/libstdc++.a(class_type_info.o)
 .debug_line    0x00000000000563c1      0x2fe /home/olf/projects/circle/gcc-arm-9.2-2019.12-x86_64-arm-none-eabi/bin/../lib/gcc/arm-none-eabi/9.2.1/../../../../arm-none-eabi/lib/thumb/v8-a+simd/hard/libstdc++.a(del_ops.o)
 .debug_line    0x00000000000566bf      0x2fe /home/olf/projects/circle/gcc-arm-9.2-2019.12-x86_64-arm-none-eabi/bin/../lib/gcc/arm-none-eabi/9.2.1/../../../../arm-none-eabi/lib/thumb/v8-a+simd/hard/libstdc++.a(del_opv.o)
 .debug_line    0x00000000000569bd      0x6ba /home/olf/projects/circle/gcc-arm-9.2-2019.12-x86_64-arm-none-eabi/bin/../lib/gcc/arm-none-eabi/9.2.1/../../../../arm-none-eabi/lib/thumb/v8-a+simd/hard/libstdc++.a(eh_arm.o)
 .debug_line    0x0000000000057077      0x5e4 /home/olf/projects/circle/gcc-arm-9.2-2019.12-x86_64-arm-none-eabi/bin/../lib/gcc/arm-none-eabi/9.2.1/../../../../arm-none-eabi/lib/thumb/v8-a+simd/hard/libstdc++.a(eh_aux_runtime.o)
 .debug_line    0x000000000005765b      0x445 /home/olf/projects/circle/gcc-arm-9.2-2019.12-x86_64-arm-none-eabi/bin/../lib/gcc/arm-none-eabi/9.2.1/../../../../arm-none-eabi/lib/thumb/v8-a+simd/hard/libstdc++.a(eh_exception.o)
 .debug_line    0x0000000000057aa0      0x513 /home/olf/projects/circle/gcc-arm-9.2-2019.12-x86_64-arm-none-eabi/bin/../lib/gcc/arm-none-eabi/9.2.1/../../../../arm-none-eabi/lib/thumb/v8-a+simd/hard/libstdc++.a(eh_globals.o)
 .debug_line    0x0000000000057fb3     0x113b /home/olf/projects/circle/gcc-arm-9.2-2019.12-x86_64-arm-none-eabi/bin/../lib/gcc/arm-none-eabi/9.2.1/../../../../arm-none-eabi/lib/thumb/v8-a+simd/hard/libstdc++.a(eh_personality.o)
 .debug_line    0x00000000000590ee      0x642 /home/olf/projects/circle/gcc-arm-9.2-2019.12-x86_64-arm-none-eabi/bin/../lib/gcc/arm-none-eabi/9.2.1/../../../../arm-none-eabi/lib/thumb/v8-a+simd/hard/libstdc++.a(eh_terminate.o)
 .debug_line    0x0000000000059730      0x5e3 /home/olf/projects/circle/gcc-arm-9.2-2019.12-x86_64-arm-none-eabi/bin/../lib/gcc/arm-none-eabi/9.2.1/../../../../arm-none-eabi/lib/thumb/v8-a+simd/hard/libstdc++.a(eh_throw.o)
 .debug_line    0x0000000000059d13      0x3a8 /home/olf/projects/circle/gcc-arm-9.2-2019.12-x86_64-arm-none-eabi/bin/../lib/gcc/arm-none-eabi/9.2.1/../../../../arm-none-eabi/lib/thumb/v8-a+simd/hard/libstdc++.a(eh_unex_handler.o)
 .debug_line    0x000000000005a0bb      0x526 /home/olf/projects/circle/gcc-arm-9.2-2019.12-x86_64-arm-none-eabi/bin/../lib/gcc/arm-none-eabi/9.2.1/../../../../arm-none-eabi/lib/thumb/v8-a+simd/hard/libstdc++.a(new_op.o)
 .debug_line    0x000000000005a5e1      0x2fe /home/olf/projects/circle/gcc-arm-9.2-2019.12-x86_64-arm-none-eabi/bin/../lib/gcc/arm-none-eabi/9.2.1/../../../../arm-none-eabi/lib/thumb/v8-a+simd/hard/libstdc++.a(new_opv.o)
 .debug_line    0x000000000005a8df      0x471 /home/olf/projects/circle/gcc-arm-9.2-2019.12-x86_64-arm-none-eabi/bin/../lib/gcc/arm-none-eabi/9.2.1/../../../../arm-none-eabi/lib/thumb/v8-a+simd/hard/libstdc++.a(pure.o)
 .debug_line    0x000000000005ad50      0x442 /home/olf/projects/circle/gcc-arm-9.2-2019.12-x86_64-arm-none-eabi/bin/../lib/gcc/arm-none-eabi/9.2.1/../../../../arm-none-eabi/lib/thumb/v8-a+simd/hard/libstdc++.a(si_class_type_info.o)
 .debug_line    0x000000000005b192      0x3aa /home/olf/projects/circle/gcc-arm-9.2-2019.12-x86_64-arm-none-eabi/bin/../lib/gcc/arm-none-eabi/9.2.1/../../../../arm-none-eabi/lib/thumb/v8-a+simd/hard/libstdc++.a(tinfo.o)
 .debug_line    0x000000000005b53c      0xe7a /home/olf/projects/circle/gcc-arm-9.2-2019.12-x86_64-arm-none-eabi/bin/../lib/gcc/arm-none-eabi/9.2.1/../../../../arm-none-eabi/lib/thumb/v8-a+simd/hard/libstdc++.a(vmi_class_type_info.o)
 .debug_line    0x000000000005c3b6      0x60c /home/olf/projects/circle/gcc-arm-9.2-2019.12-x86_64-arm-none-eabi/bin/../lib/gcc/arm-none-eabi/9.2.1/../../../../arm-none-eabi/lib/thumb/v8-a+simd/hard/libstdc++.a(vterminate.o)
 .debug_line    0x000000000005c9c2      0x342 /home/olf/projects/circle/gcc-arm-9.2-2019.12-x86_64-arm-none-eabi/bin/../lib/gcc/arm-none-eabi/9.2.1/../../../../arm-none-eabi/lib/thumb/v8-a+simd/hard/libstdc++.a(bad_alloc.o)
 .debug_line    0x000000000005cd04      0x346 /home/olf/projects/circle/gcc-arm-9.2-2019.12-x86_64-arm-none-eabi/bin/../lib/gcc/arm-none-eabi/9.2.1/../../../../arm-none-eabi/lib/thumb/v8-a+simd/hard/libstdc++.a(bad_array_new.o)
 .debug_line    0x000000000005d04a      0x1d5 /home/olf/projects/circle/gcc-arm-9.2-2019.12-x86_64-arm-none-eabi/bin/../lib/gcc/arm-none-eabi/9.2.1/../../../../arm-none-eabi/lib/thumb/v8-a+simd/hard/libstdc++.a(bad_cast.o)
 .debug_line    0x000000000005d21f      0x1d7 /home/olf/projects/circle/gcc-arm-9.2-2019.12-x86_64-arm-none-eabi/bin/../lib/gcc/arm-none-eabi/9.2.1/../../../../arm-none-eabi/lib/thumb/v8-a+simd/hard/libstdc++.a(bad_typeid.o)
 .debug_line    0x000000000005d3f6     0x9f7f /home/olf/projects/circle/gcc-arm-9.2-2019.12-x86_64-arm-none-eabi/bin/../lib/gcc/arm-none-eabi/9.2.1/../../../../arm-none-eabi/lib/thumb/v8-a+simd/hard/libstdc++.a(cp-demangle.o)
 .debug_line    0x0000000000067375      0x4c2 /home/olf/projects/circle/gcc-arm-9.2-2019.12-x86_64-arm-none-eabi/bin/../lib/gcc/arm-none-eabi/9.2.1/../../../../arm-none-eabi/lib/thumb/v8-a+simd/hard/libstdc++.a(del_op.o)
 .debug_line    0x0000000000067837      0xa5d /home/olf/projects/circle/gcc-arm-9.2-2019.12-x86_64-arm-none-eabi/bin/../lib/gcc/arm-none-eabi/9.2.1/../../../../arm-none-eabi/lib/thumb/v8-a+simd/hard/libstdc++.a(eh_alloc.o)
 .debug_line    0x0000000000068294      0x781 /home/olf/projects/circle/gcc-arm-9.2-2019.12-x86_64-arm-none-eabi/bin/../lib/gcc/arm-none-eabi/9.2.1/../../../../arm-none-eabi/lib/thumb/v8-a+simd/hard/libstdc++.a(eh_call.o)
 .debug_line    0x0000000000068a15      0x72d /home/olf/projects/circle/gcc-arm-9.2-2019.12-x86_64-arm-none-eabi/bin/../lib/gcc/arm-none-eabi/9.2.1/../../../../arm-none-eabi/lib/thumb/v8-a+simd/hard/libstdc++.a(eh_catch.o)
 .debug_line    0x0000000000069142      0x3a8 /home/olf/projects/circle/gcc-arm-9.2-2019.12-x86_64-arm-none-eabi/bin/../lib/gcc/arm-none-eabi/9.2.1/../../../../arm-none-eabi/lib/thumb/v8-a+simd/hard/libstdc++.a(eh_term_handler.o)
 .debug_line    0x00000000000694ea      0x42f /home/olf/projects/circle/gcc-arm-9.2-2019.12-x86_64-arm-none-eabi/bin/../lib/gcc/arm-none-eabi/9.2.1/../../../../arm-none-eabi/lib/thumb/v8-a+simd/hard/libstdc++.a(eh_type.o)
 .debug_line    0x0000000000069919      0x32e /home/olf/projects/circle/gcc-arm-9.2-2019.12-x86_64-arm-none-eabi/bin/../lib/gcc/arm-none-eabi/9.2.1/../../../../arm-none-eabi/lib/thumb/v8-a+simd/hard/libstdc++.a(new_handler.o)
 .debug_line    0x0000000000069c47       0xc4 /home/olf/projects/circle/gcc-arm-9.2-2019.12-x86_64-arm-none-eabi/bin/../lib/gcc/arm-none-eabi/9.2.1/thumb/v8-a+simd/hard/libgcc.a(_aeabi_ldivmod.o)
 .debug_line    0x0000000000069d0b       0xa6 /home/olf/projects/circle/gcc-arm-9.2-2019.12-x86_64-arm-none-eabi/bin/../lib/gcc/arm-none-eabi/9.2.1/thumb/v8-a+simd/hard/libgcc.a(_aeabi_uldivmod.o)
 .debug_line    0x0000000000069db1      0x6eb /home/olf/projects/circle/gcc-arm-9.2-2019.12-x86_64-arm-none-eabi/bin/../lib/gcc/arm-none-eabi/9.2.1/thumb/v8-a+simd/hard/libgcc.a(_udivmoddi4.o)
 .debug_line    0x000000000006a49c     0x1296 /home/olf/projects/circle/gcc-arm-9.2-2019.12-x86_64-arm-none-eabi/bin/../lib/gcc/arm-none-eabi/9.2.1/thumb/v8-a+simd/hard/libgcc.a(unwind-arm.o)
 .debug_line    0x000000000006b732       0xf3 /home/olf/projects/circle/gcc-arm-9.2-2019.12-x86_64-arm-none-eabi/bin/../lib/gcc/arm-none-eabi/9.2.1/thumb/v8-a+simd/hard/libgcc.a(libunwind.o)
 .debug_line    0x000000000006b825      0x5ef /home/olf/projects/circle/gcc-arm-9.2-2019.12-x86_64-arm-none-eabi/bin/../lib/gcc/arm-none-eabi/9.2.1/thumb/v8-a+simd/hard/libgcc.a(pr-support.o)
 .debug_line    0x000000000006be14       0xa6 /home/olf/projects/circle/gcc-arm-9.2-2019.12-x86_64-arm-none-eabi/bin/../lib/gcc/arm-none-eabi/9.2.1/thumb/v8-a+simd/hard/libgcc.a(_dvmd_tls.o)

.debug_str      0x0000000000000000    0x29d5b
 .debug_str     0x0000000000000000     0x41b7 main.o
                                       0x461f (size before relaxing)
 .debug_str     0x00000000000041b7      0x269 kernel.o
                                       0x4873 (size before relaxing)
 .debug_str     0x0000000000004420      0x1d3 ../../../addon/wlan/hostap/wpa_supplicant/libwpa_supplicant.a(wpasupplicant.o)
                                        0x6bc (size before relaxing)
 .debug_str     0x00000000000045f3      0x26e ../../../addon/wlan/hostap/wpa_supplicant/libwpa_supplicant.a(eloop_circle.o)
                                        0x3b0 (size before relaxing)
 .debug_str     0x0000000000004861      0x247 ../../../addon/wlan/hostap/wpa_supplicant/libwpa_supplicant.a(os_circle.o)
                                       0x1724 (size before relaxing)
 .debug_str     0x0000000000004aa8      0x61d ../../../addon/wlan/hostap/wpa_supplicant/libwpa_supplicant.a(main_circle.o)
                                        0x8ec (size before relaxing)
 .debug_str     0x00000000000050c5     0x1ed3 ../../../addon/wlan/hostap/wpa_supplicant/libwpa_supplicant.a(wpa_supplicant.o)
                                       0x2d8e (size before relaxing)
 .debug_str     0x0000000000006f98      0x51e ../../../addon/wlan/hostap/wpa_supplicant/libwpa_supplicant.a(wpas_glue.o)
                                       0x21df (size before relaxing)
 .debug_str     0x00000000000074b6       0x2f ../../../addon/wlan/hostap/wpa_supplicant/libwpa_supplicant.a(drivers.o)
                                        0x1be (size before relaxing)
 .debug_str     0x00000000000074e5      0x706 ../../../addon/wlan/hostap/wpa_supplicant/libwpa_supplicant.a(driver_circle.o)
                                       0x1c1b (size before relaxing)
 .debug_str     0x0000000000007beb       0xc7 ../../../addon/wlan/hostap/wpa_supplicant/libwpa_supplicant.a(scan_helpers.o)
                                        0x350 (size before relaxing)
 .debug_str     0x0000000000007cb2      0xd5d ../../../addon/wlan/hostap/wpa_supplicant/libwpa_supplicant.a(eapol_supp_sm.o)
                                       0x14d4 (size before relaxing)
 .debug_str     0x0000000000008a0f      0xb62 ../../../addon/wlan/hostap/wpa_supplicant/libwpa_supplicant.a(eap.o)
                                       0x1514 (size before relaxing)
 .debug_str     0x0000000000009571       0x9b ../../../addon/wlan/hostap/wpa_supplicant/libwpa_supplicant.a(eap_methods.o)
                                        0x9e4 (size before relaxing)
 .debug_str     0x000000000000960c      0x105 ../../../addon/wlan/hostap/wpa_supplicant/libwpa_supplicant.a(l2_packet_circle.o)
                                       0x270c (size before relaxing)
 .debug_str     0x0000000000009711      0x2fb ../../../addon/wlan/hostap/wpa_supplicant/libwpa_supplicant.a(pmksa_cache.o)
                                        0x9f5 (size before relaxing)
 .debug_str     0x0000000000009a0c      0x10f ../../../addon/wlan/hostap/wpa_supplicant/libwpa_supplicant.a(preauth.o)
                                        0xc05 (size before relaxing)
 .debug_str     0x0000000000009b1b      0x632 ../../../addon/wlan/hostap/wpa_supplicant/libwpa_supplicant.a(wpa.o)
                                       0x14e6 (size before relaxing)
 .debug_str     0x000000000000a14d       0xd4 ../../../addon/wlan/hostap/wpa_supplicant/libwpa_supplicant.a(wpa_ie.o)
                                        0x8df (size before relaxing)
 .debug_str     0x000000000000a221       0xad ../../../addon/wlan/hostap/wpa_supplicant/libwpa_supplicant.a(common.o)
                                        0x2c6 (size before relaxing)
 .debug_str     0x000000000000a2ce      0x112 ../../../addon/wlan/hostap/wpa_supplicant/libwpa_supplicant.a(wpa_debug.o)
                                        0x410 (size before relaxing)
 .debug_str     0x000000000000a3e0       0xa9 ../../../addon/wlan/hostap/wpa_supplicant/libwpa_supplicant.a(wpabuf.o)
                                        0x352 (size before relaxing)
 .debug_str     0x000000000000a489       0x1e ../../../addon/wlan/hostap/wpa_supplicant/libwpa_supplicant.a(blacklist.o)
                                        0x8a1 (size before relaxing)
 .debug_str     0x000000000000a4a7      0x5ee ../../../addon/wlan/hostap/wpa_supplicant/libwpa_supplicant.a(config.o)
                                       0x1070 (size before relaxing)
 .debug_str     0x000000000000aa95      0x1cd ../../../addon/wlan/hostap/wpa_supplicant/libwpa_supplicant.a(config_file_circle.o)
                                        0xda7 (size before relaxing)
 .debug_str     0x000000000000ac62      0x432 ../../../addon/wlan/hostap/wpa_supplicant/libwpa_supplicant.a(events.o)
                                       0x27ff (size before relaxing)
 .debug_str     0x000000000000b094      0x40f ../../../addon/wlan/hostap/wpa_supplicant/libwpa_supplicant.a(notify.o)
                                       0x1303 (size before relaxing)
 .debug_str     0x000000000000b4a3      0x131 ../../../addon/wlan/hostap/wpa_supplicant/libwpa_supplicant.a(scan.o)
                                       0x1d9e (size before relaxing)
 .debug_str     0x000000000000b5d4       0x8b ../../../addon/wlan/hostap/wpa_supplicant/libwpa_supplicant.a(wpa_common.o)
                                        0x3b9 (size before relaxing)
 .debug_str     0x000000000000b65f       0x51 ../../../addon/wlan/hostap/wpa_supplicant/libwpa_supplicant.a(aes-unwrap.o)
                                        0x1de (size before relaxing)
 .debug_str     0x000000000000b6b0       0x68 ../../../addon/wlan/hostap/wpa_supplicant/libwpa_supplicant.a(md5-internal.o)
                                        0x20c (size before relaxing)
 .debug_str     0x000000000000b718       0x2a ../../../addon/wlan/hostap/wpa_supplicant/libwpa_supplicant.a(md5.o)
                                        0x1f6 (size before relaxing)
 .debug_str     0x000000000000b742       0x19 ../../../addon/wlan/hostap/wpa_supplicant/libwpa_supplicant.a(rc4.o)
                                        0x1b7 (size before relaxing)
 .debug_str     0x000000000000b75b       0x53 ../../../addon/wlan/hostap/wpa_supplicant/libwpa_supplicant.a(sha1-pbkdf2.o)
                                        0x23f (size before relaxing)
 .debug_str     0x000000000000b7ae       0x1f ../../../addon/wlan/hostap/wpa_supplicant/libwpa_supplicant.a(sha1.o)
                                        0x234 (size before relaxing)
 .debug_str     0x000000000000b7cd       0x19 ../../../addon/wlan/hostap/wpa_supplicant/libwpa_supplicant.a(tls_none.o)
                                        0x1fc (size before relaxing)
 .debug_str     0x000000000000b7e6       0x60 ../../../addon/wlan/hostap/wpa_supplicant/libwpa_supplicant.a(eap_common.o)
                                        0x4a2 (size before relaxing)
 .debug_str     0x000000000000b846       0x37 ../../../addon/wlan/hostap/wpa_supplicant/libwpa_supplicant.a(base64.o)
                                        0x1f1 (size before relaxing)
 .debug_str     0x000000000000b87d       0x7d ../../../addon/wlan/hostap/wpa_supplicant/libwpa_supplicant.a(aes-internal-dec.o)
                                        0x24c (size before relaxing)
 .debug_str     0x000000000000b8fa       0x1d ../../../addon/wlan/hostap/wpa_supplicant/libwpa_supplicant.a(aes-internal.o)
                                        0x1c4 (size before relaxing)
 .debug_str     0x000000000000b917       0x81 ../../../addon/wlan/hostap/wpa_supplicant/libwpa_supplicant.a(sha1-internal.o)
                                        0x257 (size before relaxing)
 .debug_str     0x000000000000b998      0x41a ../../../addon/wlan/libwlan.a(bcm4343.o)
                                       0x11ef (size before relaxing)
 .debug_str     0x000000000000bdb2      0xa2b ../../../addon/wlan/libwlan.a(ether4330.o)
                                       0x10a4 (size before relaxing)
 .debug_str     0x000000000000c7dd      0x431 ../../../addon/wlan/libwlan.a(emmc.o)
                                        0x899 (size before relaxing)
 .debug_str     0x000000000000cc0e      0xf53 ../../../addon/wlan/libwlan.a(p9arch.o)
                                       0x1e59 (size before relaxing)
 .debug_str     0x000000000000db61       0x3e ../../../addon/wlan/libwlan.a(p9chan.o)
                                        0x567 (size before relaxing)
 .debug_str     0x000000000000db9f       0x34 ../../../addon/wlan/libwlan.a(p9cmd.o)
                                        0x2d9 (size before relaxing)
 .debug_str     0x000000000000dbd3       0x2c ../../../addon/wlan/libwlan.a(p9error.o)
                                        0x239 (size before relaxing)
 .debug_str     0x000000000000dbff       0x4f ../../../addon/wlan/libwlan.a(p9ether.o)
                                        0x2c0 (size before relaxing)
 .debug_str     0x000000000000dc4e      0x152 ../../../addon/wlan/libwlan.a(p9proc.o)
                                        0x7dd (size before relaxing)
 .debug_str     0x000000000000dda0       0x17 ../../../addon/wlan/libwlan.a(p9util.o)
                                       0x1231 (size before relaxing)
 .debug_str     0x000000000000ddb7      0x512 ../../../addon/fatfs/libfatfs.a(ff.o)
                                        0x918 (size before relaxing)
 .debug_str     0x000000000000e2c9       0xcb ../../../addon/fatfs/libfatfs.a(diskio.o)
                                        0x60d (size before relaxing)
 .debug_str     0x000000000000e394       0x7b ../../../addon/fatfs/libfatfs.a(ffsystem.o)
                                        0xe66 (size before relaxing)
 .debug_str     0x000000000000e40f       0x1c ../../../addon/fatfs/libfatfs.a(ffunicode.o)
                                        0x1c4 (size before relaxing)
 .debug_str     0x000000000000e42b      0xc4a ../../../addon/SDCard/libsdcard.a(emmc.o)
                                       0x2b0f (size before relaxing)
 .debug_str     0x000000000000f075      0x11b ../../../lib/net/libnet.a(netsubsystem.o)
                                       0x261f (size before relaxing)
 .debug_str     0x000000000000f190       0xc0 ../../../lib/net/libnet.a(nettask.o)
                                       0x2571 (size before relaxing)
 .debug_str     0x000000000000f250      0x310 ../../../lib/net/libnet.a(transportlayer.o)
                                       0x2375 (size before relaxing)
 .debug_str     0x000000000000f560      0x39a ../../../lib/net/libnet.a(networklayer.o)
                                       0x20ca (size before relaxing)
 .debug_str     0x000000000000f8fa       0xb3 ../../../lib/net/libnet.a(linklayer.o)
                                       0x1dda (size before relaxing)
 .debug_str     0x000000000000f9ad       0x8c ../../../lib/net/libnet.a(netdevlayer.o)
                                       0x200f (size before relaxing)
 .debug_str     0x000000000000fa39       0xaa ../../../lib/net/libnet.a(phytask.o)
                                        0xae6 (size before relaxing)
 .debug_str     0x000000000000fae3      0x190 ../../../lib/net/libnet.a(arphandler.o)
                                       0x2360 (size before relaxing)
 .debug_str     0x000000000000fc73       0xf3 ../../../lib/net/libnet.a(icmphandler.o)
                                       0x2ee4 (size before relaxing)
 .debug_str     0x000000000000fd66       0x55 ../../../lib/net/libnet.a(routecache.o)
                                        0x3fb (size before relaxing)
 .debug_str     0x000000000000fdbb      0x46a ../../../lib/net/libnet.a(netconnection.o)
                                       0x23ff (size before relaxing)
 .debug_str     0x0000000000010225      0x3fd ../../../lib/net/libnet.a(udpconnection.o)
                                       0x2581 (size before relaxing)
 .debug_str     0x0000000000010622      0xcfb ../../../lib/net/libnet.a(tcpconnection.o)
                                       0x3d92 (size before relaxing)
 .debug_str     0x000000000001131d       0x54 ../../../lib/net/libnet.a(retransmissionqueue.o)
                                        0x42a (size before relaxing)
 .debug_str     0x0000000000011371       0x79 ../../../lib/net/libnet.a(retranstimeoutcalc.o)
                                       0x1085 (size before relaxing)
 .debug_str     0x00000000000113ea      0x100 ../../../lib/net/libnet.a(tcprejector.o)
                                       0x23d0 (size before relaxing)
 .debug_str     0x00000000000114ea       0x5a ../../../lib/net/libnet.a(netconfig.o)
                                        0x87f (size before relaxing)
 .debug_str     0x0000000000011544       0x9f ../../../lib/net/libnet.a(ipaddress.o)
                                        0x575 (size before relaxing)
 .debug_str     0x00000000000115e3       0x3f ../../../lib/net/libnet.a(netqueue.o)
                                        0x4bd (size before relaxing)
 .debug_str     0x0000000000011622       0xaf ../../../lib/net/libnet.a(checksumcalculator.o)
                                        0x7c1 (size before relaxing)
 .debug_str     0x00000000000116d1      0x6f9 ../../../lib/net/libnet.a(dhcpclient.o)
                                       0x3b44 (size before relaxing)
 .debug_str     0x0000000000011dca      0x25d ../../../lib/net/libnet.a(ntpdaemon.o)
                                       0x35d4 (size before relaxing)
 .debug_str     0x0000000000012027      0x1e7 ../../../lib/net/libnet.a(socket.o)
                                       0x24e6 (size before relaxing)
 .debug_str     0x000000000001220e      0x139 ../../../lib/net/libnet.a(dnsclient.o)
                                       0x27df (size before relaxing)
 .debug_str     0x0000000000012347       0x84 ../../../lib/net/libnet.a(ntpclient.o)
                                       0x3476 (size before relaxing)
 .debug_str     0x00000000000123cb      0x257 ../../../lib/net/libnet.a(netsocket.o)
                                       0x33d7 (size before relaxing)
 .debug_str     0x0000000000012622      0x2af ../../../lib/sched/libsched.a(task.o)
                                        0x952 (size before relaxing)
 .debug_str     0x00000000000128d1       0x9a ../../../lib/sched/libsched.a(scheduler.o)
                                       0x1634 (size before relaxing)
 .debug_str     0x000000000001296b       0x57 ../../../lib/sched/libsched.a(synchronizationevent.o)
                                        0x626 (size before relaxing)
 .debug_str     0x00000000000129c2     0x28bb ../../../lib/usb/libusb.a(xhcidevice.o)
                                       0x4505 (size before relaxing)
 .debug_str     0x000000000001527d      0x1ed ../../../lib/usb/libusb.a(xhciendpoint.o)
                                       0x35e7 (size before relaxing)
 .debug_str     0x000000000001546a       0x61 ../../../lib/usb/libusb.a(xhcieventmanager.o)
                                       0x29e2 (size before relaxing)
 .debug_str     0x00000000000154cb       0x7a ../../../lib/usb/libusb.a(xhcimmiospace.o)
                                       0x10f3 (size before relaxing)
 .debug_str     0x0000000000015545       0x5d ../../../lib/usb/libusb.a(xhciring.o)
                                       0x1cf4 (size before relaxing)
 .debug_str     0x00000000000155a2       0xeb ../../../lib/usb/libusb.a(xhciroothub.o)
                                       0x14a8 (size before relaxing)
 .debug_str     0x000000000001568d      0x421 ../../../lib/usb/libusb.a(xhcirootport.o)
                                       0x1a52 (size before relaxing)
 .debug_str     0x0000000000015aae       0x77 ../../../lib/usb/libusb.a(xhcisharedmemallocator.o)
                                       0x12c7 (size before relaxing)
 .debug_str     0x0000000000015b25       0x87 ../../../lib/usb/libusb.a(xhcislotmanager.o)
                                       0x1dc7 (size before relaxing)
 .debug_str     0x0000000000015bac      0x492 ../../../lib/usb/libusb.a(xhciusbdevice.o)
                                       0x3c64 (size before relaxing)
 .debug_str     0x000000000001603e      0xb5b ../../../lib/usb/libusb.a(usbdevice.o)
                                       0x385a (size before relaxing)
 .debug_str     0x0000000000016b99       0x1d ../../../lib/usb/libusb.a(usbdevicefactory.o)
                                        0x4d5 (size before relaxing)
 .debug_str     0x0000000000016bb6       0x84 ../../../lib/usb/libusb.a(usbendpoint.o)
                                       0x1295 (size before relaxing)
 .debug_str     0x0000000000016c3a      0x433 ../../../lib/usb/libusb.a(usbfunction.o)
                                       0x30e0 (size before relaxing)
 .debug_str     0x000000000001706d      0x72e ../../../lib/usb/libusb.a(usbgamepadps3.o)
                                       0x1a60 (size before relaxing)
 .debug_str     0x000000000001779b      0x6e0 ../../../lib/usb/libusb.a(usbgamepadps4.o)
                                       0x1d7d (size before relaxing)
 .debug_str     0x0000000000017e7b      0x355 ../../../lib/usb/libusb.a(usbgamepadstandard.o)
                                       0x191c (size before relaxing)
 .debug_str     0x00000000000181d0      0x315 ../../../lib/usb/libusb.a(usbgamepadswitchpro.o)
                                       0x1b21 (size before relaxing)
 .debug_str     0x00000000000184e5      0x283 ../../../lib/usb/libusb.a(usbgamepadxbox360.o)
                                       0x1a0f (size before relaxing)
 .debug_str     0x0000000000018768      0x32b ../../../lib/usb/libusb.a(usbgamepadxboxone.o)
                                       0x1ab2 (size before relaxing)
 .debug_str     0x0000000000018a93      0x347 ../../../lib/usb/libusb.a(usbhiddevice.o)
                                       0x2d6e (size before relaxing)
 .debug_str     0x0000000000018dda      0x41b ../../../lib/usb/libusb.a(usbhostcontroller.o)
                                       0x2b6e (size before relaxing)
 .debug_str     0x00000000000191f5      0x978 ../../../lib/usb/libusb.a(usbkeyboard.o)
                                       0x1f28 (size before relaxing)
 .debug_str     0x0000000000019b6d      0x763 ../../../lib/usb/libusb.a(usbmassdevice.o)
                                       0x3739 (size before relaxing)
 .debug_str     0x000000000001a2d0      0x2c2 ../../../lib/usb/libusb.a(usbmidi.o)
                                       0x315b (size before relaxing)
 .debug_str     0x000000000001a592      0x137 ../../../lib/usb/libusb.a(usbmouse.o)
                                       0x156d (size before relaxing)
 .debug_str     0x000000000001a6c9      0x1e9 ../../../lib/usb/libusb.a(usbprinter.o)
                                       0x2f02 (size before relaxing)
 .debug_str     0x000000000001a8b2       0x80 ../../../lib/usb/libusb.a(usbrequest.o)
                                       0x19cc (size before relaxing)
 .debug_str     0x000000000001a932      0x425 ../../../lib/usb/libusb.a(usbstandardhub.o)
                                       0x3875 (size before relaxing)
 .debug_str     0x000000000001ad57       0x93 ../../../lib/usb/libusb.a(xhcicommandmanager.o)
                                       0x2546 (size before relaxing)
 .debug_str     0x000000000001adea      0x3e0 ../../../lib/usb/libusb.a(lan7800.o)
                                       0x353e (size before relaxing)
 .debug_str     0x000000000001b1ca      0x30e ../../../lib/usb/libusb.a(smsc951x.o)
                                       0x34ed (size before relaxing)
 .debug_str     0x000000000001b4d8      0x2db ../../../lib/usb/libusb.a(usbbluetooth.o)
                                       0x3048 (size before relaxing)
 .debug_str     0x000000000001b7b3      0x3af ../../../lib/usb/libusb.a(usbcdcethernet.o)
                                       0x3351 (size before relaxing)
 .debug_str     0x000000000001bb62       0xf1 ../../../lib/usb/libusb.a(usbconfigparser.o)
                                       0x15fa (size before relaxing)
 .debug_str     0x000000000001bc53      0x2b3 ../../../lib/usb/libusb.a(usbgamepad.o)
                                       0x1aca (size before relaxing)
 .debug_str     0x000000000001bf06       0x90 ../../../lib/usb/libusb.a(usbstring.o)
                                        0x4e1 (size before relaxing)
 .debug_str     0x000000000001bf96      0x2cd ../../../lib/input/libinput.a(keyboardbehaviour.o)
                                       0x149c (size before relaxing)
 .debug_str     0x000000000001c263      0x2ba ../../../lib/input/libinput.a(keymap.o)
                                        0xcaf (size before relaxing)
 .debug_str     0x000000000001c51d      0x42c ../../../lib/input/libinput.a(mouse.o)
                                        0xb3c (size before relaxing)
 .debug_str     0x000000000001c949       0xda ../../../lib/input/libinput.a(mousebehaviour.o)
                                        0x816 (size before relaxing)
 .debug_str     0x000000000001ca23      0x148 ../../../lib/fs/libfs.a(partitionmanager.o)
                                       0x1568 (size before relaxing)
 .debug_str     0x000000000001cb6b      0x142 ../../../lib/fs/libfs.a(partition.o)
                                        0x385 (size before relaxing)
 .debug_str     0x000000000001ccad       0xcb ../../../lib/libcircle.a(actled.o)
                                       0x17c3 (size before relaxing)
 .debug_str     0x000000000001cd78       0x36 ../../../lib/libcircle.a(alloc.o)
                                        0x856 (size before relaxing)
 .debug_str     0x000000000001cdae       0x4e ../../../lib/libcircle.a(assert.o)
                                       0x116a (size before relaxing)
 .debug_str     0x000000000001cdfc       0x9e ../../../lib/libcircle.a(bcmpropertytags.o)
                                        0xaa9 (size before relaxing)
 .debug_str     0x000000000001ce9a       0x76 ../../../lib/libcircle.a(classallocator.o)
                                       0x12f2 (size before relaxing)
 .debug_str     0x000000000001cf10       0x2d ../../../lib/libcircle.a(debug.o)
                                       0x1120 (size before relaxing)
 .debug_str     0x000000000001cf3d      0x10f ../../../lib/libcircle.a(device.o)
                                        0x348 (size before relaxing)
 .debug_str     0x000000000001d04c       0x7c ../../../lib/libcircle.a(devicenameservice.o)
                                        0x606 (size before relaxing)
 .debug_str     0x000000000001d0c8       0xa7 ../../../lib/libcircle.a(dmachannel.o)
                                       0x1dfd (size before relaxing)
 .debug_str     0x000000000001d16f      0x699 ../../../lib/libcircle.a(gpiopin.o)
                                       0x18e9 (size before relaxing)
 .debug_str     0x000000000001d808       0x6d ../../../lib/libcircle.a(koptions.o)
                                        0x9a9 (size before relaxing)
 .debug_str     0x000000000001d875       0xc6 ../../../lib/libcircle.a(logger.o)
                                       0x1cab (size before relaxing)
 .debug_str     0x000000000001d93b      0x149 ../../../lib/libcircle.a(machineinfo.o)
                                        0xf3c (size before relaxing)
 .debug_str     0x000000000001da84       0x6b ../../../lib/libcircle.a(ptrarray.o)
                                        0x338 (size before relaxing)
 .debug_str     0x000000000001daef       0x3d ../../../lib/libcircle.a(ptrlist.o)
                                        0x317 (size before relaxing)
 .debug_str     0x000000000001db2c      0xf18 ../../../lib/libcircle.a(screen.o)
                                       0x206b (size before relaxing)
 .debug_str     0x000000000001ea44      0x539 ../../../lib/libcircle.a(serial.o)
                                       0x19be (size before relaxing)
 .debug_str     0x000000000001ef7d      0x2b5 ../../../lib/libcircle.a(string.o)
                                        0x6a7 (size before relaxing)
 .debug_str     0x000000000001f232       0xae ../../../lib/libcircle.a(sysinit.o)
                                       0x1276 (size before relaxing)
 .debug_str     0x000000000001f2e0      0x16e ../../../lib/libcircle.a(timer.o)
                                       0x13cb (size before relaxing)
 .debug_str     0x000000000001f44e       0x12 ../../../lib/libcircle.a(util.o)
                                        0x1ad (size before relaxing)
 .debug_str     0x000000000001f460      0x18c ../../../lib/libcircle.a(virtualgpiopin.o)
                                        0xd16 (size before relaxing)
 .debug_str     0x000000000001f5ec       0x6f ../../../lib/libcircle.a(chainboot.o)
                                        0x221 (size before relaxing)
 .debug_str     0x000000000001f65b       0x50 ../../../lib/libcircle.a(macaddress.o)
                                        0x3d2 (size before relaxing)
 .debug_str     0x000000000001f6ab       0x6b ../../../lib/libcircle.a(netdevice.o)
                                        0x74c (size before relaxing)
 .debug_str     0x000000000001f716        0xf ../../../lib/libcircle.a(new.o)
                                        0x827 (size before relaxing)
 .debug_str     0x000000000001f725       0x84 ../../../lib/libcircle.a(heapallocator.o)
                                       0x136e (size before relaxing)
 .debug_str     0x000000000001f7a9       0x4c ../../../lib/libcircle.a(pageallocator.o)
                                        0x406 (size before relaxing)
 .debug_str     0x000000000001f7f5       0x47 ../../../lib/libcircle.a(numberpool.o)
                                       0x11cf (size before relaxing)
 .debug_str     0x000000000001f83c      0x113 ../../../lib/libcircle.a(exceptionhandler.o)
                                       0x1317 (size before relaxing)
 .debug_str     0x000000000001f94f       0xb7 ../../../lib/libcircle.a(memory.o)
                                       0x144e (size before relaxing)
 .debug_str     0x000000000001fa06       0xff ../../../lib/libcircle.a(pagetable.o)
                                        0x37a (size before relaxing)
 .debug_str     0x000000000001fb05       0x3f ../../../lib/libcircle.a(synchronize.o)
                                        0x1fa (size before relaxing)
 .debug_str     0x000000000001fb44     0x11f6 ../../../lib/libcircle.a(bcm54213.o)
                                       0x2ca9 (size before relaxing)
 .debug_str     0x0000000000020d3a      0x244 ../../../lib/libcircle.a(bcmpciehostbridge.o)
                                       0x2555 (size before relaxing)
 .debug_str     0x0000000000020f7e       0xc2 ../../../lib/libcircle.a(bcmrandom200.o)
                                        0x438 (size before relaxing)
 .debug_str     0x0000000000021040       0xd4 ../../../lib/libcircle.a(interruptgic.o)
                                        0x71e (size before relaxing)
 .debug_str     0x0000000000021114       0x4f ../../../lib/libcircle.a(dma4channel.o)
                                       0x1287 (size before relaxing)
 .debug_str     0x0000000000021163      0x189 ../../../lib/libcircle.a(devicetreeblob.o)
                                       0x153c (size before relaxing)
 .debug_str     0x00000000000212ec       0x99 ../../../lib/libcircle.a(bcmframebuffer.o)
                                        0xa05 (size before relaxing)
 .debug_str     0x0000000000021385       0x6d ../../../lib/libcircle.a(bcmmailbox.o)
                                        0xf0c (size before relaxing)
 .debug_str     0x00000000000213f2       0x67 ../../../lib/libcircle.a(chargenerator.o)
                                        0x323 (size before relaxing)
 .debug_str     0x0000000000021459       0x5b ../../../lib/libcircle.a(gpiomanager.o)
                                        0x7fa (size before relaxing)
 .debug_str     0x00000000000214b4      0x9b4 /home/olf/projects/circle/gcc-arm-9.2-2019.12-x86_64-arm-none-eabi/bin/../lib/gcc/arm-none-eabi/9.2.1/../../../../arm-none-eabi/lib/thumb/v8-a+simd/hard/libstdc++.a(class_type_info.o)
                                        0xa81 (size before relaxing)
 .debug_str     0x0000000000021e68      0x506 /home/olf/projects/circle/gcc-arm-9.2-2019.12-x86_64-arm-none-eabi/bin/../lib/gcc/arm-none-eabi/9.2.1/../../../../arm-none-eabi/lib/thumb/v8-a+simd/hard/libstdc++.a(del_ops.o)
                                        0x6b4 (size before relaxing)
 .debug_str     0x000000000002236e      0x12d /home/olf/projects/circle/gcc-arm-9.2-2019.12-x86_64-arm-none-eabi/bin/../lib/gcc/arm-none-eabi/9.2.1/../../../../arm-none-eabi/lib/thumb/v8-a+simd/hard/libstdc++.a(del_opv.o)
                                        0x6bf (size before relaxing)
 .debug_str     0x000000000002249b      0x5f0 /home/olf/projects/circle/gcc-arm-9.2-2019.12-x86_64-arm-none-eabi/bin/../lib/gcc/arm-none-eabi/9.2.1/../../../../arm-none-eabi/lib/thumb/v8-a+simd/hard/libstdc++.a(eh_arm.o)
                                        0xc54 (size before relaxing)
 .debug_str     0x0000000000022a8b      0x684 /home/olf/projects/circle/gcc-arm-9.2-2019.12-x86_64-arm-none-eabi/bin/../lib/gcc/arm-none-eabi/9.2.1/../../../../arm-none-eabi/lib/thumb/v8-a+simd/hard/libstdc++.a(eh_aux_runtime.o)
                                        0xe0d (size before relaxing)
 .debug_str     0x000000000002310f      0x459 /home/olf/projects/circle/gcc-arm-9.2-2019.12-x86_64-arm-none-eabi/bin/../lib/gcc/arm-none-eabi/9.2.1/../../../../arm-none-eabi/lib/thumb/v8-a+simd/hard/libstdc++.a(eh_exception.o)
                                        0xa4c (size before relaxing)
 .debug_str     0x0000000000023568      0x14a /home/olf/projects/circle/gcc-arm-9.2-2019.12-x86_64-arm-none-eabi/bin/../lib/gcc/arm-none-eabi/9.2.1/../../../../arm-none-eabi/lib/thumb/v8-a+simd/hard/libstdc++.a(eh_globals.o)
                                        0xf2e (size before relaxing)
 .debug_str     0x00000000000236b2      0x6d5 /home/olf/projects/circle/gcc-arm-9.2-2019.12-x86_64-arm-none-eabi/bin/../lib/gcc/arm-none-eabi/9.2.1/../../../../arm-none-eabi/lib/thumb/v8-a+simd/hard/libstdc++.a(eh_personality.o)
                                       0x161e (size before relaxing)
 .debug_str     0x0000000000023d87      0x255 /home/olf/projects/circle/gcc-arm-9.2-2019.12-x86_64-arm-none-eabi/bin/../lib/gcc/arm-none-eabi/9.2.1/../../../../arm-none-eabi/lib/thumb/v8-a+simd/hard/libstdc++.a(eh_terminate.o)
                                        0xe25 (size before relaxing)
 .debug_str     0x0000000000023fdc      0x26e /home/olf/projects/circle/gcc-arm-9.2-2019.12-x86_64-arm-none-eabi/bin/../lib/gcc/arm-none-eabi/9.2.1/../../../../arm-none-eabi/lib/thumb/v8-a+simd/hard/libstdc++.a(eh_throw.o)
                                        0xc58 (size before relaxing)
 .debug_str     0x000000000002424a      0x13d /home/olf/projects/circle/gcc-arm-9.2-2019.12-x86_64-arm-none-eabi/bin/../lib/gcc/arm-none-eabi/9.2.1/../../../../arm-none-eabi/lib/thumb/v8-a+simd/hard/libstdc++.a(eh_unex_handler.o)
                                        0x77c (size before relaxing)
 .debug_str     0x0000000000024387      0x152 /home/olf/projects/circle/gcc-arm-9.2-2019.12-x86_64-arm-none-eabi/bin/../lib/gcc/arm-none-eabi/9.2.1/../../../../arm-none-eabi/lib/thumb/v8-a+simd/hard/libstdc++.a(new_op.o)
                                        0xc78 (size before relaxing)
 .debug_str     0x00000000000244d9      0x12d /home/olf/projects/circle/gcc-arm-9.2-2019.12-x86_64-arm-none-eabi/bin/../lib/gcc/arm-none-eabi/9.2.1/../../../../arm-none-eabi/lib/thumb/v8-a+simd/hard/libstdc++.a(new_opv.o)
                                        0x6be (size before relaxing)
 .debug_str     0x0000000000024606      0x176 /home/olf/projects/circle/gcc-arm-9.2-2019.12-x86_64-arm-none-eabi/bin/../lib/gcc/arm-none-eabi/9.2.1/../../../../arm-none-eabi/lib/thumb/v8-a+simd/hard/libstdc++.a(pure.o)
                                        0x7dc (size before relaxing)
 .debug_str     0x000000000002477c      0x3db /home/olf/projects/circle/gcc-arm-9.2-2019.12-x86_64-arm-none-eabi/bin/../lib/gcc/arm-none-eabi/9.2.1/../../../../arm-none-eabi/lib/thumb/v8-a+simd/hard/libstdc++.a(si_class_type_info.o)
                                        0x907 (size before relaxing)
 .debug_str     0x0000000000024b57      0x328 /home/olf/projects/circle/gcc-arm-9.2-2019.12-x86_64-arm-none-eabi/bin/../lib/gcc/arm-none-eabi/9.2.1/../../../../arm-none-eabi/lib/thumb/v8-a+simd/hard/libstdc++.a(tinfo.o)
                                        0x5ba (size before relaxing)
 .debug_str     0x0000000000024e7f      0x480 /home/olf/projects/circle/gcc-arm-9.2-2019.12-x86_64-arm-none-eabi/bin/../lib/gcc/arm-none-eabi/9.2.1/../../../../arm-none-eabi/lib/thumb/v8-a+simd/hard/libstdc++.a(vmi_class_type_info.o)
                                        0xbac (size before relaxing)
 .debug_str     0x00000000000252ff      0x268 /home/olf/projects/circle/gcc-arm-9.2-2019.12-x86_64-arm-none-eabi/bin/../lib/gcc/arm-none-eabi/9.2.1/../../../../arm-none-eabi/lib/thumb/v8-a+simd/hard/libstdc++.a(vterminate.o)
                                        0xdb0 (size before relaxing)
 .debug_str     0x0000000000025567      0x1be /home/olf/projects/circle/gcc-arm-9.2-2019.12-x86_64-arm-none-eabi/bin/../lib/gcc/arm-none-eabi/9.2.1/../../../../arm-none-eabi/lib/thumb/v8-a+simd/hard/libstdc++.a(bad_alloc.o)
                                        0x773 (size before relaxing)
 .debug_str     0x0000000000025725      0x1d3 /home/olf/projects/circle/gcc-arm-9.2-2019.12-x86_64-arm-none-eabi/bin/../lib/gcc/arm-none-eabi/9.2.1/../../../../arm-none-eabi/lib/thumb/v8-a+simd/hard/libstdc++.a(bad_array_new.o)
                                        0x7a9 (size before relaxing)
 .debug_str     0x00000000000258f8      0x189 /home/olf/projects/circle/gcc-arm-9.2-2019.12-x86_64-arm-none-eabi/bin/../lib/gcc/arm-none-eabi/9.2.1/../../../../arm-none-eabi/lib/thumb/v8-a+simd/hard/libstdc++.a(bad_cast.o)
                                        0x299 (size before relaxing)
 .debug_str     0x0000000000025a81      0x19b /home/olf/projects/circle/gcc-arm-9.2-2019.12-x86_64-arm-none-eabi/bin/../lib/gcc/arm-none-eabi/9.2.1/../../../../arm-none-eabi/lib/thumb/v8-a+simd/hard/libstdc++.a(bad_typeid.o)
                                        0x2b0 (size before relaxing)
 .debug_str     0x0000000000025c1c     0x19aa /home/olf/projects/circle/gcc-arm-9.2-2019.12-x86_64-arm-none-eabi/bin/../lib/gcc/arm-none-eabi/9.2.1/../../../../arm-none-eabi/lib/thumb/v8-a+simd/hard/libstdc++.a(cp-demangle.o)
                                       0x20d9 (size before relaxing)
 .debug_str     0x00000000000275c6      0x12b /home/olf/projects/circle/gcc-arm-9.2-2019.12-x86_64-arm-none-eabi/bin/../lib/gcc/arm-none-eabi/9.2.1/../../../../arm-none-eabi/lib/thumb/v8-a+simd/hard/libstdc++.a(del_op.o)
                                        0xbb1 (size before relaxing)
 .debug_str     0x00000000000276f1      0x496 /home/olf/projects/circle/gcc-arm-9.2-2019.12-x86_64-arm-none-eabi/bin/../lib/gcc/arm-none-eabi/9.2.1/../../../../arm-none-eabi/lib/thumb/v8-a+simd/hard/libstdc++.a(eh_alloc.o)
                                       0x1377 (size before relaxing)
 .debug_str     0x0000000000027b87      0x207 /home/olf/projects/circle/gcc-arm-9.2-2019.12-x86_64-arm-none-eabi/bin/../lib/gcc/arm-none-eabi/9.2.1/../../../../arm-none-eabi/lib/thumb/v8-a+simd/hard/libstdc++.a(eh_call.o)
                                       0x130b (size before relaxing)
 .debug_str     0x0000000000027d8e      0x1f8 /home/olf/projects/circle/gcc-arm-9.2-2019.12-x86_64-arm-none-eabi/bin/../lib/gcc/arm-none-eabi/9.2.1/../../../../arm-none-eabi/lib/thumb/v8-a+simd/hard/libstdc++.a(eh_catch.o)
                                       0x1081 (size before relaxing)
 .debug_str     0x0000000000027f86      0x13d /home/olf/projects/circle/gcc-arm-9.2-2019.12-x86_64-arm-none-eabi/bin/../lib/gcc/arm-none-eabi/9.2.1/../../../../arm-none-eabi/lib/thumb/v8-a+simd/hard/libstdc++.a(eh_term_handler.o)
                                        0x77c (size before relaxing)
 .debug_str     0x00000000000280c3      0x12d /home/olf/projects/circle/gcc-arm-9.2-2019.12-x86_64-arm-none-eabi/bin/../lib/gcc/arm-none-eabi/9.2.1/../../../../arm-none-eabi/lib/thumb/v8-a+simd/hard/libstdc++.a(eh_type.o)
                                        0xab9 (size before relaxing)
 .debug_str     0x00000000000281f0      0x17b /home/olf/projects/circle/gcc-arm-9.2-2019.12-x86_64-arm-none-eabi/bin/../lib/gcc/arm-none-eabi/9.2.1/../../../../arm-none-eabi/lib/thumb/v8-a+simd/hard/libstdc++.a(new_handler.o)
                                        0x717 (size before relaxing)
 .debug_str     0x000000000002836b      0x117 /home/olf/projects/circle/gcc-arm-9.2-2019.12-x86_64-arm-none-eabi/bin/../lib/gcc/arm-none-eabi/9.2.1/thumb/v8-a+simd/hard/libgcc.a(_aeabi_ldivmod.o)
 .debug_str     0x0000000000028482      0x117 /home/olf/projects/circle/gcc-arm-9.2-2019.12-x86_64-arm-none-eabi/bin/../lib/gcc/arm-none-eabi/9.2.1/thumb/v8-a+simd/hard/libgcc.a(_aeabi_uldivmod.o)
 .debug_str     0x0000000000028482     0x111a /home/olf/projects/circle/gcc-arm-9.2-2019.12-x86_64-arm-none-eabi/bin/../lib/gcc/arm-none-eabi/9.2.1/thumb/v8-a+simd/hard/libgcc.a(_udivmoddi4.o)
                                       0x1250 (size before relaxing)
 .debug_str     0x000000000002959c      0x62c /home/olf/projects/circle/gcc-arm-9.2-2019.12-x86_64-arm-none-eabi/bin/../lib/gcc/arm-none-eabi/9.2.1/thumb/v8-a+simd/hard/libgcc.a(unwind-arm.o)
                                        0xd25 (size before relaxing)
 .debug_str     0x0000000000029bc8       0x76 /home/olf/projects/circle/gcc-arm-9.2-2019.12-x86_64-arm-none-eabi/bin/../lib/gcc/arm-none-eabi/9.2.1/thumb/v8-a+simd/hard/libgcc.a(libunwind.o)
                                        0x11b (size before relaxing)
 .debug_str     0x0000000000029c3e       0xa7 /home/olf/projects/circle/gcc-arm-9.2-2019.12-x86_64-arm-none-eabi/bin/../lib/gcc/arm-none-eabi/9.2.1/thumb/v8-a+simd/hard/libgcc.a(pr-support.o)
                                        0x5ef (size before relaxing)
 .debug_str     0x0000000000029ce5       0x76 /home/olf/projects/circle/gcc-arm-9.2-2019.12-x86_64-arm-none-eabi/bin/../lib/gcc/arm-none-eabi/9.2.1/thumb/v8-a+simd/hard/libgcc.a(_dvmd_tls.o)
                                        0x11b (size before relaxing)

.comment        0x0000000000000000       0x5a
 .comment       0x0000000000000000       0x5a main.o
                                         0x5b (size before relaxing)
 .comment       0x000000000000005a       0x5b kernel.o
 .comment       0x000000000000005a       0x5b ../../../addon/wlan/hostap/wpa_supplicant/libwpa_supplicant.a(wpasupplicant.o)
 .comment       0x000000000000005a       0x5b ../../../addon/wlan/hostap/wpa_supplicant/libwpa_supplicant.a(eloop_circle.o)
 .comment       0x000000000000005a       0x5b ../../../addon/wlan/hostap/wpa_supplicant/libwpa_supplicant.a(os_circle.o)
 .comment       0x000000000000005a       0x5b ../../../addon/wlan/hostap/wpa_supplicant/libwpa_supplicant.a(main_circle.o)
 .comment       0x000000000000005a       0x5b ../../../addon/wlan/hostap/wpa_supplicant/libwpa_supplicant.a(wpa_supplicant.o)
 .comment       0x000000000000005a       0x5b ../../../addon/wlan/hostap/wpa_supplicant/libwpa_supplicant.a(wpas_glue.o)
 .comment       0x000000000000005a       0x5b ../../../addon/wlan/hostap/wpa_supplicant/libwpa_supplicant.a(drivers.o)
 .comment       0x000000000000005a       0x5b ../../../addon/wlan/hostap/wpa_supplicant/libwpa_supplicant.a(driver_circle.o)
 .comment       0x000000000000005a       0x5b ../../../addon/wlan/hostap/wpa_supplicant/libwpa_supplicant.a(scan_helpers.o)
 .comment       0x000000000000005a       0x5b ../../../addon/wlan/hostap/wpa_supplicant/libwpa_supplicant.a(eapol_supp_sm.o)
 .comment       0x000000000000005a       0x5b ../../../addon/wlan/hostap/wpa_supplicant/libwpa_supplicant.a(eap.o)
 .comment       0x000000000000005a       0x5b ../../../addon/wlan/hostap/wpa_supplicant/libwpa_supplicant.a(eap_methods.o)
 .comment       0x000000000000005a       0x5b ../../../addon/wlan/hostap/wpa_supplicant/libwpa_supplicant.a(l2_packet_circle.o)
 .comment       0x000000000000005a       0x5b ../../../addon/wlan/hostap/wpa_supplicant/libwpa_supplicant.a(pmksa_cache.o)
 .comment       0x000000000000005a       0x5b ../../../addon/wlan/hostap/wpa_supplicant/libwpa_supplicant.a(preauth.o)
 .comment       0x000000000000005a       0x5b ../../../addon/wlan/hostap/wpa_supplicant/libwpa_supplicant.a(wpa.o)
 .comment       0x000000000000005a       0x5b ../../../addon/wlan/hostap/wpa_supplicant/libwpa_supplicant.a(wpa_ie.o)
 .comment       0x000000000000005a       0x5b ../../../addon/wlan/hostap/wpa_supplicant/libwpa_supplicant.a(common.o)
 .comment       0x000000000000005a       0x5b ../../../addon/wlan/hostap/wpa_supplicant/libwpa_supplicant.a(wpa_debug.o)
 .comment       0x000000000000005a       0x5b ../../../addon/wlan/hostap/wpa_supplicant/libwpa_supplicant.a(wpabuf.o)
 .comment       0x000000000000005a       0x5b ../../../addon/wlan/hostap/wpa_supplicant/libwpa_supplicant.a(blacklist.o)
 .comment       0x000000000000005a       0x5b ../../../addon/wlan/hostap/wpa_supplicant/libwpa_supplicant.a(config.o)
 .comment       0x000000000000005a       0x5b ../../../addon/wlan/hostap/wpa_supplicant/libwpa_supplicant.a(config_file_circle.o)
 .comment       0x000000000000005a       0x5b ../../../addon/wlan/hostap/wpa_supplicant/libwpa_supplicant.a(events.o)
 .comment       0x000000000000005a       0x5b ../../../addon/wlan/hostap/wpa_supplicant/libwpa_supplicant.a(notify.o)
 .comment       0x000000000000005a       0x5b ../../../addon/wlan/hostap/wpa_supplicant/libwpa_supplicant.a(scan.o)
 .comment       0x000000000000005a       0x5b ../../../addon/wlan/hostap/wpa_supplicant/libwpa_supplicant.a(wpa_common.o)
 .comment       0x000000000000005a       0x5b ../../../addon/wlan/hostap/wpa_supplicant/libwpa_supplicant.a(aes-unwrap.o)
 .comment       0x000000000000005a       0x5b ../../../addon/wlan/hostap/wpa_supplicant/libwpa_supplicant.a(md5-internal.o)
 .comment       0x000000000000005a       0x5b ../../../addon/wlan/hostap/wpa_supplicant/libwpa_supplicant.a(md5.o)
 .comment       0x000000000000005a       0x5b ../../../addon/wlan/hostap/wpa_supplicant/libwpa_supplicant.a(rc4.o)
 .comment       0x000000000000005a       0x5b ../../../addon/wlan/hostap/wpa_supplicant/libwpa_supplicant.a(sha1-pbkdf2.o)
 .comment       0x000000000000005a       0x5b ../../../addon/wlan/hostap/wpa_supplicant/libwpa_supplicant.a(sha1.o)
 .comment       0x000000000000005a       0x5b ../../../addon/wlan/hostap/wpa_supplicant/libwpa_supplicant.a(tls_none.o)
 .comment       0x000000000000005a       0x5b ../../../addon/wlan/hostap/wpa_supplicant/libwpa_supplicant.a(eap_common.o)
 .comment       0x000000000000005a       0x5b ../../../addon/wlan/hostap/wpa_supplicant/libwpa_supplicant.a(base64.o)
 .comment       0x000000000000005a       0x5b ../../../addon/wlan/hostap/wpa_supplicant/libwpa_supplicant.a(aes-internal-dec.o)
 .comment       0x000000000000005a       0x5b ../../../addon/wlan/hostap/wpa_supplicant/libwpa_supplicant.a(aes-internal.o)
 .comment       0x000000000000005a       0x5b ../../../addon/wlan/hostap/wpa_supplicant/libwpa_supplicant.a(sha1-internal.o)
 .comment       0x000000000000005a       0x5b ../../../addon/wlan/libwlan.a(bcm4343.o)
 .comment       0x000000000000005a       0x5b ../../../addon/wlan/libwlan.a(ether4330.o)
 .comment       0x000000000000005a       0x5b ../../../addon/wlan/libwlan.a(emmc.o)
 .comment       0x000000000000005a       0x5b ../../../addon/wlan/libwlan.a(p9arch.o)
 .comment       0x000000000000005a       0x5b ../../../addon/wlan/libwlan.a(p9chan.o)
 .comment       0x000000000000005a       0x5b ../../../addon/wlan/libwlan.a(p9cmd.o)
 .comment       0x000000000000005a       0x5b ../../../addon/wlan/libwlan.a(p9error.o)
 .comment       0x000000000000005a       0x5b ../../../addon/wlan/libwlan.a(p9ether.o)
 .comment       0x000000000000005a       0x5b ../../../addon/wlan/libwlan.a(p9proc.o)
 .comment       0x000000000000005a       0x5b ../../../addon/wlan/libwlan.a(p9util.o)
 .comment       0x000000000000005a       0x5b ../../../addon/fatfs/libfatfs.a(ff.o)
 .comment       0x000000000000005a       0x5b ../../../addon/fatfs/libfatfs.a(diskio.o)
 .comment       0x000000000000005a       0x5b ../../../addon/fatfs/libfatfs.a(ffsystem.o)
 .comment       0x000000000000005a       0x5b ../../../addon/fatfs/libfatfs.a(ffunicode.o)
 .comment       0x000000000000005a       0x5b ../../../addon/SDCard/libsdcard.a(emmc.o)
 .comment       0x000000000000005a       0x5b ../../../lib/net/libnet.a(netsubsystem.o)
 .comment       0x000000000000005a       0x5b ../../../lib/net/libnet.a(nettask.o)
 .comment       0x000000000000005a       0x5b ../../../lib/net/libnet.a(transportlayer.o)
 .comment       0x000000000000005a       0x5b ../../../lib/net/libnet.a(networklayer.o)
 .comment       0x000000000000005a       0x5b ../../../lib/net/libnet.a(linklayer.o)
 .comment       0x000000000000005a       0x5b ../../../lib/net/libnet.a(netdevlayer.o)
 .comment       0x000000000000005a       0x5b ../../../lib/net/libnet.a(phytask.o)
 .comment       0x000000000000005a       0x5b ../../../lib/net/libnet.a(arphandler.o)
 .comment       0x000000000000005a       0x5b ../../../lib/net/libnet.a(icmphandler.o)
 .comment       0x000000000000005a       0x5b ../../../lib/net/libnet.a(routecache.o)
 .comment       0x000000000000005a       0x5b ../../../lib/net/libnet.a(netconnection.o)
 .comment       0x000000000000005a       0x5b ../../../lib/net/libnet.a(udpconnection.o)
 .comment       0x000000000000005a       0x5b ../../../lib/net/libnet.a(tcpconnection.o)
 .comment       0x000000000000005a       0x5b ../../../lib/net/libnet.a(retransmissionqueue.o)
 .comment       0x000000000000005a       0x5b ../../../lib/net/libnet.a(retranstimeoutcalc.o)
 .comment       0x000000000000005a       0x5b ../../../lib/net/libnet.a(tcprejector.o)
 .comment       0x000000000000005a       0x5b ../../../lib/net/libnet.a(netconfig.o)
 .comment       0x000000000000005a       0x5b ../../../lib/net/libnet.a(ipaddress.o)
 .comment       0x000000000000005a       0x5b ../../../lib/net/libnet.a(netqueue.o)
 .comment       0x000000000000005a       0x5b ../../../lib/net/libnet.a(checksumcalculator.o)
 .comment       0x000000000000005a       0x5b ../../../lib/net/libnet.a(dhcpclient.o)
 .comment       0x000000000000005a       0x5b ../../../lib/net/libnet.a(ntpdaemon.o)
 .comment       0x000000000000005a       0x5b ../../../lib/net/libnet.a(socket.o)
 .comment       0x000000000000005a       0x5b ../../../lib/net/libnet.a(dnsclient.o)
 .comment       0x000000000000005a       0x5b ../../../lib/net/libnet.a(ntpclient.o)
 .comment       0x000000000000005a       0x5b ../../../lib/net/libnet.a(netsocket.o)
 .comment       0x000000000000005a       0x5b ../../../lib/sched/libsched.a(task.o)
 .comment       0x000000000000005a       0x5b ../../../lib/sched/libsched.a(scheduler.o)
 .comment       0x000000000000005a       0x5b ../../../lib/sched/libsched.a(synchronizationevent.o)
 .comment       0x000000000000005a       0x5b ../../../lib/usb/libusb.a(xhcidevice.o)
 .comment       0x000000000000005a       0x5b ../../../lib/usb/libusb.a(xhciendpoint.o)
 .comment       0x000000000000005a       0x5b ../../../lib/usb/libusb.a(xhcieventmanager.o)
 .comment       0x000000000000005a       0x5b ../../../lib/usb/libusb.a(xhcimmiospace.o)
 .comment       0x000000000000005a       0x5b ../../../lib/usb/libusb.a(xhciring.o)
 .comment       0x000000000000005a       0x5b ../../../lib/usb/libusb.a(xhciroothub.o)
 .comment       0x000000000000005a       0x5b ../../../lib/usb/libusb.a(xhcirootport.o)
 .comment       0x000000000000005a       0x5b ../../../lib/usb/libusb.a(xhcisharedmemallocator.o)
 .comment       0x000000000000005a       0x5b ../../../lib/usb/libusb.a(xhcislotmanager.o)
 .comment       0x000000000000005a       0x5b ../../../lib/usb/libusb.a(xhciusbdevice.o)
 .comment       0x000000000000005a       0x5b ../../../lib/usb/libusb.a(usbdevice.o)
 .comment       0x000000000000005a       0x5b ../../../lib/usb/libusb.a(usbdevicefactory.o)
 .comment       0x000000000000005a       0x5b ../../../lib/usb/libusb.a(usbendpoint.o)
 .comment       0x000000000000005a       0x5b ../../../lib/usb/libusb.a(usbfunction.o)
 .comment       0x000000000000005a       0x5b ../../../lib/usb/libusb.a(usbgamepadps3.o)
 .comment       0x000000000000005a       0x5b ../../../lib/usb/libusb.a(usbgamepadps4.o)
 .comment       0x000000000000005a       0x5b ../../../lib/usb/libusb.a(usbgamepadstandard.o)
 .comment       0x000000000000005a       0x5b ../../../lib/usb/libusb.a(usbgamepadswitchpro.o)
 .comment       0x000000000000005a       0x5b ../../../lib/usb/libusb.a(usbgamepadxbox360.o)
 .comment       0x000000000000005a       0x5b ../../../lib/usb/libusb.a(usbgamepadxboxone.o)
 .comment       0x000000000000005a       0x5b ../../../lib/usb/libusb.a(usbhiddevice.o)
 .comment       0x000000000000005a       0x5b ../../../lib/usb/libusb.a(usbhostcontroller.o)
 .comment       0x000000000000005a       0x5b ../../../lib/usb/libusb.a(usbkeyboard.o)
 .comment       0x000000000000005a       0x5b ../../../lib/usb/libusb.a(usbmassdevice.o)
 .comment       0x000000000000005a       0x5b ../../../lib/usb/libusb.a(usbmidi.o)
 .comment       0x000000000000005a       0x5b ../../../lib/usb/libusb.a(usbmouse.o)
 .comment       0x000000000000005a       0x5b ../../../lib/usb/libusb.a(usbprinter.o)
 .comment       0x000000000000005a       0x5b ../../../lib/usb/libusb.a(usbrequest.o)
 .comment       0x000000000000005a       0x5b ../../../lib/usb/libusb.a(usbstandardhub.o)
 .comment       0x000000000000005a       0x5b ../../../lib/usb/libusb.a(xhcicommandmanager.o)
 .comment       0x000000000000005a       0x5b ../../../lib/usb/libusb.a(lan7800.o)
 .comment       0x000000000000005a       0x5b ../../../lib/usb/libusb.a(smsc951x.o)
 .comment       0x000000000000005a       0x5b ../../../lib/usb/libusb.a(usbbluetooth.o)
 .comment       0x000000000000005a       0x5b ../../../lib/usb/libusb.a(usbcdcethernet.o)
 .comment       0x000000000000005a       0x5b ../../../lib/usb/libusb.a(usbconfigparser.o)
 .comment       0x000000000000005a       0x5b ../../../lib/usb/libusb.a(usbgamepad.o)
 .comment       0x000000000000005a       0x5b ../../../lib/usb/libusb.a(usbstring.o)
 .comment       0x000000000000005a       0x5b ../../../lib/input/libinput.a(keyboardbehaviour.o)
 .comment       0x000000000000005a       0x5b ../../../lib/input/libinput.a(keymap.o)
 .comment       0x000000000000005a       0x5b ../../../lib/input/libinput.a(mouse.o)
 .comment       0x000000000000005a       0x5b ../../../lib/input/libinput.a(mousebehaviour.o)
 .comment       0x000000000000005a       0x5b ../../../lib/fs/libfs.a(partitionmanager.o)
 .comment       0x000000000000005a       0x5b ../../../lib/fs/libfs.a(partition.o)
 .comment       0x000000000000005a       0x5b ../../../lib/libcircle.a(actled.o)
 .comment       0x000000000000005a       0x5b ../../../lib/libcircle.a(alloc.o)
 .comment       0x000000000000005a       0x5b ../../../lib/libcircle.a(assert.o)
 .comment       0x000000000000005a       0x5b ../../../lib/libcircle.a(bcmpropertytags.o)
 .comment       0x000000000000005a       0x5b ../../../lib/libcircle.a(classallocator.o)
 .comment       0x000000000000005a       0x5b ../../../lib/libcircle.a(debug.o)
 .comment       0x000000000000005a       0x5b ../../../lib/libcircle.a(device.o)
 .comment       0x000000000000005a       0x5b ../../../lib/libcircle.a(devicenameservice.o)
 .comment       0x000000000000005a       0x5b ../../../lib/libcircle.a(dmachannel.o)
 .comment       0x000000000000005a       0x5b ../../../lib/libcircle.a(gpiopin.o)
 .comment       0x000000000000005a       0x5b ../../../lib/libcircle.a(koptions.o)
 .comment       0x000000000000005a       0x5b ../../../lib/libcircle.a(logger.o)
 .comment       0x000000000000005a       0x5b ../../../lib/libcircle.a(machineinfo.o)
 .comment       0x000000000000005a       0x5b ../../../lib/libcircle.a(ptrarray.o)
 .comment       0x000000000000005a       0x5b ../../../lib/libcircle.a(ptrlist.o)
 .comment       0x000000000000005a       0x5b ../../../lib/libcircle.a(screen.o)
 .comment       0x000000000000005a       0x5b ../../../lib/libcircle.a(serial.o)
 .comment       0x000000000000005a       0x5b ../../../lib/libcircle.a(string.o)
 .comment       0x000000000000005a       0x5b ../../../lib/libcircle.a(sysinit.o)
 .comment       0x000000000000005a       0x5b ../../../lib/libcircle.a(timer.o)
 .comment       0x000000000000005a       0x5b ../../../lib/libcircle.a(util.o)
 .comment       0x000000000000005a       0x5b ../../../lib/libcircle.a(virtualgpiopin.o)
 .comment       0x000000000000005a       0x5b ../../../lib/libcircle.a(chainboot.o)
 .comment       0x000000000000005a       0x5b ../../../lib/libcircle.a(macaddress.o)
 .comment       0x000000000000005a       0x5b ../../../lib/libcircle.a(netdevice.o)
 .comment       0x000000000000005a       0x5b ../../../lib/libcircle.a(new.o)
 .comment       0x000000000000005a       0x5b ../../../lib/libcircle.a(heapallocator.o)
 .comment       0x000000000000005a       0x5b ../../../lib/libcircle.a(pageallocator.o)
 .comment       0x000000000000005a       0x5b ../../../lib/libcircle.a(numberpool.o)
 .comment       0x000000000000005a       0x5b ../../../lib/libcircle.a(exceptionhandler.o)
 .comment       0x000000000000005a       0x5b ../../../lib/libcircle.a(memory.o)
 .comment       0x000000000000005a       0x5b ../../../lib/libcircle.a(pagetable.o)
 .comment       0x000000000000005a       0x5b ../../../lib/libcircle.a(synchronize.o)
 .comment       0x000000000000005a       0x5b ../../../lib/libcircle.a(bcm54213.o)
 .comment       0x000000000000005a       0x5b ../../../lib/libcircle.a(bcmpciehostbridge.o)
 .comment       0x000000000000005a       0x5b ../../../lib/libcircle.a(bcmrandom200.o)
 .comment       0x000000000000005a       0x5b ../../../lib/libcircle.a(interruptgic.o)
 .comment       0x000000000000005a       0x5b ../../../lib/libcircle.a(dma4channel.o)
 .comment       0x000000000000005a       0x5b ../../../lib/libcircle.a(devicetreeblob.o)
 .comment       0x000000000000005a       0x5b ../../../lib/libcircle.a(bcmframebuffer.o)
 .comment       0x000000000000005a       0x5b ../../../lib/libcircle.a(bcmmailbox.o)
 .comment       0x000000000000005a       0x5b ../../../lib/libcircle.a(chargenerator.o)
 .comment       0x000000000000005a       0x5b ../../../lib/libcircle.a(gpiomanager.o)
 .comment       0x000000000000005a       0x5b /home/olf/projects/circle/gcc-arm-9.2-2019.12-x86_64-arm-none-eabi/bin/../lib/gcc/arm-none-eabi/9.2.1/../../../../arm-none-eabi/lib/thumb/v8-a+simd/hard/libstdc++.a(class_type_info.o)
 .comment       0x000000000000005a       0x5b /home/olf/projects/circle/gcc-arm-9.2-2019.12-x86_64-arm-none-eabi/bin/../lib/gcc/arm-none-eabi/9.2.1/../../../../arm-none-eabi/lib/thumb/v8-a+simd/hard/libstdc++.a(del_ops.o)
 .comment       0x000000000000005a       0x5b /home/olf/projects/circle/gcc-arm-9.2-2019.12-x86_64-arm-none-eabi/bin/../lib/gcc/arm-none-eabi/9.2.1/../../../../arm-none-eabi/lib/thumb/v8-a+simd/hard/libstdc++.a(del_opv.o)
 .comment       0x000000000000005a       0x5b /home/olf/projects/circle/gcc-arm-9.2-2019.12-x86_64-arm-none-eabi/bin/../lib/gcc/arm-none-eabi/9.2.1/../../../../arm-none-eabi/lib/thumb/v8-a+simd/hard/libstdc++.a(eh_arm.o)
 .comment       0x000000000000005a       0x5b /home/olf/projects/circle/gcc-arm-9.2-2019.12-x86_64-arm-none-eabi/bin/../lib/gcc/arm-none-eabi/9.2.1/../../../../arm-none-eabi/lib/thumb/v8-a+simd/hard/libstdc++.a(eh_aux_runtime.o)
 .comment       0x000000000000005a       0x5b /home/olf/projects/circle/gcc-arm-9.2-2019.12-x86_64-arm-none-eabi/bin/../lib/gcc/arm-none-eabi/9.2.1/../../../../arm-none-eabi/lib/thumb/v8-a+simd/hard/libstdc++.a(eh_exception.o)
 .comment       0x000000000000005a       0x5b /home/olf/projects/circle/gcc-arm-9.2-2019.12-x86_64-arm-none-eabi/bin/../lib/gcc/arm-none-eabi/9.2.1/../../../../arm-none-eabi/lib/thumb/v8-a+simd/hard/libstdc++.a(eh_globals.o)
 .comment       0x000000000000005a       0x5b /home/olf/projects/circle/gcc-arm-9.2-2019.12-x86_64-arm-none-eabi/bin/../lib/gcc/arm-none-eabi/9.2.1/../../../../arm-none-eabi/lib/thumb/v8-a+simd/hard/libstdc++.a(eh_personality.o)
 .comment       0x000000000000005a       0x5b /home/olf/projects/circle/gcc-arm-9.2-2019.12-x86_64-arm-none-eabi/bin/../lib/gcc/arm-none-eabi/9.2.1/../../../../arm-none-eabi/lib/thumb/v8-a+simd/hard/libstdc++.a(eh_terminate.o)
 .comment       0x000000000000005a       0x5b /home/olf/projects/circle/gcc-arm-9.2-2019.12-x86_64-arm-none-eabi/bin/../lib/gcc/arm-none-eabi/9.2.1/../../../../arm-none-eabi/lib/thumb/v8-a+simd/hard/libstdc++.a(eh_throw.o)
 .comment       0x000000000000005a       0x5b /home/olf/projects/circle/gcc-arm-9.2-2019.12-x86_64-arm-none-eabi/bin/../lib/gcc/arm-none-eabi/9.2.1/../../../../arm-none-eabi/lib/thumb/v8-a+simd/hard/libstdc++.a(eh_unex_handler.o)
 .comment       0x000000000000005a       0x5b /home/olf/projects/circle/gcc-arm-9.2-2019.12-x86_64-arm-none-eabi/bin/../lib/gcc/arm-none-eabi/9.2.1/../../../../arm-none-eabi/lib/thumb/v8-a+simd/hard/libstdc++.a(new_op.o)
 .comment       0x000000000000005a       0x5b /home/olf/projects/circle/gcc-arm-9.2-2019.12-x86_64-arm-none-eabi/bin/../lib/gcc/arm-none-eabi/9.2.1/../../../../arm-none-eabi/lib/thumb/v8-a+simd/hard/libstdc++.a(new_opv.o)
 .comment       0x000000000000005a       0x5b /home/olf/projects/circle/gcc-arm-9.2-2019.12-x86_64-arm-none-eabi/bin/../lib/gcc/arm-none-eabi/9.2.1/../../../../arm-none-eabi/lib/thumb/v8-a+simd/hard/libstdc++.a(pure.o)
 .comment       0x000000000000005a       0x5b /home/olf/projects/circle/gcc-arm-9.2-2019.12-x86_64-arm-none-eabi/bin/../lib/gcc/arm-none-eabi/9.2.1/../../../../arm-none-eabi/lib/thumb/v8-a+simd/hard/libstdc++.a(si_class_type_info.o)
 .comment       0x000000000000005a       0x5b /home/olf/projects/circle/gcc-arm-9.2-2019.12-x86_64-arm-none-eabi/bin/../lib/gcc/arm-none-eabi/9.2.1/../../../../arm-none-eabi/lib/thumb/v8-a+simd/hard/libstdc++.a(tinfo.o)
 .comment       0x000000000000005a       0x5b /home/olf/projects/circle/gcc-arm-9.2-2019.12-x86_64-arm-none-eabi/bin/../lib/gcc/arm-none-eabi/9.2.1/../../../../arm-none-eabi/lib/thumb/v8-a+simd/hard/libstdc++.a(vmi_class_type_info.o)
 .comment       0x000000000000005a       0x5b /home/olf/projects/circle/gcc-arm-9.2-2019.12-x86_64-arm-none-eabi/bin/../lib/gcc/arm-none-eabi/9.2.1/../../../../arm-none-eabi/lib/thumb/v8-a+simd/hard/libstdc++.a(vterminate.o)
 .comment       0x000000000000005a       0x5b /home/olf/projects/circle/gcc-arm-9.2-2019.12-x86_64-arm-none-eabi/bin/../lib/gcc/arm-none-eabi/9.2.1/../../../../arm-none-eabi/lib/thumb/v8-a+simd/hard/libstdc++.a(bad_alloc.o)
 .comment       0x000000000000005a       0x5b /home/olf/projects/circle/gcc-arm-9.2-2019.12-x86_64-arm-none-eabi/bin/../lib/gcc/arm-none-eabi/9.2.1/../../../../arm-none-eabi/lib/thumb/v8-a+simd/hard/libstdc++.a(bad_array_new.o)
 .comment       0x000000000000005a       0x5b /home/olf/projects/circle/gcc-arm-9.2-2019.12-x86_64-arm-none-eabi/bin/../lib/gcc/arm-none-eabi/9.2.1/../../../../arm-none-eabi/lib/thumb/v8-a+simd/hard/libstdc++.a(bad_cast.o)
 .comment       0x000000000000005a       0x5b /home/olf/projects/circle/gcc-arm-9.2-2019.12-x86_64-arm-none-eabi/bin/../lib/gcc/arm-none-eabi/9.2.1/../../../../arm-none-eabi/lib/thumb/v8-a+simd/hard/libstdc++.a(bad_typeid.o)
 .comment       0x000000000000005a       0x5b /home/olf/projects/circle/gcc-arm-9.2-2019.12-x86_64-arm-none-eabi/bin/../lib/gcc/arm-none-eabi/9.2.1/../../../../arm-none-eabi/lib/thumb/v8-a+simd/hard/libstdc++.a(cp-demangle.o)
 .comment       0x000000000000005a       0x5b /home/olf/projects/circle/gcc-arm-9.2-2019.12-x86_64-arm-none-eabi/bin/../lib/gcc/arm-none-eabi/9.2.1/../../../../arm-none-eabi/lib/thumb/v8-a+simd/hard/libstdc++.a(del_op.o)
 .comment       0x000000000000005a       0x5b /home/olf/projects/circle/gcc-arm-9.2-2019.12-x86_64-arm-none-eabi/bin/../lib/gcc/arm-none-eabi/9.2.1/../../../../arm-none-eabi/lib/thumb/v8-a+simd/hard/libstdc++.a(eh_alloc.o)
 .comment       0x000000000000005a       0x5b /home/olf/projects/circle/gcc-arm-9.2-2019.12-x86_64-arm-none-eabi/bin/../lib/gcc/arm-none-eabi/9.2.1/../../../../arm-none-eabi/lib/thumb/v8-a+simd/hard/libstdc++.a(eh_call.o)
 .comment       0x000000000000005a       0x5b /home/olf/projects/circle/gcc-arm-9.2-2019.12-x86_64-arm-none-eabi/bin/../lib/gcc/arm-none-eabi/9.2.1/../../../../arm-none-eabi/lib/thumb/v8-a+simd/hard/libstdc++.a(eh_catch.o)
 .comment       0x000000000000005a       0x5b /home/olf/projects/circle/gcc-arm-9.2-2019.12-x86_64-arm-none-eabi/bin/../lib/gcc/arm-none-eabi/9.2.1/../../../../arm-none-eabi/lib/thumb/v8-a+simd/hard/libstdc++.a(eh_term_handler.o)
 .comment       0x000000000000005a       0x5b /home/olf/projects/circle/gcc-arm-9.2-2019.12-x86_64-arm-none-eabi/bin/../lib/gcc/arm-none-eabi/9.2.1/../../../../arm-none-eabi/lib/thumb/v8-a+simd/hard/libstdc++.a(eh_type.o)
 .comment       0x000000000000005a       0x5b /home/olf/projects/circle/gcc-arm-9.2-2019.12-x86_64-arm-none-eabi/bin/../lib/gcc/arm-none-eabi/9.2.1/../../../../arm-none-eabi/lib/thumb/v8-a+simd/hard/libstdc++.a(new_handler.o)
 .comment       0x000000000000005a       0x5b /home/olf/projects/circle/gcc-arm-9.2-2019.12-x86_64-arm-none-eabi/bin/../lib/gcc/arm-none-eabi/9.2.1/thumb/v8-a+simd/hard/libgcc.a(_udivmoddi4.o)
 .comment       0x000000000000005a       0x5b /home/olf/projects/circle/gcc-arm-9.2-2019.12-x86_64-arm-none-eabi/bin/../lib/gcc/arm-none-eabi/9.2.1/thumb/v8-a+simd/hard/libgcc.a(unwind-arm.o)
 .comment       0x000000000000005a       0x5b /home/olf/projects/circle/gcc-arm-9.2-2019.12-x86_64-arm-none-eabi/bin/../lib/gcc/arm-none-eabi/9.2.1/thumb/v8-a+simd/hard/libgcc.a(pr-support.o)

.ARM.attributes
                0x0000000000000000       0x37
 .ARM.attributes
                0x0000000000000000       0x39 main.o
 .ARM.attributes
                0x0000000000000039       0x39 kernel.o
 .ARM.attributes
                0x0000000000000072       0x39 ../../../addon/wlan/hostap/wpa_supplicant/libwpa_supplicant.a(wpasupplicant.o)
 .ARM.attributes
                0x00000000000000ab       0x39 ../../../addon/wlan/hostap/wpa_supplicant/libwpa_supplicant.a(eloop_circle.o)
 .ARM.attributes
                0x00000000000000e4       0x39 ../../../addon/wlan/hostap/wpa_supplicant/libwpa_supplicant.a(os_circle.o)
 .ARM.attributes
                0x000000000000011d       0x39 ../../../addon/wlan/hostap/wpa_supplicant/libwpa_supplicant.a(main_circle.o)
 .ARM.attributes
                0x0000000000000156       0x39 ../../../addon/wlan/hostap/wpa_supplicant/libwpa_supplicant.a(wpa_supplicant.o)
 .ARM.attributes
                0x000000000000018f       0x39 ../../../addon/wlan/hostap/wpa_supplicant/libwpa_supplicant.a(wpas_glue.o)
 .ARM.attributes
                0x00000000000001c8       0x40 ../../../addon/wlan/hostap/wpa_supplicant/libwpa_supplicant.a(drivers.o)
 .ARM.attributes
                0x0000000000000208       0x39 ../../../addon/wlan/hostap/wpa_supplicant/libwpa_supplicant.a(driver_circle.o)
 .ARM.attributes
                0x0000000000000241       0x39 ../../../addon/wlan/hostap/wpa_supplicant/libwpa_supplicant.a(scan_helpers.o)
 .ARM.attributes
                0x000000000000027a       0x39 ../../../addon/wlan/hostap/wpa_supplicant/libwpa_supplicant.a(eapol_supp_sm.o)
 .ARM.attributes
                0x00000000000002b3       0x39 ../../../addon/wlan/hostap/wpa_supplicant/libwpa_supplicant.a(eap.o)
 .ARM.attributes
                0x00000000000002ec       0x39 ../../../addon/wlan/hostap/wpa_supplicant/libwpa_supplicant.a(eap_methods.o)
 .ARM.attributes
                0x0000000000000325       0x39 ../../../addon/wlan/hostap/wpa_supplicant/libwpa_supplicant.a(l2_packet_circle.o)
 .ARM.attributes
                0x000000000000035e       0x39 ../../../addon/wlan/hostap/wpa_supplicant/libwpa_supplicant.a(pmksa_cache.o)
 .ARM.attributes
                0x0000000000000397       0x39 ../../../addon/wlan/hostap/wpa_supplicant/libwpa_supplicant.a(preauth.o)
 .ARM.attributes
                0x00000000000003d0       0x39 ../../../addon/wlan/hostap/wpa_supplicant/libwpa_supplicant.a(wpa.o)
 .ARM.attributes
                0x0000000000000409       0x39 ../../../addon/wlan/hostap/wpa_supplicant/libwpa_supplicant.a(wpa_ie.o)
 .ARM.attributes
                0x0000000000000442       0x39 ../../../addon/wlan/hostap/wpa_supplicant/libwpa_supplicant.a(common.o)
 .ARM.attributes
                0x000000000000047b       0x39 ../../../addon/wlan/hostap/wpa_supplicant/libwpa_supplicant.a(wpa_debug.o)
 .ARM.attributes
                0x00000000000004b4       0x39 ../../../addon/wlan/hostap/wpa_supplicant/libwpa_supplicant.a(wpabuf.o)
 .ARM.attributes
                0x00000000000004ed       0x39 ../../../addon/wlan/hostap/wpa_supplicant/libwpa_supplicant.a(blacklist.o)
 .ARM.attributes
                0x0000000000000526       0x39 ../../../addon/wlan/hostap/wpa_supplicant/libwpa_supplicant.a(config.o)
 .ARM.attributes
                0x000000000000055f       0x39 ../../../addon/wlan/hostap/wpa_supplicant/libwpa_supplicant.a(config_file_circle.o)
 .ARM.attributes
                0x0000000000000598       0x39 ../../../addon/wlan/hostap/wpa_supplicant/libwpa_supplicant.a(events.o)
 .ARM.attributes
                0x00000000000005d1       0x39 ../../../addon/wlan/hostap/wpa_supplicant/libwpa_supplicant.a(notify.o)
 .ARM.attributes
                0x000000000000060a       0x39 ../../../addon/wlan/hostap/wpa_supplicant/libwpa_supplicant.a(scan.o)
 .ARM.attributes
                0x0000000000000643       0x39 ../../../addon/wlan/hostap/wpa_supplicant/libwpa_supplicant.a(wpa_common.o)
 .ARM.attributes
                0x000000000000067c       0x39 ../../../addon/wlan/hostap/wpa_supplicant/libwpa_supplicant.a(aes-unwrap.o)
 .ARM.attributes
                0x00000000000006b5       0x39 ../../../addon/wlan/hostap/wpa_supplicant/libwpa_supplicant.a(md5-internal.o)
 .ARM.attributes
                0x00000000000006ee       0x39 ../../../addon/wlan/hostap/wpa_supplicant/libwpa_supplicant.a(md5.o)
 .ARM.attributes
                0x0000000000000727       0x39 ../../../addon/wlan/hostap/wpa_supplicant/libwpa_supplicant.a(rc4.o)
 .ARM.attributes
                0x0000000000000760       0x39 ../../../addon/wlan/hostap/wpa_supplicant/libwpa_supplicant.a(sha1-pbkdf2.o)
 .ARM.attributes
                0x0000000000000799       0x39 ../../../addon/wlan/hostap/wpa_supplicant/libwpa_supplicant.a(sha1.o)
 .ARM.attributes
                0x00000000000007d2       0x39 ../../../addon/wlan/hostap/wpa_supplicant/libwpa_supplicant.a(tls_none.o)
 .ARM.attributes
                0x000000000000080b       0x39 ../../../addon/wlan/hostap/wpa_supplicant/libwpa_supplicant.a(eap_common.o)
 .ARM.attributes
                0x0000000000000844       0x39 ../../../addon/wlan/hostap/wpa_supplicant/libwpa_supplicant.a(base64.o)
 .ARM.attributes
                0x000000000000087d       0x39 ../../../addon/wlan/hostap/wpa_supplicant/libwpa_supplicant.a(aes-internal-dec.o)
 .ARM.attributes
                0x00000000000008b6       0x39 ../../../addon/wlan/hostap/wpa_supplicant/libwpa_supplicant.a(aes-internal.o)
 .ARM.attributes
                0x00000000000008ef       0x39 ../../../addon/wlan/hostap/wpa_supplicant/libwpa_supplicant.a(sha1-internal.o)
 .ARM.attributes
                0x0000000000000928       0x39 ../../../addon/wlan/libwlan.a(bcm4343.o)
 .ARM.attributes
                0x0000000000000961       0x39 ../../../addon/wlan/libwlan.a(ether4330.o)
 .ARM.attributes
                0x000000000000099a       0x39 ../../../addon/wlan/libwlan.a(emmc.o)
 .ARM.attributes
                0x00000000000009d3       0x39 ../../../addon/wlan/libwlan.a(p9arch.o)
 .ARM.attributes
                0x0000000000000a0c       0x39 ../../../addon/wlan/libwlan.a(p9chan.o)
 .ARM.attributes
                0x0000000000000a45       0x39 ../../../addon/wlan/libwlan.a(p9cmd.o)
 .ARM.attributes
                0x0000000000000a7e       0x39 ../../../addon/wlan/libwlan.a(p9error.o)
 .ARM.attributes
                0x0000000000000ab7       0x39 ../../../addon/wlan/libwlan.a(p9ether.o)
 .ARM.attributes
                0x0000000000000af0       0x39 ../../../addon/wlan/libwlan.a(p9proc.o)
 .ARM.attributes
                0x0000000000000b29       0x39 ../../../addon/wlan/libwlan.a(p9util.o)
 .ARM.attributes
                0x0000000000000b62       0x39 ../../../addon/fatfs/libfatfs.a(ff.o)
 .ARM.attributes
                0x0000000000000b9b       0x39 ../../../addon/fatfs/libfatfs.a(diskio.o)
 .ARM.attributes
                0x0000000000000bd4       0x39 ../../../addon/fatfs/libfatfs.a(ffsystem.o)
 .ARM.attributes
                0x0000000000000c0d       0x39 ../../../addon/fatfs/libfatfs.a(ffunicode.o)
 .ARM.attributes
                0x0000000000000c46       0x39 ../../../addon/SDCard/libsdcard.a(emmc.o)
 .ARM.attributes
                0x0000000000000c7f       0x39 ../../../lib/net/libnet.a(netsubsystem.o)
 .ARM.attributes
                0x0000000000000cb8       0x39 ../../../lib/net/libnet.a(nettask.o)
 .ARM.attributes
                0x0000000000000cf1       0x39 ../../../lib/net/libnet.a(transportlayer.o)
 .ARM.attributes
                0x0000000000000d2a       0x39 ../../../lib/net/libnet.a(networklayer.o)
 .ARM.attributes
                0x0000000000000d63       0x39 ../../../lib/net/libnet.a(linklayer.o)
 .ARM.attributes
                0x0000000000000d9c       0x39 ../../../lib/net/libnet.a(netdevlayer.o)
 .ARM.attributes
                0x0000000000000dd5       0x39 ../../../lib/net/libnet.a(phytask.o)
 .ARM.attributes
                0x0000000000000e0e       0x39 ../../../lib/net/libnet.a(arphandler.o)
 .ARM.attributes
                0x0000000000000e47       0x39 ../../../lib/net/libnet.a(icmphandler.o)
 .ARM.attributes
                0x0000000000000e80       0x39 ../../../lib/net/libnet.a(routecache.o)
 .ARM.attributes
                0x0000000000000eb9       0x39 ../../../lib/net/libnet.a(netconnection.o)
 .ARM.attributes
                0x0000000000000ef2       0x39 ../../../lib/net/libnet.a(udpconnection.o)
 .ARM.attributes
                0x0000000000000f2b       0x39 ../../../lib/net/libnet.a(tcpconnection.o)
 .ARM.attributes
                0x0000000000000f64       0x39 ../../../lib/net/libnet.a(retransmissionqueue.o)
 .ARM.attributes
                0x0000000000000f9d       0x39 ../../../lib/net/libnet.a(retranstimeoutcalc.o)
 .ARM.attributes
                0x0000000000000fd6       0x39 ../../../lib/net/libnet.a(tcprejector.o)
 .ARM.attributes
                0x000000000000100f       0x39 ../../../lib/net/libnet.a(netconfig.o)
 .ARM.attributes
                0x0000000000001048       0x39 ../../../lib/net/libnet.a(ipaddress.o)
 .ARM.attributes
                0x0000000000001081       0x39 ../../../lib/net/libnet.a(netqueue.o)
 .ARM.attributes
                0x00000000000010ba       0x39 ../../../lib/net/libnet.a(checksumcalculator.o)
 .ARM.attributes
                0x00000000000010f3       0x39 ../../../lib/net/libnet.a(dhcpclient.o)
 .ARM.attributes
                0x000000000000112c       0x39 ../../../lib/net/libnet.a(ntpdaemon.o)
 .ARM.attributes
                0x0000000000001165       0x39 ../../../lib/net/libnet.a(socket.o)
 .ARM.attributes
                0x000000000000119e       0x39 ../../../lib/net/libnet.a(dnsclient.o)
 .ARM.attributes
                0x00000000000011d7       0x39 ../../../lib/net/libnet.a(ntpclient.o)
 .ARM.attributes
                0x0000000000001210       0x39 ../../../lib/net/libnet.a(netsocket.o)
 .ARM.attributes
                0x0000000000001249       0x39 ../../../lib/sched/libsched.a(task.o)
 .ARM.attributes
                0x0000000000001282       0x39 ../../../lib/sched/libsched.a(scheduler.o)
 .ARM.attributes
                0x00000000000012bb       0x25 ../../../lib/sched/libsched.a(taskswitch.o)
 .ARM.attributes
                0x00000000000012e0       0x39 ../../../lib/sched/libsched.a(synchronizationevent.o)
 .ARM.attributes
                0x0000000000001319       0x39 ../../../lib/usb/libusb.a(xhcidevice.o)
 .ARM.attributes
                0x0000000000001352       0x39 ../../../lib/usb/libusb.a(xhciendpoint.o)
 .ARM.attributes
                0x000000000000138b       0x39 ../../../lib/usb/libusb.a(xhcieventmanager.o)
 .ARM.attributes
                0x00000000000013c4       0x39 ../../../lib/usb/libusb.a(xhcimmiospace.o)
 .ARM.attributes
                0x00000000000013fd       0x39 ../../../lib/usb/libusb.a(xhciring.o)
 .ARM.attributes
                0x0000000000001436       0x39 ../../../lib/usb/libusb.a(xhciroothub.o)
 .ARM.attributes
                0x000000000000146f       0x39 ../../../lib/usb/libusb.a(xhcirootport.o)
 .ARM.attributes
                0x00000000000014a8       0x39 ../../../lib/usb/libusb.a(xhcisharedmemallocator.o)
 .ARM.attributes
                0x00000000000014e1       0x39 ../../../lib/usb/libusb.a(xhcislotmanager.o)
 .ARM.attributes
                0x000000000000151a       0x39 ../../../lib/usb/libusb.a(xhciusbdevice.o)
 .ARM.attributes
                0x0000000000001553       0x39 ../../../lib/usb/libusb.a(usbdevice.o)
 .ARM.attributes
                0x000000000000158c       0x39 ../../../lib/usb/libusb.a(usbdevicefactory.o)
 .ARM.attributes
                0x00000000000015c5       0x39 ../../../lib/usb/libusb.a(usbendpoint.o)
 .ARM.attributes
                0x00000000000015fe       0x39 ../../../lib/usb/libusb.a(usbfunction.o)
 .ARM.attributes
                0x0000000000001637       0x39 ../../../lib/usb/libusb.a(usbgamepadps3.o)
 .ARM.attributes
                0x0000000000001670       0x39 ../../../lib/usb/libusb.a(usbgamepadps4.o)
 .ARM.attributes
                0x00000000000016a9       0x39 ../../../lib/usb/libusb.a(usbgamepadstandard.o)
 .ARM.attributes
                0x00000000000016e2       0x39 ../../../lib/usb/libusb.a(usbgamepadswitchpro.o)
 .ARM.attributes
                0x000000000000171b       0x39 ../../../lib/usb/libusb.a(usbgamepadxbox360.o)
 .ARM.attributes
                0x0000000000001754       0x39 ../../../lib/usb/libusb.a(usbgamepadxboxone.o)
 .ARM.attributes
                0x000000000000178d       0x39 ../../../lib/usb/libusb.a(usbhiddevice.o)
 .ARM.attributes
                0x00000000000017c6       0x39 ../../../lib/usb/libusb.a(usbhostcontroller.o)
 .ARM.attributes
                0x00000000000017ff       0x39 ../../../lib/usb/libusb.a(usbkeyboard.o)
 .ARM.attributes
                0x0000000000001838       0x39 ../../../lib/usb/libusb.a(usbmassdevice.o)
 .ARM.attributes
                0x0000000000001871       0x39 ../../../lib/usb/libusb.a(usbmidi.o)
 .ARM.attributes
                0x00000000000018aa       0x39 ../../../lib/usb/libusb.a(usbmouse.o)
 .ARM.attributes
                0x00000000000018e3       0x39 ../../../lib/usb/libusb.a(usbprinter.o)
 .ARM.attributes
                0x000000000000191c       0x39 ../../../lib/usb/libusb.a(usbrequest.o)
 .ARM.attributes
                0x0000000000001955       0x39 ../../../lib/usb/libusb.a(usbstandardhub.o)
 .ARM.attributes
                0x000000000000198e       0x39 ../../../lib/usb/libusb.a(xhcicommandmanager.o)
 .ARM.attributes
                0x00000000000019c7       0x39 ../../../lib/usb/libusb.a(lan7800.o)
 .ARM.attributes
                0x0000000000001a00       0x39 ../../../lib/usb/libusb.a(smsc951x.o)
 .ARM.attributes
                0x0000000000001a39       0x39 ../../../lib/usb/libusb.a(usbbluetooth.o)
 .ARM.attributes
                0x0000000000001a72       0x39 ../../../lib/usb/libusb.a(usbcdcethernet.o)
 .ARM.attributes
                0x0000000000001aab       0x39 ../../../lib/usb/libusb.a(usbconfigparser.o)
 .ARM.attributes
                0x0000000000001ae4       0x39 ../../../lib/usb/libusb.a(usbgamepad.o)
 .ARM.attributes
                0x0000000000001b1d       0x39 ../../../lib/usb/libusb.a(usbstring.o)
 .ARM.attributes
                0x0000000000001b56       0x39 ../../../lib/input/libinput.a(keyboardbehaviour.o)
 .ARM.attributes
                0x0000000000001b8f       0x39 ../../../lib/input/libinput.a(keymap.o)
 .ARM.attributes
                0x0000000000001bc8       0x39 ../../../lib/input/libinput.a(mouse.o)
 .ARM.attributes
                0x0000000000001c01       0x39 ../../../lib/input/libinput.a(mousebehaviour.o)
 .ARM.attributes
                0x0000000000001c3a       0x39 ../../../lib/fs/libfs.a(partitionmanager.o)
 .ARM.attributes
                0x0000000000001c73       0x39 ../../../lib/fs/libfs.a(partition.o)
 .ARM.attributes
                0x0000000000001cac       0x39 ../../../lib/libcircle.a(actled.o)
 .ARM.attributes
                0x0000000000001ce5       0x39 ../../../lib/libcircle.a(alloc.o)
 .ARM.attributes
                0x0000000000001d1e       0x39 ../../../lib/libcircle.a(assert.o)
 .ARM.attributes
                0x0000000000001d57       0x39 ../../../lib/libcircle.a(bcmpropertytags.o)
 .ARM.attributes
                0x0000000000001d90       0x39 ../../../lib/libcircle.a(classallocator.o)
 .ARM.attributes
                0x0000000000001dc9       0x39 ../../../lib/libcircle.a(debug.o)
 .ARM.attributes
                0x0000000000001e02       0x39 ../../../lib/libcircle.a(device.o)
 .ARM.attributes
                0x0000000000001e3b       0x39 ../../../lib/libcircle.a(devicenameservice.o)
 .ARM.attributes
                0x0000000000001e74       0x39 ../../../lib/libcircle.a(dmachannel.o)
 .ARM.attributes
                0x0000000000001ead       0x39 ../../../lib/libcircle.a(gpiopin.o)
 .ARM.attributes
                0x0000000000001ee6       0x39 ../../../lib/libcircle.a(koptions.o)
 .ARM.attributes
                0x0000000000001f1f       0x39 ../../../lib/libcircle.a(logger.o)
 .ARM.attributes
                0x0000000000001f58       0x39 ../../../lib/libcircle.a(machineinfo.o)
 .ARM.attributes
                0x0000000000001f91       0x39 ../../../lib/libcircle.a(ptrarray.o)
 .ARM.attributes
                0x0000000000001fca       0x39 ../../../lib/libcircle.a(ptrlist.o)
 .ARM.attributes
                0x0000000000002003       0x39 ../../../lib/libcircle.a(screen.o)
 .ARM.attributes
                0x000000000000203c       0x39 ../../../lib/libcircle.a(serial.o)
 .ARM.attributes
                0x0000000000002075       0x39 ../../../lib/libcircle.a(string.o)
 .ARM.attributes
                0x00000000000020ae       0x39 ../../../lib/libcircle.a(sysinit.o)
 .ARM.attributes
                0x00000000000020e7       0x39 ../../../lib/libcircle.a(timer.o)
 .ARM.attributes
                0x0000000000002120       0x39 ../../../lib/libcircle.a(util.o)
 .ARM.attributes
                0x0000000000002159       0x25 ../../../lib/libcircle.a(util_fast.o)
 .ARM.attributes
                0x000000000000217e       0x39 ../../../lib/libcircle.a(virtualgpiopin.o)
 .ARM.attributes
                0x00000000000021b7       0x39 ../../../lib/libcircle.a(chainboot.o)
 .ARM.attributes
                0x00000000000021f0       0x39 ../../../lib/libcircle.a(macaddress.o)
 .ARM.attributes
                0x0000000000002229       0x39 ../../../lib/libcircle.a(netdevice.o)
 .ARM.attributes
                0x0000000000002262       0x39 ../../../lib/libcircle.a(new.o)
 .ARM.attributes
                0x000000000000229b       0x39 ../../../lib/libcircle.a(heapallocator.o)
 .ARM.attributes
                0x00000000000022d4       0x39 ../../../lib/libcircle.a(pageallocator.o)
 .ARM.attributes
                0x000000000000230d       0x25 ../../../lib/libcircle.a(setjmp.o)
 .ARM.attributes
                0x0000000000002332       0x39 ../../../lib/libcircle.a(numberpool.o)
 .ARM.attributes
                0x000000000000236b       0x25 ../../../lib/libcircle.a(cache-v7.o)
 .ARM.attributes
                0x0000000000002390       0x39 ../../../lib/libcircle.a(exceptionhandler.o)
 .ARM.attributes
                0x00000000000023c9       0x25 ../../../lib/libcircle.a(exceptionstub.o)
 .ARM.attributes
                0x00000000000023ee       0x39 ../../../lib/libcircle.a(memory.o)
 .ARM.attributes
                0x0000000000002427       0x39 ../../../lib/libcircle.a(pagetable.o)
 .ARM.attributes
                0x0000000000002460       0x25 ../../../lib/libcircle.a(startup.o)
 .ARM.attributes
                0x0000000000002485       0x39 ../../../lib/libcircle.a(synchronize.o)
 .ARM.attributes
                0x00000000000024be       0x39 ../../../lib/libcircle.a(bcm54213.o)
 .ARM.attributes
                0x00000000000024f7       0x39 ../../../lib/libcircle.a(bcmpciehostbridge.o)
 .ARM.attributes
                0x0000000000002530       0x39 ../../../lib/libcircle.a(bcmrandom200.o)
 .ARM.attributes
                0x0000000000002569       0x39 ../../../lib/libcircle.a(interruptgic.o)
 .ARM.attributes
                0x00000000000025a2       0x39 ../../../lib/libcircle.a(dma4channel.o)
 .ARM.attributes
                0x00000000000025db       0x39 ../../../lib/libcircle.a(devicetreeblob.o)
 .ARM.attributes
                0x0000000000002614       0x39 ../../../lib/libcircle.a(bcmframebuffer.o)
 .ARM.attributes
                0x000000000000264d       0x39 ../../../lib/libcircle.a(bcmmailbox.o)
 .ARM.attributes
                0x0000000000002686       0x39 ../../../lib/libcircle.a(chargenerator.o)
 .ARM.attributes
                0x00000000000026bf       0x25 ../../../lib/libcircle.a(delayloop.o)
 .ARM.attributes
                0x00000000000026e4       0x39 ../../../lib/libcircle.a(gpiomanager.o)
 .ARM.attributes
                0x000000000000271d       0x39 /home/olf/projects/circle/gcc-arm-9.2-2019.12-x86_64-arm-none-eabi/bin/../lib/gcc/arm-none-eabi/9.2.1/../../../../arm-none-eabi/lib/thumb/v8-a+simd/hard/libstdc++.a(class_type_info.o)
 .ARM.attributes
                0x0000000000002756       0x39 /home/olf/projects/circle/gcc-arm-9.2-2019.12-x86_64-arm-none-eabi/bin/../lib/gcc/arm-none-eabi/9.2.1/../../../../arm-none-eabi/lib/thumb/v8-a+simd/hard/libstdc++.a(del_ops.o)
 .ARM.attributes
                0x000000000000278f       0x39 /home/olf/projects/circle/gcc-arm-9.2-2019.12-x86_64-arm-none-eabi/bin/../lib/gcc/arm-none-eabi/9.2.1/../../../../arm-none-eabi/lib/thumb/v8-a+simd/hard/libstdc++.a(del_opv.o)
 .ARM.attributes
                0x00000000000027c8       0x39 /home/olf/projects/circle/gcc-arm-9.2-2019.12-x86_64-arm-none-eabi/bin/../lib/gcc/arm-none-eabi/9.2.1/../../../../arm-none-eabi/lib/thumb/v8-a+simd/hard/libstdc++.a(eh_arm.o)
 .ARM.attributes
                0x0000000000002801       0x39 /home/olf/projects/circle/gcc-arm-9.2-2019.12-x86_64-arm-none-eabi/bin/../lib/gcc/arm-none-eabi/9.2.1/../../../../arm-none-eabi/lib/thumb/v8-a+simd/hard/libstdc++.a(eh_aux_runtime.o)
 .ARM.attributes
                0x000000000000283a       0x39 /home/olf/projects/circle/gcc-arm-9.2-2019.12-x86_64-arm-none-eabi/bin/../lib/gcc/arm-none-eabi/9.2.1/../../../../arm-none-eabi/lib/thumb/v8-a+simd/hard/libstdc++.a(eh_exception.o)
 .ARM.attributes
                0x0000000000002873       0x39 /home/olf/projects/circle/gcc-arm-9.2-2019.12-x86_64-arm-none-eabi/bin/../lib/gcc/arm-none-eabi/9.2.1/../../../../arm-none-eabi/lib/thumb/v8-a+simd/hard/libstdc++.a(eh_globals.o)
 .ARM.attributes
                0x00000000000028ac       0x39 /home/olf/projects/circle/gcc-arm-9.2-2019.12-x86_64-arm-none-eabi/bin/../lib/gcc/arm-none-eabi/9.2.1/../../../../arm-none-eabi/lib/thumb/v8-a+simd/hard/libstdc++.a(eh_personality.o)
 .ARM.attributes
                0x00000000000028e5       0x39 /home/olf/projects/circle/gcc-arm-9.2-2019.12-x86_64-arm-none-eabi/bin/../lib/gcc/arm-none-eabi/9.2.1/../../../../arm-none-eabi/lib/thumb/v8-a+simd/hard/libstdc++.a(eh_terminate.o)
 .ARM.attributes
                0x000000000000291e       0x39 /home/olf/projects/circle/gcc-arm-9.2-2019.12-x86_64-arm-none-eabi/bin/../lib/gcc/arm-none-eabi/9.2.1/../../../../arm-none-eabi/lib/thumb/v8-a+simd/hard/libstdc++.a(eh_throw.o)
 .ARM.attributes
                0x0000000000002957       0x35 /home/olf/projects/circle/gcc-arm-9.2-2019.12-x86_64-arm-none-eabi/bin/../lib/gcc/arm-none-eabi/9.2.1/../../../../arm-none-eabi/lib/thumb/v8-a+simd/hard/libstdc++.a(eh_unex_handler.o)
 .ARM.attributes
                0x000000000000298c       0x39 /home/olf/projects/circle/gcc-arm-9.2-2019.12-x86_64-arm-none-eabi/bin/../lib/gcc/arm-none-eabi/9.2.1/../../../../arm-none-eabi/lib/thumb/v8-a+simd/hard/libstdc++.a(new_op.o)
 .ARM.attributes
                0x00000000000029c5       0x39 /home/olf/projects/circle/gcc-arm-9.2-2019.12-x86_64-arm-none-eabi/bin/../lib/gcc/arm-none-eabi/9.2.1/../../../../arm-none-eabi/lib/thumb/v8-a+simd/hard/libstdc++.a(new_opv.o)
 .ARM.attributes
                0x00000000000029fe       0x39 /home/olf/projects/circle/gcc-arm-9.2-2019.12-x86_64-arm-none-eabi/bin/../lib/gcc/arm-none-eabi/9.2.1/../../../../arm-none-eabi/lib/thumb/v8-a+simd/hard/libstdc++.a(pure.o)
 .ARM.attributes
                0x0000000000002a37       0x39 /home/olf/projects/circle/gcc-arm-9.2-2019.12-x86_64-arm-none-eabi/bin/../lib/gcc/arm-none-eabi/9.2.1/../../../../arm-none-eabi/lib/thumb/v8-a+simd/hard/libstdc++.a(si_class_type_info.o)
 .ARM.attributes
                0x0000000000002a70       0x39 /home/olf/projects/circle/gcc-arm-9.2-2019.12-x86_64-arm-none-eabi/bin/../lib/gcc/arm-none-eabi/9.2.1/../../../../arm-none-eabi/lib/thumb/v8-a+simd/hard/libstdc++.a(tinfo.o)
 .ARM.attributes
                0x0000000000002aa9       0x39 /home/olf/projects/circle/gcc-arm-9.2-2019.12-x86_64-arm-none-eabi/bin/../lib/gcc/arm-none-eabi/9.2.1/../../../../arm-none-eabi/lib/thumb/v8-a+simd/hard/libstdc++.a(vmi_class_type_info.o)
 .ARM.attributes
                0x0000000000002ae2       0x39 /home/olf/projects/circle/gcc-arm-9.2-2019.12-x86_64-arm-none-eabi/bin/../lib/gcc/arm-none-eabi/9.2.1/../../../../arm-none-eabi/lib/thumb/v8-a+simd/hard/libstdc++.a(vterminate.o)
 .ARM.attributes
                0x0000000000002b1b       0x39 /home/olf/projects/circle/gcc-arm-9.2-2019.12-x86_64-arm-none-eabi/bin/../lib/gcc/arm-none-eabi/9.2.1/../../../../arm-none-eabi/lib/thumb/v8-a+simd/hard/libstdc++.a(bad_alloc.o)
 .ARM.attributes
                0x0000000000002b54       0x39 /home/olf/projects/circle/gcc-arm-9.2-2019.12-x86_64-arm-none-eabi/bin/../lib/gcc/arm-none-eabi/9.2.1/../../../../arm-none-eabi/lib/thumb/v8-a+simd/hard/libstdc++.a(bad_array_new.o)
 .ARM.attributes
                0x0000000000002b8d       0x39 /home/olf/projects/circle/gcc-arm-9.2-2019.12-x86_64-arm-none-eabi/bin/../lib/gcc/arm-none-eabi/9.2.1/../../../../arm-none-eabi/lib/thumb/v8-a+simd/hard/libstdc++.a(bad_cast.o)
 .ARM.attributes
                0x0000000000002bc6       0x39 /home/olf/projects/circle/gcc-arm-9.2-2019.12-x86_64-arm-none-eabi/bin/../lib/gcc/arm-none-eabi/9.2.1/../../../../arm-none-eabi/lib/thumb/v8-a+simd/hard/libstdc++.a(bad_typeid.o)
 .ARM.attributes
                0x0000000000002bff       0x39 /home/olf/projects/circle/gcc-arm-9.2-2019.12-x86_64-arm-none-eabi/bin/../lib/gcc/arm-none-eabi/9.2.1/../../../../arm-none-eabi/lib/thumb/v8-a+simd/hard/libstdc++.a(cp-demangle.o)
 .ARM.attributes
                0x0000000000002c38       0x39 /home/olf/projects/circle/gcc-arm-9.2-2019.12-x86_64-arm-none-eabi/bin/../lib/gcc/arm-none-eabi/9.2.1/../../../../arm-none-eabi/lib/thumb/v8-a+simd/hard/libstdc++.a(del_op.o)
 .ARM.attributes
                0x0000000000002c71       0x39 /home/olf/projects/circle/gcc-arm-9.2-2019.12-x86_64-arm-none-eabi/bin/../lib/gcc/arm-none-eabi/9.2.1/../../../../arm-none-eabi/lib/thumb/v8-a+simd/hard/libstdc++.a(eh_alloc.o)
 .ARM.attributes
                0x0000000000002caa       0x39 /home/olf/projects/circle/gcc-arm-9.2-2019.12-x86_64-arm-none-eabi/bin/../lib/gcc/arm-none-eabi/9.2.1/../../../../arm-none-eabi/lib/thumb/v8-a+simd/hard/libstdc++.a(eh_call.o)
 .ARM.attributes
                0x0000000000002ce3       0x39 /home/olf/projects/circle/gcc-arm-9.2-2019.12-x86_64-arm-none-eabi/bin/../lib/gcc/arm-none-eabi/9.2.1/../../../../arm-none-eabi/lib/thumb/v8-a+simd/hard/libstdc++.a(eh_catch.o)
 .ARM.attributes
                0x0000000000002d1c       0x35 /home/olf/projects/circle/gcc-arm-9.2-2019.12-x86_64-arm-none-eabi/bin/../lib/gcc/arm-none-eabi/9.2.1/../../../../arm-none-eabi/lib/thumb/v8-a+simd/hard/libstdc++.a(eh_term_handler.o)
 .ARM.attributes
                0x0000000000002d51       0x39 /home/olf/projects/circle/gcc-arm-9.2-2019.12-x86_64-arm-none-eabi/bin/../lib/gcc/arm-none-eabi/9.2.1/../../../../arm-none-eabi/lib/thumb/v8-a+simd/hard/libstdc++.a(eh_type.o)
 .ARM.attributes
                0x0000000000002d8a       0x39 /home/olf/projects/circle/gcc-arm-9.2-2019.12-x86_64-arm-none-eabi/bin/../lib/gcc/arm-none-eabi/9.2.1/../../../../arm-none-eabi/lib/thumb/v8-a+simd/hard/libstdc++.a(new_handler.o)
 .ARM.attributes
                0x0000000000002dc3       0x23 /home/olf/projects/circle/gcc-arm-9.2-2019.12-x86_64-arm-none-eabi/bin/../lib/gcc/arm-none-eabi/9.2.1/thumb/v8-a+simd/hard/libgcc.a(_aeabi_ldivmod.o)
 .ARM.attributes
                0x0000000000002de6       0x23 /home/olf/projects/circle/gcc-arm-9.2-2019.12-x86_64-arm-none-eabi/bin/../lib/gcc/arm-none-eabi/9.2.1/thumb/v8-a+simd/hard/libgcc.a(_aeabi_uldivmod.o)
 .ARM.attributes
                0x0000000000002e09       0x39 /home/olf/projects/circle/gcc-arm-9.2-2019.12-x86_64-arm-none-eabi/bin/../lib/gcc/arm-none-eabi/9.2.1/thumb/v8-a+simd/hard/libgcc.a(_udivmoddi4.o)
 .ARM.attributes
                0x0000000000002e42       0x39 /home/olf/projects/circle/gcc-arm-9.2-2019.12-x86_64-arm-none-eabi/bin/../lib/gcc/arm-none-eabi/9.2.1/thumb/v8-a+simd/hard/libgcc.a(unwind-arm.o)
 .ARM.attributes
                0x0000000000002e7b       0x23 /home/olf/projects/circle/gcc-arm-9.2-2019.12-x86_64-arm-none-eabi/bin/../lib/gcc/arm-none-eabi/9.2.1/thumb/v8-a+simd/hard/libgcc.a(libunwind.o)
 .ARM.attributes
                0x0000000000002e9e       0x39 /home/olf/projects/circle/gcc-arm-9.2-2019.12-x86_64-arm-none-eabi/bin/../lib/gcc/arm-none-eabi/9.2.1/thumb/v8-a+simd/hard/libgcc.a(pr-support.o)
 .ARM.attributes
                0x0000000000002ed7       0x23 /home/olf/projects/circle/gcc-arm-9.2-2019.12-x86_64-arm-none-eabi/bin/../lib/gcc/arm-none-eabi/9.2.1/thumb/v8-a+simd/hard/libgcc.a(_dvmd_tls.o)

.debug_frame    0x0000000000000000    0x14dc8
 .debug_frame   0x0000000000000000       0x30 main.o
 .debug_frame   0x0000000000000030       0xdc kernel.o
 .debug_frame   0x000000000000010c       0xa8 ../../../addon/wlan/hostap/wpa_supplicant/libwpa_supplicant.a(wpasupplicant.o)
 .debug_frame   0x00000000000001b4      0x1b8 ../../../addon/wlan/hostap/wpa_supplicant/libwpa_supplicant.a(eloop_circle.o)
 .debug_frame   0x000000000000036c      0x27c ../../../addon/wlan/hostap/wpa_supplicant/libwpa_supplicant.a(os_circle.o)
 .debug_frame   0x00000000000005e8       0x3c ../../../addon/wlan/hostap/wpa_supplicant/libwpa_supplicant.a(main_circle.o)
 .debug_frame   0x0000000000000624      0x71c ../../../addon/wlan/hostap/wpa_supplicant/libwpa_supplicant.a(wpa_supplicant.o)
 .debug_frame   0x0000000000000d40      0x40c ../../../addon/wlan/hostap/wpa_supplicant/libwpa_supplicant.a(wpas_glue.o)
 .debug_frame   0x000000000000114c      0x244 ../../../addon/wlan/hostap/wpa_supplicant/libwpa_supplicant.a(driver_circle.o)
 .debug_frame   0x0000000000001390      0x124 ../../../addon/wlan/hostap/wpa_supplicant/libwpa_supplicant.a(scan_helpers.o)
 .debug_frame   0x00000000000014b4      0x640 ../../../addon/wlan/hostap/wpa_supplicant/libwpa_supplicant.a(eapol_supp_sm.o)
 .debug_frame   0x0000000000001af4      0x61c ../../../addon/wlan/hostap/wpa_supplicant/libwpa_supplicant.a(eap.o)
 .debug_frame   0x0000000000002110      0x1bc ../../../addon/wlan/hostap/wpa_supplicant/libwpa_supplicant.a(eap_methods.o)
 .debug_frame   0x00000000000022cc      0x158 ../../../addon/wlan/hostap/wpa_supplicant/libwpa_supplicant.a(l2_packet_circle.o)
 .debug_frame   0x0000000000002424      0x220 ../../../addon/wlan/hostap/wpa_supplicant/libwpa_supplicant.a(pmksa_cache.o)
 .debug_frame   0x0000000000002644      0x288 ../../../addon/wlan/hostap/wpa_supplicant/libwpa_supplicant.a(preauth.o)
 .debug_frame   0x00000000000028cc      0x568 ../../../addon/wlan/hostap/wpa_supplicant/libwpa_supplicant.a(wpa.o)
 .debug_frame   0x0000000000002e34       0xf8 ../../../addon/wlan/hostap/wpa_supplicant/libwpa_supplicant.a(wpa_ie.o)
 .debug_frame   0x0000000000002f2c      0x178 ../../../addon/wlan/hostap/wpa_supplicant/libwpa_supplicant.a(common.o)
 .debug_frame   0x00000000000030a4      0x268 ../../../addon/wlan/hostap/wpa_supplicant/libwpa_supplicant.a(wpa_debug.o)
 .debug_frame   0x000000000000330c      0x1d4 ../../../addon/wlan/hostap/wpa_supplicant/libwpa_supplicant.a(wpabuf.o)
 .debug_frame   0x00000000000034e0       0xd8 ../../../addon/wlan/hostap/wpa_supplicant/libwpa_supplicant.a(blacklist.o)
 .debug_frame   0x00000000000035b8      0xa6c ../../../addon/wlan/hostap/wpa_supplicant/libwpa_supplicant.a(config.o)
 .debug_frame   0x0000000000004024      0x1b4 ../../../addon/wlan/hostap/wpa_supplicant/libwpa_supplicant.a(config_file_circle.o)
 .debug_frame   0x00000000000041d8      0x15c ../../../addon/wlan/hostap/wpa_supplicant/libwpa_supplicant.a(events.o)
 .debug_frame   0x0000000000004334      0x190 ../../../addon/wlan/hostap/wpa_supplicant/libwpa_supplicant.a(notify.o)
 .debug_frame   0x00000000000044c4      0x10c ../../../addon/wlan/hostap/wpa_supplicant/libwpa_supplicant.a(scan.o)
 .debug_frame   0x00000000000045d0      0x120 ../../../addon/wlan/hostap/wpa_supplicant/libwpa_supplicant.a(wpa_common.o)
 .debug_frame   0x00000000000046f0       0x54 ../../../addon/wlan/hostap/wpa_supplicant/libwpa_supplicant.a(aes-unwrap.o)
 .debug_frame   0x0000000000004744       0xf0 ../../../addon/wlan/hostap/wpa_supplicant/libwpa_supplicant.a(md5-internal.o)
 .debug_frame   0x0000000000004834       0x64 ../../../addon/wlan/hostap/wpa_supplicant/libwpa_supplicant.a(md5.o)
 .debug_frame   0x0000000000004898       0x4c ../../../addon/wlan/hostap/wpa_supplicant/libwpa_supplicant.a(rc4.o)
 .debug_frame   0x00000000000048e4       0x50 ../../../addon/wlan/hostap/wpa_supplicant/libwpa_supplicant.a(sha1-pbkdf2.o)
 .debug_frame   0x0000000000004934       0xa8 ../../../addon/wlan/hostap/wpa_supplicant/libwpa_supplicant.a(sha1.o)
 .debug_frame   0x00000000000049dc       0x30 ../../../addon/wlan/hostap/wpa_supplicant/libwpa_supplicant.a(tls_none.o)
 .debug_frame   0x0000000000004a0c       0xcc ../../../addon/wlan/hostap/wpa_supplicant/libwpa_supplicant.a(eap_common.o)
 .debug_frame   0x0000000000004ad8       0x80 ../../../addon/wlan/hostap/wpa_supplicant/libwpa_supplicant.a(base64.o)
 .debug_frame   0x0000000000004b58       0xc8 ../../../addon/wlan/hostap/wpa_supplicant/libwpa_supplicant.a(aes-internal-dec.o)
 .debug_frame   0x0000000000004c20       0x4c ../../../addon/wlan/hostap/wpa_supplicant/libwpa_supplicant.a(aes-internal.o)
 .debug_frame   0x0000000000004c6c       0xf8 ../../../addon/wlan/hostap/wpa_supplicant/libwpa_supplicant.a(sha1-internal.o)
 .debug_frame   0x0000000000004d64      0x300 ../../../addon/wlan/libwlan.a(bcm4343.o)
 .debug_frame   0x0000000000005064      0x6b8 ../../../addon/wlan/libwlan.a(ether4330.o)
 .debug_frame   0x000000000000571c      0x1e8 ../../../addon/wlan/libwlan.a(emmc.o)
 .debug_frame   0x0000000000005904      0x184 ../../../addon/wlan/libwlan.a(p9arch.o)
 .debug_frame   0x0000000000005a88       0xc8 ../../../addon/wlan/libwlan.a(p9chan.o)
 .debug_frame   0x0000000000005b50       0xb8 ../../../addon/wlan/libwlan.a(p9cmd.o)
 .debug_frame   0x0000000000005c08       0x98 ../../../addon/wlan/libwlan.a(p9error.o)
 .debug_frame   0x0000000000005ca0      0x118 ../../../addon/wlan/libwlan.a(p9ether.o)
 .debug_frame   0x0000000000005db8      0x1ec ../../../addon/wlan/libwlan.a(p9proc.o)
 .debug_frame   0x0000000000005fa4      0x148 ../../../addon/wlan/libwlan.a(p9util.o)
 .debug_frame   0x00000000000060ec      0xbc8 ../../../addon/fatfs/libfatfs.a(ff.o)
 .debug_frame   0x0000000000006cb4      0x128 ../../../addon/fatfs/libfatfs.a(diskio.o)
 .debug_frame   0x0000000000006ddc       0xf4 ../../../addon/fatfs/libfatfs.a(ffsystem.o)
 .debug_frame   0x0000000000006ed0       0x58 ../../../addon/fatfs/libfatfs.a(ffunicode.o)
 .debug_frame   0x0000000000006f28      0x4fc ../../../addon/SDCard/libsdcard.a(emmc.o)
 .debug_frame   0x0000000000007424      0x148 ../../../lib/net/libnet.a(netsubsystem.o)
 .debug_frame   0x000000000000756c       0x90 ../../../lib/net/libnet.a(nettask.o)
 .debug_frame   0x00000000000075fc      0x47c ../../../lib/net/libnet.a(transportlayer.o)
 .debug_frame   0x0000000000007a78      0x1dc ../../../lib/net/libnet.a(networklayer.o)
 .debug_frame   0x0000000000007c54      0x1f8 ../../../lib/net/libnet.a(linklayer.o)
 .debug_frame   0x0000000000007e4c      0x130 ../../../lib/net/libnet.a(netdevlayer.o)
 .debug_frame   0x0000000000007f7c       0xb4 ../../../lib/net/libnet.a(phytask.o)
 .debug_frame   0x0000000000008030      0x1fc ../../../lib/net/libnet.a(arphandler.o)
 .debug_frame   0x000000000000822c       0xec ../../../lib/net/libnet.a(icmphandler.o)
 .debug_frame   0x0000000000008318       0xe4 ../../../lib/net/libnet.a(routecache.o)
 .debug_frame   0x00000000000083fc       0xf8 ../../../lib/net/libnet.a(netconnection.o)
 .debug_frame   0x00000000000084f4      0x288 ../../../lib/net/libnet.a(udpconnection.o)
 .debug_frame   0x000000000000877c      0x508 ../../../lib/net/libnet.a(tcpconnection.o)
 .debug_frame   0x0000000000008c84      0x148 ../../../lib/net/libnet.a(retransmissionqueue.o)
 .debug_frame   0x0000000000008dcc      0x11c ../../../lib/net/libnet.a(retranstimeoutcalc.o)
 .debug_frame   0x0000000000008ee8      0x1a0 ../../../lib/net/libnet.a(tcprejector.o)
 .debug_frame   0x0000000000009088      0x1e8 ../../../lib/net/libnet.a(netconfig.o)
 .debug_frame   0x0000000000009270      0x280 ../../../lib/net/libnet.a(ipaddress.o)
 .debug_frame   0x00000000000094f0       0xf4 ../../../lib/net/libnet.a(netqueue.o)
 .debug_frame   0x00000000000095e4      0x130 ../../../lib/net/libnet.a(checksumcalculator.o)
 .debug_frame   0x0000000000009714      0x318 ../../../lib/net/libnet.a(dhcpclient.o)
 .debug_frame   0x0000000000009a2c       0xc8 ../../../lib/net/libnet.a(ntpdaemon.o)
 .debug_frame   0x0000000000009af4      0x27c ../../../lib/net/libnet.a(socket.o)
 .debug_frame   0x0000000000009d70       0xb4 ../../../lib/net/libnet.a(dnsclient.o)
 .debug_frame   0x0000000000009e24       0x64 ../../../lib/net/libnet.a(ntpclient.o)
 .debug_frame   0x0000000000009e88      0x104 ../../../lib/net/libnet.a(netsocket.o)
 .debug_frame   0x0000000000009f8c      0x11c ../../../lib/sched/libsched.a(task.o)
 .debug_frame   0x000000000000a0a8      0x238 ../../../lib/sched/libsched.a(scheduler.o)
 .debug_frame   0x000000000000a2e0       0xa8 ../../../lib/sched/libsched.a(synchronizationevent.o)
 .debug_frame   0x000000000000a388      0x2a0 ../../../lib/usb/libusb.a(xhcidevice.o)
 .debug_frame   0x000000000000a628      0x2c8 ../../../lib/usb/libusb.a(xhciendpoint.o)
 .debug_frame   0x000000000000a8f0       0xdc ../../../lib/usb/libusb.a(xhcieventmanager.o)
 .debug_frame   0x000000000000a9cc      0x204 ../../../lib/usb/libusb.a(xhcimmiospace.o)
 .debug_frame   0x000000000000abd0      0x1a4 ../../../lib/usb/libusb.a(xhciring.o)
 .debug_frame   0x000000000000ad74      0x11c ../../../lib/usb/libusb.a(xhciroothub.o)
 .debug_frame   0x000000000000ae90      0x2c4 ../../../lib/usb/libusb.a(xhcirootport.o)
 .debug_frame   0x000000000000b154       0xb4 ../../../lib/usb/libusb.a(xhcisharedmemallocator.o)
 .debug_frame   0x000000000000b208      0x10c ../../../lib/usb/libusb.a(xhcislotmanager.o)
 .debug_frame   0x000000000000b314      0x274 ../../../lib/usb/libusb.a(xhciusbdevice.o)
 .debug_frame   0x000000000000b588      0x354 ../../../lib/usb/libusb.a(usbdevice.o)
 .debug_frame   0x000000000000b8dc       0x3c ../../../lib/usb/libusb.a(usbdevicefactory.o)
 .debug_frame   0x000000000000b918      0x128 ../../../lib/usb/libusb.a(usbendpoint.o)
 .debug_frame   0x000000000000ba40      0x284 ../../../lib/usb/libusb.a(usbfunction.o)
 .debug_frame   0x000000000000bcc4      0x1b0 ../../../lib/usb/libusb.a(usbgamepadps3.o)
 .debug_frame   0x000000000000be74      0x1cc ../../../lib/usb/libusb.a(usbgamepadps4.o)
 .debug_frame   0x000000000000c040      0x1b0 ../../../lib/usb/libusb.a(usbgamepadstandard.o)
 .debug_frame   0x000000000000c1f0      0x19c ../../../lib/usb/libusb.a(usbgamepadswitchpro.o)
 .debug_frame   0x000000000000c38c      0x188 ../../../lib/usb/libusb.a(usbgamepadxbox360.o)
 .debug_frame   0x000000000000c514      0x158 ../../../lib/usb/libusb.a(usbgamepadxboxone.o)
 .debug_frame   0x000000000000c66c      0x230 ../../../lib/usb/libusb.a(usbhiddevice.o)
 .debug_frame   0x000000000000c89c      0x24c ../../../lib/usb/libusb.a(usbhostcontroller.o)
 .debug_frame   0x000000000000cae8      0x214 ../../../lib/usb/libusb.a(usbkeyboard.o)
 .debug_frame   0x000000000000ccfc      0x284 ../../../lib/usb/libusb.a(usbmassdevice.o)
 .debug_frame   0x000000000000cf80      0x1e4 ../../../lib/usb/libusb.a(usbmidi.o)
 .debug_frame   0x000000000000d164       0xe0 ../../../lib/usb/libusb.a(usbmouse.o)
 .debug_frame   0x000000000000d244      0x10c ../../../lib/usb/libusb.a(usbprinter.o)
 .debug_frame   0x000000000000d350      0x218 ../../../lib/usb/libusb.a(usbrequest.o)
 .debug_frame   0x000000000000d568      0x2a8 ../../../lib/usb/libusb.a(usbstandardhub.o)
 .debug_frame   0x000000000000d810      0x218 ../../../lib/usb/libusb.a(xhcicommandmanager.o)
 .debug_frame   0x000000000000da28      0x3e4 ../../../lib/usb/libusb.a(lan7800.o)
 .debug_frame   0x000000000000de0c      0x370 ../../../lib/usb/libusb.a(smsc951x.o)
 .debug_frame   0x000000000000e17c      0x1b4 ../../../lib/usb/libusb.a(usbbluetooth.o)
 .debug_frame   0x000000000000e330      0x1f4 ../../../lib/usb/libusb.a(usbcdcethernet.o)
 .debug_frame   0x000000000000e524      0x100 ../../../lib/usb/libusb.a(usbconfigparser.o)
 .debug_frame   0x000000000000e624      0x184 ../../../lib/usb/libusb.a(usbgamepad.o)
 .debug_frame   0x000000000000e7a8      0x118 ../../../lib/usb/libusb.a(usbstring.o)
 .debug_frame   0x000000000000e8c0      0x170 ../../../lib/input/libinput.a(keyboardbehaviour.o)
 .debug_frame   0x000000000000ea30       0xe0 ../../../lib/input/libinput.a(keymap.o)
 .debug_frame   0x000000000000eb10      0x158 ../../../lib/input/libinput.a(mouse.o)
 .debug_frame   0x000000000000ec68      0x160 ../../../lib/input/libinput.a(mousebehaviour.o)
 .debug_frame   0x000000000000edc8       0xac ../../../lib/fs/libfs.a(partitionmanager.o)
 .debug_frame   0x000000000000ee74      0x134 ../../../lib/fs/libfs.a(partition.o)
 .debug_frame   0x000000000000efa8       0xb0 ../../../lib/libcircle.a(actled.o)
 .debug_frame   0x000000000000f058       0x8c ../../../lib/libcircle.a(alloc.o)
 .debug_frame   0x000000000000f0e4       0x30 ../../../lib/libcircle.a(assert.o)
 .debug_frame   0x000000000000f114       0xac ../../../lib/libcircle.a(bcmpropertytags.o)
 .debug_frame   0x000000000000f1c0      0x100 ../../../lib/libcircle.a(classallocator.o)
 .debug_frame   0x000000000000f2c0       0x80 ../../../lib/libcircle.a(debug.o)
 .debug_frame   0x000000000000f340       0xa0 ../../../lib/libcircle.a(device.o)
 .debug_frame   0x000000000000f3e0      0x210 ../../../lib/libcircle.a(devicenameservice.o)
 .debug_frame   0x000000000000f5f0      0x278 ../../../lib/libcircle.a(dmachannel.o)
 .debug_frame   0x000000000000f868      0x3e4 ../../../lib/libcircle.a(gpiopin.o)
 .debug_frame   0x000000000000fc4c      0x194 ../../../lib/libcircle.a(koptions.o)
 .debug_frame   0x000000000000fde0      0x228 ../../../lib/libcircle.a(logger.o)
 .debug_frame   0x0000000000010008      0x24c ../../../lib/libcircle.a(machineinfo.o)
 .debug_frame   0x0000000000010254       0xf0 ../../../lib/libcircle.a(ptrarray.o)
 .debug_frame   0x0000000000010344      0x130 ../../../lib/libcircle.a(ptrlist.o)
 .debug_frame   0x0000000000010474      0x644 ../../../lib/libcircle.a(screen.o)
 .debug_frame   0x0000000000010ab8      0x2c8 ../../../lib/libcircle.a(serial.o)
 .debug_frame   0x0000000000010d80      0x340 ../../../lib/libcircle.a(string.o)
 .debug_frame   0x00000000000110c0       0x90 ../../../lib/libcircle.a(sysinit.o)
 .debug_frame   0x0000000000011150      0x3ac ../../../lib/libcircle.a(timer.o)
 .debug_frame   0x00000000000114fc       0x44 ../../../lib/libcircle.a(util.o)
 .debug_frame   0x0000000000011540       0xd0 ../../../lib/libcircle.a(virtualgpiopin.o)
 .debug_frame   0x0000000000011610       0x60 ../../../lib/libcircle.a(chainboot.o)
 .debug_frame   0x0000000000011670      0x15c ../../../lib/libcircle.a(macaddress.o)
 .debug_frame   0x00000000000117cc       0x88 ../../../lib/libcircle.a(netdevice.o)
 .debug_frame   0x0000000000011854       0x80 ../../../lib/libcircle.a(new.o)
 .debug_frame   0x00000000000118d4      0x114 ../../../lib/libcircle.a(heapallocator.o)
 .debug_frame   0x00000000000119e8       0xc0 ../../../lib/libcircle.a(pageallocator.o)
 .debug_frame   0x0000000000011aa8       0xa8 ../../../lib/libcircle.a(numberpool.o)
 .debug_frame   0x0000000000011b50       0xe8 ../../../lib/libcircle.a(exceptionhandler.o)
 .debug_frame   0x0000000000011c38      0x100 ../../../lib/libcircle.a(memory.o)
 .debug_frame   0x0000000000011d38       0xb8 ../../../lib/libcircle.a(pagetable.o)
 .debug_frame   0x0000000000011df0       0x7c ../../../lib/libcircle.a(synchronize.o)
 .debug_frame   0x0000000000011e6c      0x798 ../../../lib/libcircle.a(bcm54213.o)
 .debug_frame   0x0000000000012604      0x4d0 ../../../lib/libcircle.a(bcmpciehostbridge.o)
 .debug_frame   0x0000000000012ad4       0x88 ../../../lib/libcircle.a(bcmrandom200.o)
 .debug_frame   0x0000000000012b5c      0x248 ../../../lib/libcircle.a(interruptgic.o)
 .debug_frame   0x0000000000012da4      0x204 ../../../lib/libcircle.a(dma4channel.o)
 .debug_frame   0x0000000000012fa8      0x14c ../../../lib/libcircle.a(devicetreeblob.o)
 .debug_frame   0x00000000000130f4      0x1d4 ../../../lib/libcircle.a(bcmframebuffer.o)
 .debug_frame   0x00000000000132c8       0xb8 ../../../lib/libcircle.a(bcmmailbox.o)
 .debug_frame   0x0000000000013380       0x78 ../../../lib/libcircle.a(chargenerator.o)
 .debug_frame   0x00000000000133f8      0x108 ../../../lib/libcircle.a(gpiomanager.o)
 .debug_frame   0x0000000000013500       0xdc /home/olf/projects/circle/gcc-arm-9.2-2019.12-x86_64-arm-none-eabi/bin/../lib/gcc/arm-none-eabi/9.2.1/../../../../arm-none-eabi/lib/thumb/v8-a+simd/hard/libstdc++.a(class_type_info.o)
 .debug_frame   0x00000000000135dc       0x20 /home/olf/projects/circle/gcc-arm-9.2-2019.12-x86_64-arm-none-eabi/bin/../lib/gcc/arm-none-eabi/9.2.1/../../../../arm-none-eabi/lib/thumb/v8-a+simd/hard/libstdc++.a(del_ops.o)
 .debug_frame   0x00000000000135fc       0x20 /home/olf/projects/circle/gcc-arm-9.2-2019.12-x86_64-arm-none-eabi/bin/../lib/gcc/arm-none-eabi/9.2.1/../../../../arm-none-eabi/lib/thumb/v8-a+simd/hard/libstdc++.a(del_opv.o)
 .debug_frame   0x000000000001361c       0x70 /home/olf/projects/circle/gcc-arm-9.2-2019.12-x86_64-arm-none-eabi/bin/../lib/gcc/arm-none-eabi/9.2.1/../../../../arm-none-eabi/lib/thumb/v8-a+simd/hard/libstdc++.a(eh_arm.o)
 .debug_frame   0x000000000001368c       0x58 /home/olf/projects/circle/gcc-arm-9.2-2019.12-x86_64-arm-none-eabi/bin/../lib/gcc/arm-none-eabi/9.2.1/../../../../arm-none-eabi/lib/thumb/v8-a+simd/hard/libstdc++.a(eh_aux_runtime.o)
 .debug_frame   0x00000000000136e4       0xf0 /home/olf/projects/circle/gcc-arm-9.2-2019.12-x86_64-arm-none-eabi/bin/../lib/gcc/arm-none-eabi/9.2.1/../../../../arm-none-eabi/lib/thumb/v8-a+simd/hard/libstdc++.a(eh_exception.o)
 .debug_frame   0x00000000000137d4       0x30 /home/olf/projects/circle/gcc-arm-9.2-2019.12-x86_64-arm-none-eabi/bin/../lib/gcc/arm-none-eabi/9.2.1/../../../../arm-none-eabi/lib/thumb/v8-a+simd/hard/libstdc++.a(eh_globals.o)
 .debug_frame   0x0000000000013804       0xcc /home/olf/projects/circle/gcc-arm-9.2-2019.12-x86_64-arm-none-eabi/bin/../lib/gcc/arm-none-eabi/9.2.1/../../../../arm-none-eabi/lib/thumb/v8-a+simd/hard/libstdc++.a(eh_personality.o)
 .debug_frame   0x00000000000138d0       0xb0 /home/olf/projects/circle/gcc-arm-9.2-2019.12-x86_64-arm-none-eabi/bin/../lib/gcc/arm-none-eabi/9.2.1/../../../../arm-none-eabi/lib/thumb/v8-a+simd/hard/libstdc++.a(eh_terminate.o)
 .debug_frame   0x0000000000013980       0x80 /home/olf/projects/circle/gcc-arm-9.2-2019.12-x86_64-arm-none-eabi/bin/../lib/gcc/arm-none-eabi/9.2.1/../../../../arm-none-eabi/lib/thumb/v8-a+simd/hard/libstdc++.a(eh_throw.o)
 .debug_frame   0x0000000000013a00       0x28 /home/olf/projects/circle/gcc-arm-9.2-2019.12-x86_64-arm-none-eabi/bin/../lib/gcc/arm-none-eabi/9.2.1/../../../../arm-none-eabi/lib/thumb/v8-a+simd/hard/libstdc++.a(new_op.o)
 .debug_frame   0x0000000000013a28       0x20 /home/olf/projects/circle/gcc-arm-9.2-2019.12-x86_64-arm-none-eabi/bin/../lib/gcc/arm-none-eabi/9.2.1/../../../../arm-none-eabi/lib/thumb/v8-a+simd/hard/libstdc++.a(new_opv.o)
 .debug_frame   0x0000000000013a48       0x40 /home/olf/projects/circle/gcc-arm-9.2-2019.12-x86_64-arm-none-eabi/bin/../lib/gcc/arm-none-eabi/9.2.1/../../../../arm-none-eabi/lib/thumb/v8-a+simd/hard/libstdc++.a(pure.o)
 .debug_frame   0x0000000000013a88       0xdc /home/olf/projects/circle/gcc-arm-9.2-2019.12-x86_64-arm-none-eabi/bin/../lib/gcc/arm-none-eabi/9.2.1/../../../../arm-none-eabi/lib/thumb/v8-a+simd/hard/libstdc++.a(si_class_type_info.o)
 .debug_frame   0x0000000000013b64       0x84 /home/olf/projects/circle/gcc-arm-9.2-2019.12-x86_64-arm-none-eabi/bin/../lib/gcc/arm-none-eabi/9.2.1/../../../../arm-none-eabi/lib/thumb/v8-a+simd/hard/libstdc++.a(tinfo.o)
 .debug_frame   0x0000000000013be8       0xf4 /home/olf/projects/circle/gcc-arm-9.2-2019.12-x86_64-arm-none-eabi/bin/../lib/gcc/arm-none-eabi/9.2.1/../../../../arm-none-eabi/lib/thumb/v8-a+simd/hard/libstdc++.a(vmi_class_type_info.o)
 .debug_frame   0x0000000000013cdc       0x30 /home/olf/projects/circle/gcc-arm-9.2-2019.12-x86_64-arm-none-eabi/bin/../lib/gcc/arm-none-eabi/9.2.1/../../../../arm-none-eabi/lib/thumb/v8-a+simd/hard/libstdc++.a(vterminate.o)
 .debug_frame   0x0000000000013d0c       0x50 /home/olf/projects/circle/gcc-arm-9.2-2019.12-x86_64-arm-none-eabi/bin/../lib/gcc/arm-none-eabi/9.2.1/../../../../arm-none-eabi/lib/thumb/v8-a+simd/hard/libstdc++.a(bad_alloc.o)
 .debug_frame   0x0000000000013d5c       0x50 /home/olf/projects/circle/gcc-arm-9.2-2019.12-x86_64-arm-none-eabi/bin/../lib/gcc/arm-none-eabi/9.2.1/../../../../arm-none-eabi/lib/thumb/v8-a+simd/hard/libstdc++.a(bad_array_new.o)
 .debug_frame   0x0000000000013dac       0x50 /home/olf/projects/circle/gcc-arm-9.2-2019.12-x86_64-arm-none-eabi/bin/../lib/gcc/arm-none-eabi/9.2.1/../../../../arm-none-eabi/lib/thumb/v8-a+simd/hard/libstdc++.a(bad_cast.o)
 .debug_frame   0x0000000000013dfc       0x50 /home/olf/projects/circle/gcc-arm-9.2-2019.12-x86_64-arm-none-eabi/bin/../lib/gcc/arm-none-eabi/9.2.1/../../../../arm-none-eabi/lib/thumb/v8-a+simd/hard/libstdc++.a(bad_typeid.o)
 .debug_frame   0x0000000000013e4c      0x89c /home/olf/projects/circle/gcc-arm-9.2-2019.12-x86_64-arm-none-eabi/bin/../lib/gcc/arm-none-eabi/9.2.1/../../../../arm-none-eabi/lib/thumb/v8-a+simd/hard/libstdc++.a(cp-demangle.o)
 .debug_frame   0x00000000000146e8       0x20 /home/olf/projects/circle/gcc-arm-9.2-2019.12-x86_64-arm-none-eabi/bin/../lib/gcc/arm-none-eabi/9.2.1/../../../../arm-none-eabi/lib/thumb/v8-a+simd/hard/libstdc++.a(del_op.o)
 .debug_frame   0x0000000000014708       0xe8 /home/olf/projects/circle/gcc-arm-9.2-2019.12-x86_64-arm-none-eabi/bin/../lib/gcc/arm-none-eabi/9.2.1/../../../../arm-none-eabi/lib/thumb/v8-a+simd/hard/libstdc++.a(eh_alloc.o)
 .debug_frame   0x00000000000147f0       0x60 /home/olf/projects/circle/gcc-arm-9.2-2019.12-x86_64-arm-none-eabi/bin/../lib/gcc/arm-none-eabi/9.2.1/../../../../arm-none-eabi/lib/thumb/v8-a+simd/hard/libstdc++.a(eh_call.o)
 .debug_frame   0x0000000000014850       0x94 /home/olf/projects/circle/gcc-arm-9.2-2019.12-x86_64-arm-none-eabi/bin/../lib/gcc/arm-none-eabi/9.2.1/../../../../arm-none-eabi/lib/thumb/v8-a+simd/hard/libstdc++.a(eh_catch.o)
 .debug_frame   0x00000000000148e4       0x28 /home/olf/projects/circle/gcc-arm-9.2-2019.12-x86_64-arm-none-eabi/bin/../lib/gcc/arm-none-eabi/9.2.1/../../../../arm-none-eabi/lib/thumb/v8-a+simd/hard/libstdc++.a(eh_type.o)
 .debug_frame   0x000000000001490c       0x30 /home/olf/projects/circle/gcc-arm-9.2-2019.12-x86_64-arm-none-eabi/bin/../lib/gcc/arm-none-eabi/9.2.1/../../../../arm-none-eabi/lib/thumb/v8-a+simd/hard/libstdc++.a(new_handler.o)
 .debug_frame   0x000000000001493c       0x44 /home/olf/projects/circle/gcc-arm-9.2-2019.12-x86_64-arm-none-eabi/bin/../lib/gcc/arm-none-eabi/9.2.1/thumb/v8-a+simd/hard/libgcc.a(_aeabi_ldivmod.o)
 .debug_frame   0x0000000000014980       0x2c /home/olf/projects/circle/gcc-arm-9.2-2019.12-x86_64-arm-none-eabi/bin/../lib/gcc/arm-none-eabi/9.2.1/thumb/v8-a+simd/hard/libgcc.a(_aeabi_uldivmod.o)
 .debug_frame   0x00000000000149ac       0x38 /home/olf/projects/circle/gcc-arm-9.2-2019.12-x86_64-arm-none-eabi/bin/../lib/gcc/arm-none-eabi/9.2.1/thumb/v8-a+simd/hard/libgcc.a(_udivmoddi4.o)
 .debug_frame   0x00000000000149e4      0x2ec /home/olf/projects/circle/gcc-arm-9.2-2019.12-x86_64-arm-none-eabi/bin/../lib/gcc/arm-none-eabi/9.2.1/thumb/v8-a+simd/hard/libgcc.a(unwind-arm.o)
 .debug_frame   0x0000000000014cd0       0xf8 /home/olf/projects/circle/gcc-arm-9.2-2019.12-x86_64-arm-none-eabi/bin/../lib/gcc/arm-none-eabi/9.2.1/thumb/v8-a+simd/hard/libgcc.a(pr-support.o)
